
LCD-Desenhos.elf:     file format elf32-littlearm

Sections:
Idx Name          Size      VMA       LMA       File off  Algn
  0 .text         0001fa94  00400000  00400000  00008000  2**3
                  CONTENTS, ALLOC, LOAD, READONLY, CODE
  1 .ARM.exidx    00000008  0041fa94  0041fa94  00027a94  2**2
                  CONTENTS, ALLOC, LOAD, READONLY, DATA
  2 .relocate     00000884  20000000  0041fa9c  00028000  2**3
                  CONTENTS, ALLOC, LOAD, DATA
  3 .bss          000004b8  20000884  00420320  00028884  2**2
                  ALLOC
  4 .stack        00003004  20000d3c  004207d8  00028884  2**0
                  ALLOC
  5 .ARM.attributes 0000002a  00000000  00000000  00028884  2**0
                  CONTENTS, READONLY
  6 .comment      0000005b  00000000  00000000  000288ae  2**0
                  CONTENTS, READONLY
  7 .debug_info   0000db59  00000000  00000000  00028909  2**0
                  CONTENTS, READONLY, DEBUGGING
  8 .debug_abbrev 00001f3a  00000000  00000000  00036462  2**0
                  CONTENTS, READONLY, DEBUGGING
  9 .debug_loc    00005e6c  00000000  00000000  0003839c  2**0
                  CONTENTS, READONLY, DEBUGGING
 10 .debug_aranges 00000a70  00000000  00000000  0003e208  2**0
                  CONTENTS, READONLY, DEBUGGING
 11 .debug_ranges 00000a38  00000000  00000000  0003ec78  2**0
                  CONTENTS, READONLY, DEBUGGING
 12 .debug_macro  0000688a  00000000  00000000  0003f6b0  2**0
                  CONTENTS, READONLY, DEBUGGING
 13 .debug_line   0000b43e  00000000  00000000  00045f3a  2**0
                  CONTENTS, READONLY, DEBUGGING
 14 .debug_str    00059d6c  00000000  00000000  00051378  2**0
                  CONTENTS, READONLY, DEBUGGING
 15 .debug_frame  000023ac  00000000  00000000  000ab0e4  2**2
                  CONTENTS, READONLY, DEBUGGING

Disassembly of section .text:

00400000 <_sfixed>:
  400000:	20003d40 	.word	0x20003d40
  400004:	00401245 	.word	0x00401245
  400008:	00401241 	.word	0x00401241
  40000c:	00401241 	.word	0x00401241
  400010:	00401241 	.word	0x00401241
  400014:	00401241 	.word	0x00401241
  400018:	00401241 	.word	0x00401241
	...
  40002c:	00401241 	.word	0x00401241
  400030:	00401241 	.word	0x00401241
  400034:	00000000 	.word	0x00000000
  400038:	00401241 	.word	0x00401241
  40003c:	00401241 	.word	0x00401241
  400040:	00401241 	.word	0x00401241
  400044:	00401241 	.word	0x00401241
  400048:	00401241 	.word	0x00401241
  40004c:	00401241 	.word	0x00401241
  400050:	00401241 	.word	0x00401241
  400054:	00401241 	.word	0x00401241
  400058:	00401241 	.word	0x00401241
  40005c:	00401241 	.word	0x00401241
  400060:	00401241 	.word	0x00401241
  400064:	00401241 	.word	0x00401241
  400068:	00000000 	.word	0x00000000
  40006c:	004010c5 	.word	0x004010c5
  400070:	004010d9 	.word	0x004010d9
  400074:	004010ed 	.word	0x004010ed
  400078:	00401241 	.word	0x00401241
  40007c:	00401241 	.word	0x00401241
	...
  400088:	00401241 	.word	0x00401241
  40008c:	00401241 	.word	0x00401241
  400090:	00401241 	.word	0x00401241
  400094:	00401241 	.word	0x00401241
  400098:	00401241 	.word	0x00401241
  40009c:	004014d1 	.word	0x004014d1
  4000a0:	00401241 	.word	0x00401241
  4000a4:	00401241 	.word	0x00401241
  4000a8:	00401241 	.word	0x00401241
  4000ac:	00401241 	.word	0x00401241
  4000b0:	00401241 	.word	0x00401241
  4000b4:	00401619 	.word	0x00401619
  4000b8:	00401241 	.word	0x00401241
  4000bc:	00401241 	.word	0x00401241
  4000c0:	00401241 	.word	0x00401241
  4000c4:	00401241 	.word	0x00401241
  4000c8:	00401241 	.word	0x00401241

004000cc <__do_global_dtors_aux>:
  4000cc:	b510      	push	{r4, lr}
  4000ce:	4c05      	ldr	r4, [pc, #20]	; (4000e4 <__do_global_dtors_aux+0x18>)
  4000d0:	7823      	ldrb	r3, [r4, #0]
  4000d2:	b933      	cbnz	r3, 4000e2 <__do_global_dtors_aux+0x16>
  4000d4:	4b04      	ldr	r3, [pc, #16]	; (4000e8 <__do_global_dtors_aux+0x1c>)
  4000d6:	b113      	cbz	r3, 4000de <__do_global_dtors_aux+0x12>
  4000d8:	4804      	ldr	r0, [pc, #16]	; (4000ec <__do_global_dtors_aux+0x20>)
  4000da:	f3af 8000 	nop.w
  4000de:	2301      	movs	r3, #1
  4000e0:	7023      	strb	r3, [r4, #0]
  4000e2:	bd10      	pop	{r4, pc}
  4000e4:	20000884 	.word	0x20000884
  4000e8:	00000000 	.word	0x00000000
  4000ec:	0041fa9c 	.word	0x0041fa9c

004000f0 <frame_dummy>:
  4000f0:	4b08      	ldr	r3, [pc, #32]	; (400114 <frame_dummy+0x24>)
  4000f2:	b510      	push	{r4, lr}
  4000f4:	b11b      	cbz	r3, 4000fe <frame_dummy+0xe>
  4000f6:	4808      	ldr	r0, [pc, #32]	; (400118 <frame_dummy+0x28>)
  4000f8:	4908      	ldr	r1, [pc, #32]	; (40011c <frame_dummy+0x2c>)
  4000fa:	f3af 8000 	nop.w
  4000fe:	4808      	ldr	r0, [pc, #32]	; (400120 <frame_dummy+0x30>)
  400100:	6803      	ldr	r3, [r0, #0]
  400102:	b903      	cbnz	r3, 400106 <frame_dummy+0x16>
  400104:	bd10      	pop	{r4, pc}
  400106:	4b07      	ldr	r3, [pc, #28]	; (400124 <frame_dummy+0x34>)
  400108:	2b00      	cmp	r3, #0
  40010a:	d0fb      	beq.n	400104 <frame_dummy+0x14>
  40010c:	e8bd 4010 	ldmia.w	sp!, {r4, lr}
  400110:	4718      	bx	r3
  400112:	bf00      	nop
  400114:	00000000 	.word	0x00000000
  400118:	0041fa9c 	.word	0x0041fa9c
  40011c:	20000888 	.word	0x20000888
  400120:	0041fa9c 	.word	0x0041fa9c
  400124:	00000000 	.word	0x00000000

00400128 <adc_init>:
 *
 * \return 0 on success.
 */
uint32_t adc_init(Adc *p_adc, const uint32_t ul_mck,
		const uint32_t ul_adc_clock, const enum adc_startup_time startup)
{
  400128:	b430      	push	{r4, r5}
	uint32_t ul_prescal;

	/*  Reset the controller. */
	p_adc->ADC_CR = ADC_CR_SWRST;
  40012a:	2401      	movs	r4, #1
  40012c:	6004      	str	r4, [r0, #0]

	/* Reset Mode Register. */
	p_adc->ADC_MR = 0;
  40012e:	2400      	movs	r4, #0
  400130:	6044      	str	r4, [r0, #4]

	/* Reset PDC transfer. */
	p_adc->ADC_PTCR = (ADC_PTCR_RXTDIS | ADC_PTCR_TXTDIS);
  400132:	f240 2502 	movw	r5, #514	; 0x202
  400136:	f8c0 5120 	str.w	r5, [r0, #288]	; 0x120
	p_adc->ADC_RCR = 0;
  40013a:	f8c0 4104 	str.w	r4, [r0, #260]	; 0x104
	p_adc->ADC_RNCR = 0;
  40013e:	f8c0 4114 	str.w	r4, [r0, #276]	; 0x114

	ul_prescal = ul_mck / (2 * ul_adc_clock) - 1;
	p_adc->ADC_MR |= ADC_MR_PRESCAL(ul_prescal) | startup;
  400142:	6845      	ldr	r5, [r0, #4]
  400144:	432b      	orrs	r3, r5
	/* Reset PDC transfer. */
	p_adc->ADC_PTCR = (ADC_PTCR_RXTDIS | ADC_PTCR_TXTDIS);
	p_adc->ADC_RCR = 0;
	p_adc->ADC_RNCR = 0;

	ul_prescal = ul_mck / (2 * ul_adc_clock) - 1;
  400146:	0052      	lsls	r2, r2, #1
  400148:	fbb1 f1f2 	udiv	r1, r1, r2
  40014c:	1e4a      	subs	r2, r1, #1
	p_adc->ADC_MR |= ADC_MR_PRESCAL(ul_prescal) | startup;
  40014e:	0212      	lsls	r2, r2, #8
  400150:	b292      	uxth	r2, r2
  400152:	4313      	orrs	r3, r2
  400154:	6043      	str	r3, [r0, #4]
	return 0;
}
  400156:	4620      	mov	r0, r4
  400158:	bc30      	pop	{r4, r5}
  40015a:	4770      	bx	lr

0040015c <adc_configure_trigger>:
 *
 */
void adc_configure_trigger(Adc *p_adc, const enum adc_trigger_t trigger,
		uint8_t uc_freerun)
{
	p_adc->ADC_MR |= trigger | ((uc_freerun << 7) & ADC_MR_FREERUN);
  40015c:	6843      	ldr	r3, [r0, #4]
  40015e:	4319      	orrs	r1, r3
  400160:	01d2      	lsls	r2, r2, #7
  400162:	b2d2      	uxtb	r2, r2
  400164:	4311      	orrs	r1, r2
  400166:	6041      	str	r1, [r0, #4]
  400168:	4770      	bx	lr
  40016a:	bf00      	nop

0040016c <adc_configure_timing>:
 * \param uc_settling Analog settling time = (uc_settling + 1) / ADC clock.
 * \param uc_transfer Data transfer time = (uc_transfer * 2 + 3) / ADC clock.
 */
void adc_configure_timing(Adc *p_adc, const uint8_t uc_tracking,
		const enum adc_settling_time_t settling,const uint8_t uc_transfer)
{
  40016c:	b410      	push	{r4}
	p_adc->ADC_MR |= ADC_MR_TRANSFER(uc_transfer)
  40016e:	6844      	ldr	r4, [r0, #4]
  400170:	4322      	orrs	r2, r4
			| settling | ADC_MR_TRACKTIM(uc_tracking);
  400172:	0609      	lsls	r1, r1, #24
  400174:	f001 6170 	and.w	r1, r1, #251658240	; 0xf000000
  400178:	430a      	orrs	r2, r1
 * \param uc_transfer Data transfer time = (uc_transfer * 2 + 3) / ADC clock.
 */
void adc_configure_timing(Adc *p_adc, const uint8_t uc_tracking,
		const enum adc_settling_time_t settling,const uint8_t uc_transfer)
{
	p_adc->ADC_MR |= ADC_MR_TRANSFER(uc_transfer)
  40017a:	071b      	lsls	r3, r3, #28
  40017c:	f003 5340 	and.w	r3, r3, #805306368	; 0x30000000
  400180:	4313      	orrs	r3, r2
  400182:	6043      	str	r3, [r0, #4]
			| settling | ADC_MR_TRACKTIM(uc_tracking);
}
  400184:	f85d 4b04 	ldr.w	r4, [sp], #4
  400188:	4770      	bx	lr
  40018a:	bf00      	nop

0040018c <adc_start>:
 * \param p_adc Pointer to an ADC instance.
 */

void adc_start(Adc *p_adc)
{
	p_adc->ADC_CR = ADC_CR_START;
  40018c:	2302      	movs	r3, #2
  40018e:	6003      	str	r3, [r0, #0]
  400190:	4770      	bx	lr
  400192:	bf00      	nop

00400194 <adc_enable_channel>:
 * \param p_adc Pointer to an ADC instance.
 * \param adc_ch ADC channel number.
 */
void adc_enable_channel(Adc *p_adc, const enum adc_channel_num_t adc_ch)
{
	p_adc->ADC_CHER = 1 << adc_ch;
  400194:	2301      	movs	r3, #1
  400196:	408b      	lsls	r3, r1
  400198:	6103      	str	r3, [r0, #16]
  40019a:	4770      	bx	lr

0040019c <adc_get_channel_value>:
 */
uint32_t adc_get_channel_value(const Adc *p_adc, const enum adc_channel_num_t adc_ch)
{
	uint32_t ul_data = 0;

	if (15 >= adc_ch) {
  40019c:	290f      	cmp	r1, #15
		ul_data = *(p_adc->ADC_CDR + adc_ch);
  40019e:	bf9a      	itte	ls
  4001a0:	3114      	addls	r1, #20
  4001a2:	f850 0021 	ldrls.w	r0, [r0, r1, lsl #2]
 *
 * \return ADC value of the specified channel.
 */
uint32_t adc_get_channel_value(const Adc *p_adc, const enum adc_channel_num_t adc_ch)
{
	uint32_t ul_data = 0;
  4001a6:	2000      	movhi	r0, #0
	if (15 >= adc_ch) {
		ul_data = *(p_adc->ADC_CDR + adc_ch);
	}

	return ul_data;
}
  4001a8:	4770      	bx	lr
  4001aa:	bf00      	nop

004001ac <adc_enable_interrupt>:
 * \param p_adc Pointer to an ADC instance.
 * \param ul_source Interrupts to be enabled.
 */
void adc_enable_interrupt(Adc *p_adc, const uint32_t ul_source)
{
	p_adc->ADC_IER = ul_source;
  4001ac:	6241      	str	r1, [r0, #36]	; 0x24
  4001ae:	4770      	bx	lr

004001b0 <adc_get_status>:
 *
 * \return ADC status structure.
 */
uint32_t adc_get_status(const Adc *p_adc)
{
	return p_adc->ADC_ISR;
  4001b0:	6b00      	ldr	r0, [r0, #48]	; 0x30
}
  4001b2:	4770      	bx	lr

004001b4 <adc_enable_ts>:
 *
 * \param p_adc Pointer to an ADC instance.
 */
void adc_enable_ts(Adc *p_adc)
{
	p_adc->ADC_ACR |= ADC_ACR_TSON;
  4001b4:	f8d0 3094 	ldr.w	r3, [r0, #148]	; 0x94
  4001b8:	f043 0310 	orr.w	r3, r3, #16
  4001bc:	f8c0 3094 	str.w	r3, [r0, #148]	; 0x94
  4001c0:	4770      	bx	lr
  4001c2:	bf00      	nop

004001c4 <dacc_reset>:
 *
 * \param p_dacc Pointer to a DACC instance. 
 */
void dacc_reset(Dacc *p_dacc)
{
	p_dacc->DACC_CR = DACC_CR_SWRST;
  4001c4:	2301      	movs	r3, #1
  4001c6:	6003      	str	r3, [r0, #0]
  4001c8:	4770      	bx	lr
  4001ca:	bf00      	nop

004001cc <dacc_set_transfer_mode>:
 *
 * \return \ref DACC_RC_OK for OK.
 */
uint32_t dacc_set_transfer_mode(Dacc *p_dacc, uint32_t ul_mode)
{
	if (ul_mode) {
  4001cc:	b141      	cbz	r1, 4001e0 <dacc_set_transfer_mode+0x14>
#if (SAM3N) || (SAM4L) || (SAM4N)
		p_dacc->DACC_MR |= DACC_MR_WORD;
#elif (SAM4S) || (SAM4E)
		p_dacc->DACC_MR |= DACC_MR_ONE;
  4001ce:	6843      	ldr	r3, [r0, #4]
  4001d0:	f443 7380 	orr.w	r3, r3, #256	; 0x100
  4001d4:	6043      	str	r3, [r0, #4]
		p_dacc->DACC_MR |= DACC_MR_WORD_WORD;
  4001d6:	6843      	ldr	r3, [r0, #4]
  4001d8:	f043 0310 	orr.w	r3, r3, #16
  4001dc:	6043      	str	r3, [r0, #4]
  4001de:	e007      	b.n	4001f0 <dacc_set_transfer_mode+0x24>
#endif
	} else {
#if (SAM3N) || (SAM4L) || (SAM4N)
		p_dacc->DACC_MR &= (~DACC_MR_WORD);
#elif (SAM4S) || (SAM4E)
		p_dacc->DACC_MR |= DACC_MR_ONE;
  4001e0:	6843      	ldr	r3, [r0, #4]
  4001e2:	f443 7380 	orr.w	r3, r3, #256	; 0x100
  4001e6:	6043      	str	r3, [r0, #4]
		p_dacc->DACC_MR &= (~DACC_MR_WORD_WORD);
  4001e8:	6843      	ldr	r3, [r0, #4]
  4001ea:	f023 0310 	bic.w	r3, r3, #16
  4001ee:	6043      	str	r3, [r0, #4]
#else
		p_dacc->DACC_MR &= (~DACC_MR_WORD_WORD);
#endif
	}
	return DACC_RC_OK;
}
  4001f0:	2000      	movs	r0, #0
  4001f2:	4770      	bx	lr

004001f4 <dacc_get_interrupt_status>:
 *
 * \return The interrupt status.
 */
uint32_t dacc_get_interrupt_status(Dacc *p_dacc)
{
	return p_dacc->DACC_ISR;
  4001f4:	6b00      	ldr	r0, [r0, #48]	; 0x30
}
  4001f6:	4770      	bx	lr

004001f8 <dacc_write_conversion_data>:
 * \param p_dacc Pointer to a DACC instance. 
 * \param ul_data The data to be transferred to analog value.
 */
void dacc_write_conversion_data(Dacc *p_dacc, uint32_t ul_data)
{
	p_dacc->DACC_CDR = ul_data;
  4001f8:	6201      	str	r1, [r0, #32]
  4001fa:	4770      	bx	lr

004001fc <dacc_set_channel_selection>:
 *
 * \return \ref DACC_RC_OK if successful.
 */
uint32_t dacc_set_channel_selection(Dacc *p_dacc, uint32_t ul_channel)
{
	uint32_t mr = p_dacc->DACC_MR & (~DACC_MR_USER_SEL_Msk);
  4001fc:	6843      	ldr	r3, [r0, #4]
	if (ul_channel > MAX_CH_NB) {
  4001fe:	2901      	cmp	r1, #1
  400200:	d806      	bhi.n	400210 <dacc_set_channel_selection+0x14>
		return DACC_RC_INVALID_PARAM;
	}
	mr &= ~(DACC_MR_TAG);
  400202:	f423 1398 	bic.w	r3, r3, #1245184	; 0x130000
	mr |= ul_channel << DACC_MR_USER_SEL_Pos;
  400206:	ea43 4101 	orr.w	r1, r3, r1, lsl #16
	p_dacc->DACC_MR = mr;
  40020a:	6041      	str	r1, [r0, #4]

	return DACC_RC_OK;
  40020c:	2000      	movs	r0, #0
  40020e:	4770      	bx	lr
 */
uint32_t dacc_set_channel_selection(Dacc *p_dacc, uint32_t ul_channel)
{
	uint32_t mr = p_dacc->DACC_MR & (~DACC_MR_USER_SEL_Msk);
	if (ul_channel > MAX_CH_NB) {
		return DACC_RC_INVALID_PARAM;
  400210:	2001      	movs	r0, #1
	mr &= ~(DACC_MR_TAG);
	mr |= ul_channel << DACC_MR_USER_SEL_Pos;
	p_dacc->DACC_MR = mr;

	return DACC_RC_OK;
}
  400212:	4770      	bx	lr

00400214 <dacc_enable_channel>:
 *
 * \return \ref DACC_RC_OK for OK.
 */
uint32_t dacc_enable_channel(Dacc *p_dacc, uint32_t ul_channel)
{
	if (ul_channel > MAX_CH_NB)
  400214:	2901      	cmp	r1, #1
  400216:	d804      	bhi.n	400222 <dacc_enable_channel+0xe>
		return DACC_RC_INVALID_PARAM;

	p_dacc->DACC_CHER = DACC_CHER_CH0 << ul_channel;
  400218:	2301      	movs	r3, #1
  40021a:	408b      	lsls	r3, r1
  40021c:	6103      	str	r3, [r0, #16]
	return DACC_RC_OK;
  40021e:	2000      	movs	r0, #0
  400220:	4770      	bx	lr
 * \return \ref DACC_RC_OK for OK.
 */
uint32_t dacc_enable_channel(Dacc *p_dacc, uint32_t ul_channel)
{
	if (ul_channel > MAX_CH_NB)
		return DACC_RC_INVALID_PARAM;
  400222:	2001      	movs	r0, #1

	p_dacc->DACC_CHER = DACC_CHER_CH0 << ul_channel;
	return DACC_RC_OK;
}
  400224:	4770      	bx	lr
  400226:	bf00      	nop

00400228 <dacc_set_analog_control>:
 *
 * \return \ref DACC_RC_OK for OK.
 */
uint32_t dacc_set_analog_control(Dacc *p_dacc, uint32_t ul_analog_control)
{
	p_dacc->DACC_ACR = ul_analog_control;
  400228:	f8c0 1094 	str.w	r1, [r0, #148]	; 0x94
	return DACC_RC_OK;
}
  40022c:	2000      	movs	r0, #0
  40022e:	4770      	bx	lr

00400230 <tc_init>:
 */
void tc_init(
		Tc *p_tc,
		uint32_t ul_channel,
		uint32_t ul_mode)
{
  400230:	b410      	push	{r4}
  400232:	0189      	lsls	r1, r1, #6
  400234:	1843      	adds	r3, r0, r1
	Assert(ul_channel <
			(sizeof(p_tc->TC_CHANNEL) / sizeof(p_tc->TC_CHANNEL[0])));
	tc_channel = p_tc->TC_CHANNEL + ul_channel;

	/*  Disable TC clock. */
	tc_channel->TC_CCR = TC_CCR_CLKDIS;
  400236:	2402      	movs	r4, #2
  400238:	5044      	str	r4, [r0, r1]

	/*  Disable interrupts. */
	tc_channel->TC_IDR = 0xFFFFFFFF;
  40023a:	f04f 31ff 	mov.w	r1, #4294967295
  40023e:	6299      	str	r1, [r3, #40]	; 0x28

	/*  Clear status register. */
	tc_channel->TC_SR;
  400240:	6a19      	ldr	r1, [r3, #32]

	/*  Set mode. */
	tc_channel->TC_CMR = ul_mode;
  400242:	605a      	str	r2, [r3, #4]
}
  400244:	f85d 4b04 	ldr.w	r4, [sp], #4
  400248:	4770      	bx	lr
  40024a:	bf00      	nop

0040024c <tc_start>:
	/* Validate inputs. */
	Assert(p_tc);
	Assert(ul_channel <
			(sizeof(p_tc->TC_CHANNEL) / sizeof(p_tc->TC_CHANNEL[0])));

	p_tc->TC_CHANNEL[ul_channel].TC_CCR = TC_CCR_CLKEN | TC_CCR_SWTRG;
  40024c:	0189      	lsls	r1, r1, #6
  40024e:	2305      	movs	r3, #5
  400250:	5043      	str	r3, [r0, r1]
  400252:	4770      	bx	lr

00400254 <tc_write_rc>:
	/* Validate inputs. */
	Assert(p_tc);
	Assert(ul_channel <
			(sizeof(p_tc->TC_CHANNEL) / sizeof(p_tc->TC_CHANNEL[0])));

	p_tc->TC_CHANNEL[ul_channel].TC_RC = ul_value;
  400254:	eb00 1181 	add.w	r1, r0, r1, lsl #6
  400258:	61ca      	str	r2, [r1, #28]
  40025a:	4770      	bx	lr

0040025c <tc_enable_interrupt>:
	/* Validate inputs. */
	Assert(p_tc);
	Assert(ul_channel <
			(sizeof(p_tc->TC_CHANNEL) / sizeof(p_tc->TC_CHANNEL[0])));
	tc_channel = p_tc->TC_CHANNEL + ul_channel;
	tc_channel->TC_IER = ul_sources;
  40025c:	eb00 1181 	add.w	r1, r0, r1, lsl #6
  400260:	624a      	str	r2, [r1, #36]	; 0x24
  400262:	4770      	bx	lr

00400264 <tc_get_status>:
	Assert(p_tc);
	Assert(ul_channel <
			(sizeof(p_tc->TC_CHANNEL) / sizeof(p_tc->TC_CHANNEL[0])));
			
	tc_channel = p_tc->TC_CHANNEL + ul_channel;
	return tc_channel->TC_SR;
  400264:	eb00 1181 	add.w	r1, r0, r1, lsl #6
  400268:	6a08      	ldr	r0, [r1, #32]
}
  40026a:	4770      	bx	lr

0040026c <sysclk_init>:
	pmc_disable_udpck();
}
#endif // CONFIG_USBCLK_SOURCE

void sysclk_init(void)
{
  40026c:	b510      	push	{r4, lr}
	/* Set flash wait state to max in case the below clock switching. */
	system_init_flash(CHIP_FREQ_CPU_MAX);
  40026e:	480e      	ldr	r0, [pc, #56]	; (4002a8 <sysclk_init+0x3c>)
  400270:	4b0e      	ldr	r3, [pc, #56]	; (4002ac <sysclk_init+0x40>)
  400272:	4798      	blx	r3
		pmc_switch_mainck_to_fastrc(CKGR_MOR_MOSCRCF_12_MHz);
		break;


	case OSC_MAINCK_XTAL:
		pmc_switch_mainck_to_xtal(PMC_OSC_XTAL,
  400274:	2000      	movs	r0, #0
  400276:	213e      	movs	r1, #62	; 0x3e
  400278:	4b0d      	ldr	r3, [pc, #52]	; (4002b0 <sysclk_init+0x44>)
  40027a:	4798      	blx	r3
	case OSC_MAINCK_4M_RC:
	case OSC_MAINCK_8M_RC:
	case OSC_MAINCK_12M_RC:
	case OSC_MAINCK_XTAL:
	case OSC_MAINCK_BYPASS:
		return pmc_osc_is_ready_mainck();
  40027c:	4c0d      	ldr	r4, [pc, #52]	; (4002b4 <sysclk_init+0x48>)
  40027e:	47a0      	blx	r4
 *
 * \param id A number identifying the oscillator to wait for.
 */
static inline void osc_wait_ready(uint8_t id)
{
	while (!osc_is_ready(id)) {
  400280:	2800      	cmp	r0, #0
  400282:	d0fc      	beq.n	40027e <sysclk_init+0x12>
static inline void pll_enable(const struct pll_config *p_cfg, uint32_t ul_pll_id)
{
	Assert(ul_pll_id < NR_PLLS);

	if (ul_pll_id == PLLA_ID) {
		pmc_disable_pllack(); // Always stop PLL first!
  400284:	4b0c      	ldr	r3, [pc, #48]	; (4002b8 <sysclk_init+0x4c>)
  400286:	4798      	blx	r3
		PMC->CKGR_PLLAR = CKGR_PLLAR_ONE | p_cfg->ctrl;
  400288:	4a0c      	ldr	r2, [pc, #48]	; (4002bc <sysclk_init+0x50>)
  40028a:	4b0d      	ldr	r3, [pc, #52]	; (4002c0 <sysclk_init+0x54>)
  40028c:	629a      	str	r2, [r3, #40]	; 0x28
static inline uint32_t pll_is_locked(uint32_t ul_pll_id)
{
	Assert(ul_pll_id < NR_PLLS);

	if (ul_pll_id == PLLA_ID) {
		return pmc_is_locked_pllack();
  40028e:	4c0d      	ldr	r4, [pc, #52]	; (4002c4 <sysclk_init+0x58>)
  400290:	47a0      	blx	r4
 */
static inline int pll_wait_for_lock(unsigned int pll_id)
{
	Assert(pll_id < NR_PLLS);

	while (!pll_is_locked(pll_id)) {
  400292:	2800      	cmp	r0, #0
  400294:	d0fc      	beq.n	400290 <sysclk_init+0x24>

		pll_enable_source(CONFIG_PLL0_SOURCE);
		pll_config_defaults(&pllcfg, 0);
		pll_enable(&pllcfg, 0);
		pll_wait_for_lock(0);
		pmc_switch_mck_to_pllack(CONFIG_SYSCLK_PRES);
  400296:	2010      	movs	r0, #16
  400298:	4b0b      	ldr	r3, [pc, #44]	; (4002c8 <sysclk_init+0x5c>)
  40029a:	4798      	blx	r3
		pmc_switch_mck_to_pllbck(CONFIG_SYSCLK_PRES);
	}
#endif

	/* Update the SystemFrequency variable */
	SystemCoreClockUpdate();
  40029c:	4b0b      	ldr	r3, [pc, #44]	; (4002cc <sysclk_init+0x60>)
  40029e:	4798      	blx	r3

	/* Set a flash wait state depending on the new cpu frequency */
	system_init_flash(sysclk_get_cpu_hz());
  4002a0:	4801      	ldr	r0, [pc, #4]	; (4002a8 <sysclk_init+0x3c>)
  4002a2:	4b02      	ldr	r3, [pc, #8]	; (4002ac <sysclk_init+0x40>)
  4002a4:	4798      	blx	r3
  4002a6:	bd10      	pop	{r4, pc}
  4002a8:	07270e00 	.word	0x07270e00
  4002ac:	00401409 	.word	0x00401409
  4002b0:	00401169 	.word	0x00401169
  4002b4:	004011bd 	.word	0x004011bd
  4002b8:	004011cd 	.word	0x004011cd
  4002bc:	20133f01 	.word	0x20133f01
  4002c0:	400e0400 	.word	0x400e0400
  4002c4:	004011dd 	.word	0x004011dd
  4002c8:	00401101 	.word	0x00401101
  4002cc:	004012f5 	.word	0x004012f5

004002d0 <board_init>:
#include "conf_board.h"
#include "gpio.h"
#include "ioport.h"

void board_init(void)
{
  4002d0:	b538      	push	{r3, r4, r5, lr}
#ifndef CONF_BOARD_KEEP_WATCHDOG_AT_INIT
	/* Disable the watchdog */
	WDT->WDT_MR = WDT_MR_WDDIS;
  4002d2:	f44f 4200 	mov.w	r2, #32768	; 0x8000
  4002d6:	4b24      	ldr	r3, [pc, #144]	; (400368 <board_init+0x98>)
  4002d8:	605a      	str	r2, [r3, #4]
 *
 * \param ul_id Id (number) of the peripheral clock.
 */
static inline void sysclk_enable_peripheral_clock(uint32_t ul_id)
{
	pmc_enable_periph_clk(ul_id);
  4002da:	200b      	movs	r0, #11
  4002dc:	4c23      	ldr	r4, [pc, #140]	; (40036c <board_init+0x9c>)
  4002de:	47a0      	blx	r4
  4002e0:	200c      	movs	r0, #12
  4002e2:	47a0      	blx	r4
  4002e4:	200d      	movs	r0, #13
  4002e6:	47a0      	blx	r4
	 * Here IOPORT must be initialized for others to use before setting up IO.
	 */
	ioport_init();

	/* Configure LED pins */
	gpio_configure_pin(LED0_GPIO, LED0_FLAGS);
  4002e8:	2013      	movs	r0, #19
  4002ea:	f04f 5160 	mov.w	r1, #939524096	; 0x38000000
  4002ee:	4c20      	ldr	r4, [pc, #128]	; (400370 <board_init+0xa0>)
  4002f0:	47a0      	blx	r4
	gpio_configure_pin(LED1_GPIO, LED1_FLAGS);
  4002f2:	2014      	movs	r0, #20
  4002f4:	f04f 5160 	mov.w	r1, #939524096	; 0x38000000
  4002f8:	47a0      	blx	r4

	/* Configure Push Button pins */
	gpio_configure_pin(GPIO_PUSH_BUTTON_1, GPIO_PUSH_BUTTON_1_FLAGS);
  4002fa:	2023      	movs	r0, #35	; 0x23
  4002fc:	491d      	ldr	r1, [pc, #116]	; (400374 <board_init+0xa4>)
  4002fe:	47a0      	blx	r4
	gpio_configure_pin(GPIO_PUSH_BUTTON_2, GPIO_PUSH_BUTTON_2_FLAGS);
  400300:	204c      	movs	r0, #76	; 0x4c
  400302:	491d      	ldr	r1, [pc, #116]	; (400378 <board_init+0xa8>)
  400304:	47a0      	blx	r4

#ifdef CONF_BOARD_UART_CONSOLE
	/* Configure UART pins */
	gpio_configure_group(PINS_UART0_PIO, PINS_UART0, PINS_UART0_FLAGS);
  400306:	481d      	ldr	r0, [pc, #116]	; (40037c <board_init+0xac>)
  400308:	f44f 61c0 	mov.w	r1, #1536	; 0x600
  40030c:	f04f 6200 	mov.w	r2, #134217728	; 0x8000000
  400310:	4b1b      	ldr	r3, [pc, #108]	; (400380 <board_init+0xb0>)
  400312:	4798      	blx	r3
	gpio_set_pin_low(PIN_RE_IDX);
#endif

#if defined(CONF_BOARD_ILI9325) || defined(CONF_BOARD_ILI93XX)
	/* Configure LCD EBI pins */
	gpio_configure_pin(PIN_EBI_DATA_BUS_D0, PIN_EBI_DATA_BUS_FLAGS);
  400314:	4d1b      	ldr	r5, [pc, #108]	; (400384 <board_init+0xb4>)
  400316:	2040      	movs	r0, #64	; 0x40
  400318:	4629      	mov	r1, r5
  40031a:	47a0      	blx	r4
	gpio_configure_pin(PIN_EBI_DATA_BUS_D1, PIN_EBI_DATA_BUS_FLAGS);
  40031c:	2041      	movs	r0, #65	; 0x41
  40031e:	4629      	mov	r1, r5
  400320:	47a0      	blx	r4
	gpio_configure_pin(PIN_EBI_DATA_BUS_D2, PIN_EBI_DATA_BUS_FLAGS);
  400322:	2042      	movs	r0, #66	; 0x42
  400324:	4629      	mov	r1, r5
  400326:	47a0      	blx	r4
	gpio_configure_pin(PIN_EBI_DATA_BUS_D3, PIN_EBI_DATA_BUS_FLAGS);
  400328:	2043      	movs	r0, #67	; 0x43
  40032a:	4629      	mov	r1, r5
  40032c:	47a0      	blx	r4
	gpio_configure_pin(PIN_EBI_DATA_BUS_D4, PIN_EBI_DATA_BUS_FLAGS);
  40032e:	2044      	movs	r0, #68	; 0x44
  400330:	4629      	mov	r1, r5
  400332:	47a0      	blx	r4
	gpio_configure_pin(PIN_EBI_DATA_BUS_D5, PIN_EBI_DATA_BUS_FLAGS);
  400334:	2045      	movs	r0, #69	; 0x45
  400336:	4629      	mov	r1, r5
  400338:	47a0      	blx	r4
	gpio_configure_pin(PIN_EBI_DATA_BUS_D6, PIN_EBI_DATA_BUS_FLAGS);
  40033a:	2046      	movs	r0, #70	; 0x46
  40033c:	4629      	mov	r1, r5
  40033e:	47a0      	blx	r4
	gpio_configure_pin(PIN_EBI_DATA_BUS_D7, PIN_EBI_DATA_BUS_FLAGS);
  400340:	2047      	movs	r0, #71	; 0x47
  400342:	4629      	mov	r1, r5
  400344:	47a0      	blx	r4
	gpio_configure_pin(PIN_EBI_NRD, PIN_EBI_NRD_FLAGS);
  400346:	204b      	movs	r0, #75	; 0x4b
  400348:	4629      	mov	r1, r5
  40034a:	47a0      	blx	r4
	gpio_configure_pin(PIN_EBI_NWE, PIN_EBI_NWE_FLAGS);
  40034c:	2048      	movs	r0, #72	; 0x48
  40034e:	4629      	mov	r1, r5
  400350:	47a0      	blx	r4
	gpio_configure_pin(PIN_EBI_NCS1, PIN_EBI_NCS1_FLAGS);
  400352:	204f      	movs	r0, #79	; 0x4f
  400354:	4629      	mov	r1, r5
  400356:	47a0      	blx	r4
	gpio_configure_pin(PIN_EBI_LCD_RS, PIN_EBI_LCD_RS_FLAGS);
  400358:	2053      	movs	r0, #83	; 0x53
  40035a:	4629      	mov	r1, r5
  40035c:	47a0      	blx	r4
#endif

#ifdef CONF_BOARD_AAT3155
	/* Configure Backlight control pin */
	gpio_configure_pin(BOARD_AAT31XX_SET_GPIO, BOARD_AAT31XX_SET_FLAGS);
  40035e:	204d      	movs	r0, #77	; 0x4d
  400360:	f04f 5140 	mov.w	r1, #805306368	; 0x30000000
  400364:	47a0      	blx	r4
  400366:	bd38      	pop	{r3, r4, r5, pc}
  400368:	400e1450 	.word	0x400e1450
  40036c:	004011ed 	.word	0x004011ed
  400370:	00400e1d 	.word	0x00400e1d
  400374:	28000079 	.word	0x28000079
  400378:	28000059 	.word	0x28000059
  40037c:	400e0e00 	.word	0x400e0e00
  400380:	00400f41 	.word	0x00400f41
  400384:	08000001 	.word	0x08000001

00400388 <aat31xx_set_backlight>:
 * \param ul_level backlight level.
 *
 * \note pin BOARD_AAT31XX_SET_GPIO must be configured before calling aat31xx_set_backlight.
 */
void aat31xx_set_backlight(uint32_t ul_level)
{
  400388:	b470      	push	{r4, r5, r6}
  40038a:	b083      	sub	sp, #12
	volatile uint32_t ul_delay;
	uint32_t i;

#ifdef CONF_BOARD_AAT3155
	ul_level = AAT31XX_MAX_BACKLIGHT_LEVEL - ul_level + 1;
  40038c:	f1c0 0011 	rsb	r0, r0, #17
#ifdef CONF_BOARD_AAT3193
	ul_level = AAT31XX_MAX_BACKLIGHT_LEVEL - ul_level + 1;
#endif

	/* Ensure valid level */
	ul_level = (ul_level > AAT31XX_MAX_BACKLIGHT_LEVEL) ? AAT31XX_MAX_BACKLIGHT_LEVEL : ul_level;
  400390:	2810      	cmp	r0, #16
  400392:	bf28      	it	cs
  400394:	2010      	movcs	r0, #16
	ul_level = (ul_level < AAT31XX_MIN_BACKLIGHT_LEVEL) ? AAT31XX_MIN_BACKLIGHT_LEVEL : ul_level;
  400396:	2800      	cmp	r0, #0
  400398:	bf08      	it	eq
  40039a:	2001      	moveq	r0, #1
 * \param ul_level backlight level.
 *
 * \note pin BOARD_AAT31XX_SET_GPIO must be configured before calling aat31xx_set_backlight.
 */
void aat31xx_set_backlight(uint32_t ul_level)
{
  40039c:	2100      	movs	r1, #0
	Pio *base = arch_ioport_pin_to_base(pin);

	if (level) {
		base->PIO_SODR = arch_ioport_pin_to_mask(pin);
	} else {
		base->PIO_CODR = arch_ioport_pin_to_mask(pin);
  40039e:	4e10      	ldr	r6, [pc, #64]	; (4003e0 <aat31xx_set_backlight+0x58>)
  4003a0:	f44f 5500 	mov.w	r5, #8192	; 0x2000
	ul_level = (ul_level < AAT31XX_MIN_BACKLIGHT_LEVEL) ? AAT31XX_MIN_BACKLIGHT_LEVEL : ul_level;

	/* Set new backlight level */
	for (i = 0; i < ul_level; i++) {
		ioport_set_pin_level(BOARD_AAT31XX_SET_GPIO, IOPORT_PIN_LEVEL_LOW);
		ul_delay = DELAY_PULSE;
  4003a4:	2418      	movs	r4, #24
  4003a6:	6375      	str	r5, [r6, #52]	; 0x34
  4003a8:	9401      	str	r4, [sp, #4]
		while (ul_delay--) {
  4003aa:	9b01      	ldr	r3, [sp, #4]
  4003ac:	1e5a      	subs	r2, r3, #1
  4003ae:	9201      	str	r2, [sp, #4]
  4003b0:	2b00      	cmp	r3, #0
  4003b2:	d1fa      	bne.n	4003aa <aat31xx_set_backlight+0x22>
		bool level)
{
	Pio *base = arch_ioport_pin_to_base(pin);

	if (level) {
		base->PIO_SODR = arch_ioport_pin_to_mask(pin);
  4003b4:	6335      	str	r5, [r6, #48]	; 0x30
		}

		ioport_set_pin_level(BOARD_AAT31XX_SET_GPIO, IOPORT_PIN_LEVEL_HIGH);

		ul_delay = DELAY_PULSE;
  4003b6:	9401      	str	r4, [sp, #4]
		while (ul_delay--) {
  4003b8:	9b01      	ldr	r3, [sp, #4]
  4003ba:	1e5a      	subs	r2, r3, #1
  4003bc:	9201      	str	r2, [sp, #4]
  4003be:	2b00      	cmp	r3, #0
  4003c0:	d1fa      	bne.n	4003b8 <aat31xx_set_backlight+0x30>
	/* Ensure valid level */
	ul_level = (ul_level > AAT31XX_MAX_BACKLIGHT_LEVEL) ? AAT31XX_MAX_BACKLIGHT_LEVEL : ul_level;
	ul_level = (ul_level < AAT31XX_MIN_BACKLIGHT_LEVEL) ? AAT31XX_MIN_BACKLIGHT_LEVEL : ul_level;

	/* Set new backlight level */
	for (i = 0; i < ul_level; i++) {
  4003c2:	3101      	adds	r1, #1
  4003c4:	4281      	cmp	r1, r0
  4003c6:	d3ee      	bcc.n	4003a6 <aat31xx_set_backlight+0x1e>
		ul_delay = DELAY_PULSE;
		while (ul_delay--) {
		}
	}

	ul_delay = DELAY_ENABLE;
  4003c8:	f44f 3300 	mov.w	r3, #131072	; 0x20000
  4003cc:	9301      	str	r3, [sp, #4]
	while (ul_delay--) {
  4003ce:	9b01      	ldr	r3, [sp, #4]
  4003d0:	1e5a      	subs	r2, r3, #1
  4003d2:	9201      	str	r2, [sp, #4]
  4003d4:	2b00      	cmp	r3, #0
  4003d6:	d1fa      	bne.n	4003ce <aat31xx_set_backlight+0x46>
	}
}
  4003d8:	b003      	add	sp, #12
  4003da:	bc70      	pop	{r4, r5, r6}
  4003dc:	4770      	bx	lr
  4003de:	bf00      	nop
  4003e0:	400e1200 	.word	0x400e1200

004003e4 <aat31xx_disable_backlight>:

/**
 * \brief Switch off backlight.
 */
void aat31xx_disable_backlight(void)
{
  4003e4:	b082      	sub	sp, #8
	} else {
		base->PIO_CODR = arch_ioport_pin_to_mask(pin);
  4003e6:	f44f 5200 	mov.w	r2, #8192	; 0x2000
  4003ea:	4b06      	ldr	r3, [pc, #24]	; (400404 <aat31xx_disable_backlight+0x20>)
  4003ec:	635a      	str	r2, [r3, #52]	; 0x34
	volatile uint32_t ul_delay;

	ioport_set_pin_level(BOARD_AAT31XX_SET_GPIO, IOPORT_PIN_LEVEL_LOW);

	ul_delay = DELAY_DISABLE;
  4003ee:	f44f 3300 	mov.w	r3, #131072	; 0x20000
  4003f2:	9301      	str	r3, [sp, #4]
	while (ul_delay--) {
  4003f4:	9b01      	ldr	r3, [sp, #4]
  4003f6:	1e5a      	subs	r2, r3, #1
  4003f8:	9201      	str	r2, [sp, #4]
  4003fa:	2b00      	cmp	r3, #0
  4003fc:	d1fa      	bne.n	4003f4 <aat31xx_disable_backlight+0x10>
	}
}
  4003fe:	b002      	add	sp, #8
  400400:	4770      	bx	lr
  400402:	bf00      	nop
  400404:	400e1200 	.word	0x400e1200

00400408 <ili93xx_write_ram_prepare>:
/**
 * \brief Prepare to write GRAM data for ili93xx.
 */
static void ili93xx_write_ram_prepare(void)
{
	if (g_uc_device_type == DEVICE_TYPE_ILI9325) {
  400408:	4b0a      	ldr	r3, [pc, #40]	; (400434 <ili93xx_write_ram_prepare+0x2c>)
  40040a:	781b      	ldrb	r3, [r3, #0]
  40040c:	2b01      	cmp	r3, #1
  40040e:	d106      	bne.n	40041e <ili93xx_write_ram_prepare+0x16>
/** Define EBI access for ILI93xx 8-bit System Interface.*/
#if defined(BOARD_ILI93XX_ADDR) && defined (BOARD_ILI93XX_RS)
static inline void LCD_IR(uint8_t lcd_index)
{
	/** ILI93XX index register address */
	*((volatile uint8_t *)(BOARD_ILI93XX_ADDR)) = lcd_index;
  400410:	f04f 43c2 	mov.w	r3, #1627389952	; 0x61000000
  400414:	2200      	movs	r2, #0
  400416:	701a      	strb	r2, [r3, #0]
  400418:	2222      	movs	r2, #34	; 0x22
  40041a:	701a      	strb	r2, [r3, #0]
  40041c:	4770      	bx	lr
		/** Write Data to GRAM (R22h) */
		LCD_IR(0);
		LCD_IR(ILI9325_GRAM_DATA_REG);
	} else if (g_uc_device_type == DEVICE_TYPE_ILI9341) {
  40041e:	2b02      	cmp	r3, #2
  400420:	d107      	bne.n	400432 <ili93xx_write_ram_prepare+0x2a>
  400422:	f04f 43c2 	mov.w	r3, #1627389952	; 0x61000000
  400426:	222c      	movs	r2, #44	; 0x2c
  400428:	701a      	strb	r2, [r3, #0]
  40042a:	2200      	movs	r2, #0
  40042c:	701a      	strb	r2, [r3, #0]
  40042e:	223c      	movs	r2, #60	; 0x3c
  400430:	701a      	strb	r2, [r3, #0]
  400432:	4770      	bx	lr
  400434:	20000c60 	.word	0x20000c60

00400438 <ili93xx_write_ram>:
 *
 * \param ul_color 24-bits RGB color.
 */
static void ili93xx_write_ram(ili93xx_color_t ul_color)
{
	LCD_WD((ul_color >> 16) & 0xFF);
  400438:	f3c0 4207 	ubfx	r2, r0, #16, #8
}

static inline void LCD_WD(uint8_t lcd_data)
{
	*((volatile uint8_t *)((BOARD_ILI93XX_ADDR) | (BOARD_ILI93XX_RS))) =
  40043c:	4b03      	ldr	r3, [pc, #12]	; (40044c <ili93xx_write_ram+0x14>)
  40043e:	701a      	strb	r2, [r3, #0]
	LCD_WD((ul_color >> 8) & 0xFF);
  400440:	f3c0 2207 	ubfx	r2, r0, #8, #8
  400444:	701a      	strb	r2, [r3, #0]
	LCD_WD(ul_color & 0xFF);
  400446:	b2c0      	uxtb	r0, r0
  400448:	7018      	strb	r0, [r3, #0]
  40044a:	4770      	bx	lr
  40044c:	61000002 	.word	0x61000002

00400450 <ili93xx_write_ram_buffer>:
 * \param p_ul_buf data buffer.
 * \param ul_size size in pixels.
 */
static void ili93xx_write_ram_buffer(const ili93xx_color_t *p_ul_buf,
		uint32_t ul_size)
{
  400450:	e92d 43f8 	stmdb	sp!, {r3, r4, r5, r6, r7, r8, r9, lr}
  400454:	4607      	mov	r7, r0
  400456:	4688      	mov	r8, r1
	uint32_t ul_addr;
	for (ul_addr = 0; ul_addr < (ul_size - ul_size % 8); ul_addr += 8) {
  400458:	f031 0907 	bics.w	r9, r1, #7
  40045c:	d018      	beq.n	400490 <ili93xx_write_ram_buffer+0x40>
  40045e:	4604      	mov	r4, r0
  400460:	2600      	movs	r6, #0
		ili93xx_write_ram(p_ul_buf[ul_addr]);
  400462:	4d12      	ldr	r5, [pc, #72]	; (4004ac <ili93xx_write_ram_buffer+0x5c>)
  400464:	f857 0026 	ldr.w	r0, [r7, r6, lsl #2]
  400468:	47a8      	blx	r5
		ili93xx_write_ram(p_ul_buf[ul_addr + 1]);
  40046a:	6860      	ldr	r0, [r4, #4]
  40046c:	47a8      	blx	r5
		ili93xx_write_ram(p_ul_buf[ul_addr + 2]);
  40046e:	68a0      	ldr	r0, [r4, #8]
  400470:	47a8      	blx	r5
		ili93xx_write_ram(p_ul_buf[ul_addr + 3]);
  400472:	68e0      	ldr	r0, [r4, #12]
  400474:	47a8      	blx	r5
		ili93xx_write_ram(p_ul_buf[ul_addr + 4]);
  400476:	6920      	ldr	r0, [r4, #16]
  400478:	47a8      	blx	r5
		ili93xx_write_ram(p_ul_buf[ul_addr + 5]);
  40047a:	6960      	ldr	r0, [r4, #20]
  40047c:	47a8      	blx	r5
		ili93xx_write_ram(p_ul_buf[ul_addr + 6]);
  40047e:	69a0      	ldr	r0, [r4, #24]
  400480:	47a8      	blx	r5
		ili93xx_write_ram(p_ul_buf[ul_addr + 7]);
  400482:	69e0      	ldr	r0, [r4, #28]
  400484:	47a8      	blx	r5
 */
static void ili93xx_write_ram_buffer(const ili93xx_color_t *p_ul_buf,
		uint32_t ul_size)
{
	uint32_t ul_addr;
	for (ul_addr = 0; ul_addr < (ul_size - ul_size % 8); ul_addr += 8) {
  400486:	3608      	adds	r6, #8
  400488:	3420      	adds	r4, #32
  40048a:	454e      	cmp	r6, r9
  40048c:	d3ea      	bcc.n	400464 <ili93xx_write_ram_buffer+0x14>
  40048e:	e000      	b.n	400492 <ili93xx_write_ram_buffer+0x42>
  400490:	2600      	movs	r6, #0
		ili93xx_write_ram(p_ul_buf[ul_addr + 4]);
		ili93xx_write_ram(p_ul_buf[ul_addr + 5]);
		ili93xx_write_ram(p_ul_buf[ul_addr + 6]);
		ili93xx_write_ram(p_ul_buf[ul_addr + 7]);
	}
	for (; ul_addr < ul_size; ul_addr++) {
  400492:	45b0      	cmp	r8, r6
  400494:	d908      	bls.n	4004a8 <ili93xx_write_ram_buffer+0x58>
  400496:	eb07 0486 	add.w	r4, r7, r6, lsl #2
		ili93xx_write_ram(p_ul_buf[ul_addr]);
  40049a:	4d04      	ldr	r5, [pc, #16]	; (4004ac <ili93xx_write_ram_buffer+0x5c>)
  40049c:	f854 0b04 	ldr.w	r0, [r4], #4
  4004a0:	47a8      	blx	r5
		ili93xx_write_ram(p_ul_buf[ul_addr + 4]);
		ili93xx_write_ram(p_ul_buf[ul_addr + 5]);
		ili93xx_write_ram(p_ul_buf[ul_addr + 6]);
		ili93xx_write_ram(p_ul_buf[ul_addr + 7]);
	}
	for (; ul_addr < ul_size; ul_addr++) {
  4004a2:	3601      	adds	r6, #1
  4004a4:	45b0      	cmp	r8, r6
  4004a6:	d8f9      	bhi.n	40049c <ili93xx_write_ram_buffer+0x4c>
  4004a8:	e8bd 83f8 	ldmia.w	sp!, {r3, r4, r5, r6, r7, r8, r9, pc}
  4004ac:	00400439 	.word	0x00400439

004004b0 <ili93xx_write_register_word>:
/** Define EBI access for ILI93xx 8-bit System Interface.*/
#if defined(BOARD_ILI93XX_ADDR) && defined (BOARD_ILI93XX_RS)
static inline void LCD_IR(uint8_t lcd_index)
{
	/** ILI93XX index register address */
	*((volatile uint8_t *)(BOARD_ILI93XX_ADDR)) = lcd_index;
  4004b0:	f04f 43c2 	mov.w	r3, #1627389952	; 0x61000000
  4004b4:	2200      	movs	r2, #0
  4004b6:	701a      	strb	r2, [r3, #0]
  4004b8:	7018      	strb	r0, [r3, #0]
 */
static void ili93xx_write_register_word(uint8_t uc_reg, uint16_t us_data)
{
	LCD_IR(0);
	LCD_IR(uc_reg);
	LCD_WD((us_data >> 8) & 0xFF);
  4004ba:	0a0a      	lsrs	r2, r1, #8
}

static inline void LCD_WD(uint8_t lcd_data)
{
	*((volatile uint8_t *)((BOARD_ILI93XX_ADDR) | (BOARD_ILI93XX_RS))) =
  4004bc:	3302      	adds	r3, #2
  4004be:	701a      	strb	r2, [r3, #0]
	LCD_WD(us_data & 0xFF);
  4004c0:	b2c9      	uxtb	r1, r1
  4004c2:	7019      	strb	r1, [r3, #0]
  4004c4:	4770      	bx	lr
  4004c6:	bf00      	nop

004004c8 <ili93xx_write_register>:
 * \param uc_reg register address.
 * \param us_data data to be written.
 */
static void ili93xx_write_register(uint8_t uc_reg, uint8_t *p_data,
		uint8_t uc_datacnt)
{
  4004c8:	b410      	push	{r4}
/** Define EBI access for ILI93xx 8-bit System Interface.*/
#if defined(BOARD_ILI93XX_ADDR) && defined (BOARD_ILI93XX_RS)
static inline void LCD_IR(uint8_t lcd_index)
{
	/** ILI93XX index register address */
	*((volatile uint8_t *)(BOARD_ILI93XX_ADDR)) = lcd_index;
  4004ca:	f04f 43c2 	mov.w	r3, #1627389952	; 0x61000000
  4004ce:	2400      	movs	r4, #0
  4004d0:	701c      	strb	r4, [r3, #0]
  4004d2:	7018      	strb	r0, [r3, #0]
	LCD_IR(0);
	LCD_IR(uc_reg);
	for (uint8_t i = 0; i < uc_datacnt; i++) {
  4004d4:	b14a      	cbz	r2, 4004ea <ili93xx_write_register+0x22>
  4004d6:	1e4b      	subs	r3, r1, #1
  4004d8:	1e50      	subs	r0, r2, #1
  4004da:	fa51 f180 	uxtab	r1, r1, r0
}

static inline void LCD_WD(uint8_t lcd_data)
{
	*((volatile uint8_t *)((BOARD_ILI93XX_ADDR) | (BOARD_ILI93XX_RS))) =
  4004de:	4804      	ldr	r0, [pc, #16]	; (4004f0 <ili93xx_write_register+0x28>)
		LCD_WD(p_data[i]);
  4004e0:	f813 2f01 	ldrb.w	r2, [r3, #1]!
  4004e4:	7002      	strb	r2, [r0, #0]
static void ili93xx_write_register(uint8_t uc_reg, uint8_t *p_data,
		uint8_t uc_datacnt)
{
	LCD_IR(0);
	LCD_IR(uc_reg);
	for (uint8_t i = 0; i < uc_datacnt; i++) {
  4004e6:	428b      	cmp	r3, r1
  4004e8:	d1fa      	bne.n	4004e0 <ili93xx_write_register+0x18>
		LCD_WD(p_data[i]);
	}
}
  4004ea:	f85d 4b04 	ldr.w	r4, [sp], #4
  4004ee:	4770      	bx	lr
  4004f0:	61000002 	.word	0x61000002

004004f4 <ili93xx_delay>:

/**
 * \brief Delay function.
 */
static void ili93xx_delay(uint32_t ul_ms)
{
  4004f4:	b082      	sub	sp, #8
	volatile uint32_t i;

	for (i = 0; i < ul_ms; i++) {
  4004f6:	2300      	movs	r3, #0
  4004f8:	9301      	str	r3, [sp, #4]
  4004fa:	9b01      	ldr	r3, [sp, #4]
  4004fc:	4298      	cmp	r0, r3
  4004fe:	d911      	bls.n	400524 <ili93xx_delay+0x30>
		for (i = 0; i < 100000; i++) {
  400500:	2100      	movs	r1, #0
  400502:	4a09      	ldr	r2, [pc, #36]	; (400528 <ili93xx_delay+0x34>)
  400504:	9101      	str	r1, [sp, #4]
  400506:	9b01      	ldr	r3, [sp, #4]
  400508:	4293      	cmp	r3, r2
  40050a:	d805      	bhi.n	400518 <ili93xx_delay+0x24>
  40050c:	9b01      	ldr	r3, [sp, #4]
  40050e:	3301      	adds	r3, #1
  400510:	9301      	str	r3, [sp, #4]
  400512:	9b01      	ldr	r3, [sp, #4]
  400514:	4293      	cmp	r3, r2
  400516:	d9f9      	bls.n	40050c <ili93xx_delay+0x18>
 */
static void ili93xx_delay(uint32_t ul_ms)
{
	volatile uint32_t i;

	for (i = 0; i < ul_ms; i++) {
  400518:	9b01      	ldr	r3, [sp, #4]
  40051a:	3301      	adds	r3, #1
  40051c:	9301      	str	r3, [sp, #4]
  40051e:	9b01      	ldr	r3, [sp, #4]
  400520:	4283      	cmp	r3, r0
  400522:	d3ef      	bcc.n	400504 <ili93xx_delay+0x10>
		for (i = 0; i < 100000; i++) {
		}
	}
}
  400524:	b002      	add	sp, #8
  400526:	4770      	bx	lr
  400528:	0001869f 	.word	0x0001869f

0040052c <ili93xx_check_box_coordinates>:
 * \param p_ul_x2 X coordinate of lower-right corner on LCD.
 * \param p_ul_y2 Y coordinate of lower-right corner on LCD.
 */
static void ili93xx_check_box_coordinates(uint32_t *p_ul_x1, uint32_t *p_ul_y1,
		uint32_t *p_ul_x2, uint32_t *p_ul_y2)
{
  40052c:	b430      	push	{r4, r5}
	uint32_t dw;

	if (*p_ul_x1 >= g_ul_lcd_x_length) {
  40052e:	4c15      	ldr	r4, [pc, #84]	; (400584 <ili93xx_check_box_coordinates+0x58>)
  400530:	6824      	ldr	r4, [r4, #0]
  400532:	6805      	ldr	r5, [r0, #0]
  400534:	42a5      	cmp	r5, r4
		*p_ul_x1 = g_ul_lcd_x_length - 1;
  400536:	bf24      	itt	cs
  400538:	f104 35ff 	addcs.w	r5, r4, #4294967295
  40053c:	6005      	strcs	r5, [r0, #0]
	}

	if (*p_ul_x2 >= g_ul_lcd_x_length) {
  40053e:	6815      	ldr	r5, [r2, #0]
  400540:	42ac      	cmp	r4, r5
		*p_ul_x2 = g_ul_lcd_x_length - 1;
  400542:	bf9c      	itt	ls
  400544:	f104 34ff 	addls.w	r4, r4, #4294967295
  400548:	6014      	strls	r4, [r2, #0]
	}

	if (*p_ul_y1 >= g_ul_lcd_y_length) {
  40054a:	4c0f      	ldr	r4, [pc, #60]	; (400588 <ili93xx_check_box_coordinates+0x5c>)
  40054c:	6824      	ldr	r4, [r4, #0]
  40054e:	680d      	ldr	r5, [r1, #0]
  400550:	42a5      	cmp	r5, r4
		*p_ul_y1 = g_ul_lcd_y_length - 1;
  400552:	bf24      	itt	cs
  400554:	f104 35ff 	addcs.w	r5, r4, #4294967295
  400558:	600d      	strcs	r5, [r1, #0]
	}

	if (*p_ul_y2 >= g_ul_lcd_y_length) {
  40055a:	681d      	ldr	r5, [r3, #0]
  40055c:	42ac      	cmp	r4, r5
		*p_ul_y2 = g_ul_lcd_y_length - 1;
  40055e:	bf9c      	itt	ls
  400560:	f104 34ff 	addls.w	r4, r4, #4294967295
  400564:	601c      	strls	r4, [r3, #0]
	}

	if (*p_ul_x1 > *p_ul_x2) {
  400566:	6804      	ldr	r4, [r0, #0]
  400568:	6815      	ldr	r5, [r2, #0]
  40056a:	42ac      	cmp	r4, r5
		dw = *p_ul_x1;
		*p_ul_x1 = *p_ul_x2;
  40056c:	bf84      	itt	hi
  40056e:	6005      	strhi	r5, [r0, #0]
		*p_ul_x2 = dw;
  400570:	6014      	strhi	r4, [r2, #0]
	}

	if (*p_ul_y1 > *p_ul_y2) {
  400572:	680a      	ldr	r2, [r1, #0]
  400574:	6818      	ldr	r0, [r3, #0]
  400576:	4282      	cmp	r2, r0
		dw = *p_ul_y1;
		*p_ul_y1 = *p_ul_y2;
  400578:	bf84      	itt	hi
  40057a:	6008      	strhi	r0, [r1, #0]
		*p_ul_y2 = dw;
  40057c:	601a      	strhi	r2, [r3, #0]
	}
}
  40057e:	bc30      	pop	{r4, r5}
  400580:	4770      	bx	lr
  400582:	bf00      	nop
  400584:	20000000 	.word	0x20000000
  400588:	20000004 	.word	0x20000004

0040058c <ili93xx_device_type_identify>:
 *        ILI9341 device ID locates in Read ID4 (RD3h) register.
 *
 * \return 0 if secceed in identifying device; otherwise fails.
 */
uint8_t ili93xx_device_type_identify(void)
{
  40058c:	b082      	sub	sp, #8
/** Define EBI access for ILI93xx 8-bit System Interface.*/
#if defined(BOARD_ILI93XX_ADDR) && defined (BOARD_ILI93XX_RS)
static inline void LCD_IR(uint8_t lcd_index)
{
	/** ILI93XX index register address */
	*((volatile uint8_t *)(BOARD_ILI93XX_ADDR)) = lcd_index;
  40058e:	f04f 43c2 	mov.w	r3, #1627389952	; 0x61000000
  400592:	2200      	movs	r2, #0
  400594:	701a      	strb	r2, [r3, #0]
  400596:	22d3      	movs	r2, #211	; 0xd3
  400598:	701a      	strb	r2, [r3, #0]
																lcd_data;
}

static inline uint8_t LCD_RD(void)
{
	return *((volatile uint8_t *)((BOARD_ILI93XX_ADDR) |(BOARD_ILI93XX_RS)));
  40059a:	3302      	adds	r3, #2
  40059c:	781a      	ldrb	r2, [r3, #0]
{
	LCD_IR(0);
	LCD_IR(uc_reg);

	for (uint8_t i = 0; i < uc_datacnt; i++) {
		p_data[i] = LCD_RD();
  40059e:	f88d 2000 	strb.w	r2, [sp]
  4005a2:	781a      	ldrb	r2, [r3, #0]
  4005a4:	f88d 2001 	strb.w	r2, [sp, #1]
  4005a8:	781a      	ldrb	r2, [r3, #0]
  4005aa:	f88d 2002 	strb.w	r2, [sp, #2]
  4005ae:	781b      	ldrb	r3, [r3, #0]
  4005b0:	b2db      	uxtb	r3, r3
  4005b2:	f88d 3003 	strb.w	r3, [sp, #3]
	uint8_t paratable[6];
	uint16_t chipid;

	/** Read ID4 (RD4h) register to get device code for ILI9341*/
	ili93xx_read_register(ILI9341_CMD_READ_ID4, paratable, 4);
	chipid = ((uint16_t)paratable[2] << 8) + paratable[3];
  4005b6:	b2d2      	uxtb	r2, r2
  4005b8:	eb03 2302 	add.w	r3, r3, r2, lsl #8

	if (chipid == ILI9341_DEVICE_CODE) {
  4005bc:	b29b      	uxth	r3, r3
  4005be:	f249 3241 	movw	r2, #37697	; 0x9341
  4005c2:	4293      	cmp	r3, r2
  4005c4:	d104      	bne.n	4005d0 <ili93xx_device_type_identify+0x44>
		g_uc_device_type = DEVICE_TYPE_ILI9341;
  4005c6:	2202      	movs	r2, #2
  4005c8:	4b0e      	ldr	r3, [pc, #56]	; (400604 <ili93xx_device_type_identify+0x78>)
  4005ca:	701a      	strb	r2, [r3, #0]
		return 0;
  4005cc:	2000      	movs	r0, #0
  4005ce:	e017      	b.n	400600 <ili93xx_device_type_identify+0x74>
/** Define EBI access for ILI93xx 8-bit System Interface.*/
#if defined(BOARD_ILI93XX_ADDR) && defined (BOARD_ILI93XX_RS)
static inline void LCD_IR(uint8_t lcd_index)
{
	/** ILI93XX index register address */
	*((volatile uint8_t *)(BOARD_ILI93XX_ADDR)) = lcd_index;
  4005d0:	f04f 43c2 	mov.w	r3, #1627389952	; 0x61000000
  4005d4:	2200      	movs	r2, #0
  4005d6:	701a      	strb	r2, [r3, #0]
  4005d8:	701a      	strb	r2, [r3, #0]
																lcd_data;
}

static inline uint8_t LCD_RD(void)
{
	return *((volatile uint8_t *)((BOARD_ILI93XX_ADDR) |(BOARD_ILI93XX_RS)));
  4005da:	3302      	adds	r3, #2
  4005dc:	781a      	ldrb	r2, [r3, #0]
{
	LCD_IR(0);
	LCD_IR(uc_reg);

	for (uint8_t i = 0; i < uc_datacnt; i++) {
		p_data[i] = LCD_RD();
  4005de:	f88d 2000 	strb.w	r2, [sp]
  4005e2:	781b      	ldrb	r3, [r3, #0]
		return 0;
	}

	/** Driver Code Read (R00h) for ILI9325*/
	ili93xx_read_register(ILI9325_DEVICE_CODE_REG, paratable, 2);
	chipid = ((uint16_t)paratable[0] << 8) + paratable[1];
  4005e4:	b2d2      	uxtb	r2, r2
  4005e6:	eb03 2302 	add.w	r3, r3, r2, lsl #8
	if (chipid == ILI9325_DEVICE_CODE) {
  4005ea:	b29b      	uxth	r3, r3
  4005ec:	f249 3225 	movw	r2, #37669	; 0x9325
  4005f0:	4293      	cmp	r3, r2
  4005f2:	d104      	bne.n	4005fe <ili93xx_device_type_identify+0x72>
		g_uc_device_type = DEVICE_TYPE_ILI9325;
  4005f4:	2201      	movs	r2, #1
  4005f6:	4b03      	ldr	r3, [pc, #12]	; (400604 <ili93xx_device_type_identify+0x78>)
  4005f8:	701a      	strb	r2, [r3, #0]
		return 0;
  4005fa:	2000      	movs	r0, #0
  4005fc:	e000      	b.n	400600 <ili93xx_device_type_identify+0x74>
	}

	return 1;
  4005fe:	2001      	movs	r0, #1
}
  400600:	b002      	add	sp, #8
  400602:	4770      	bx	lr
  400604:	20000c60 	.word	0x20000c60

00400608 <ili93xx_display_on>:

/**
 * \brief Turn on the LCD.
 */
void ili93xx_display_on(void)
{
  400608:	b508      	push	{r3, lr}
	if (g_uc_device_type == DEVICE_TYPE_ILI9325) {
  40060a:	4b09      	ldr	r3, [pc, #36]	; (400630 <ili93xx_display_on+0x28>)
  40060c:	781b      	ldrb	r3, [r3, #0]
  40060e:	2b01      	cmp	r3, #1
  400610:	d105      	bne.n	40061e <ili93xx_display_on+0x16>
		ili93xx_write_register_word(ILI9325_DISP_CTRL1,
  400612:	2007      	movs	r0, #7
  400614:	f240 1133 	movw	r1, #307	; 0x133
  400618:	4b06      	ldr	r3, [pc, #24]	; (400634 <ili93xx_display_on+0x2c>)
  40061a:	4798      	blx	r3
  40061c:	bd08      	pop	{r3, pc}
				ILI9325_DISP_CTRL1_BASEE |
				ILI9325_DISP_CTRL1_GON |
				ILI9325_DISP_CTRL1_DTE |
				ILI9325_DISP_CTRL1_D(0x03));
	} else if (g_uc_device_type == DEVICE_TYPE_ILI9341) {
  40061e:	2b02      	cmp	r3, #2
  400620:	d104      	bne.n	40062c <ili93xx_display_on+0x24>
		ili93xx_write_register(ILI9341_CMD_DISPLAY_ON, NULL, 0);
  400622:	2029      	movs	r0, #41	; 0x29
  400624:	2100      	movs	r1, #0
  400626:	460a      	mov	r2, r1
  400628:	4b03      	ldr	r3, [pc, #12]	; (400638 <ili93xx_display_on+0x30>)
  40062a:	4798      	blx	r3
  40062c:	bd08      	pop	{r3, pc}
  40062e:	bf00      	nop
  400630:	20000c60 	.word	0x20000c60
  400634:	004004b1 	.word	0x004004b1
  400638:	004004c9 	.word	0x004004c9

0040063c <ili93xx_set_foreground_color>:
 * \brief Set foreground color.
 *
 * \param ul_color foreground color.
 */
void ili93xx_set_foreground_color(ili93xx_color_t ul_color)
{
  40063c:	4a04      	ldr	r2, [pc, #16]	; (400650 <ili93xx_set_foreground_color+0x14>)
  40063e:	1f13      	subs	r3, r2, #4
  400640:	f502 726f 	add.w	r2, r2, #956	; 0x3bc
	uint32_t i;

	/** Fill the cache with selected color */
	for (i = 0; i < LCD_DATA_CACHE_SIZE; ++i) {
		g_ul_pixel_cache[i] = ul_color;
  400644:	f843 0f04 	str.w	r0, [r3, #4]!
void ili93xx_set_foreground_color(ili93xx_color_t ul_color)
{
	uint32_t i;

	/** Fill the cache with selected color */
	for (i = 0; i < LCD_DATA_CACHE_SIZE; ++i) {
  400648:	4293      	cmp	r3, r2
  40064a:	d1fb      	bne.n	400644 <ili93xx_set_foreground_color+0x8>
		g_ul_pixel_cache[i] = ul_color;
	}
}
  40064c:	4770      	bx	lr
  40064e:	bf00      	nop
  400650:	200008a0 	.word	0x200008a0

00400654 <ili93xx_set_window>:
 * \param ul_width The width of the window.
 * \param ul_height The height of the window.
 */
void ili93xx_set_window(uint32_t ul_x, uint32_t ul_y, uint32_t ul_width,
		uint32_t ul_height)
{
  400654:	e92d 41f0 	stmdb	sp!, {r4, r5, r6, r7, r8, lr}
  400658:	b082      	sub	sp, #8
  40065a:	460c      	mov	r4, r1
  40065c:	4617      	mov	r7, r2
  40065e:	461e      	mov	r6, r3
	Assert(ul_x <= (g_ul_lcd_x_length - 1));
	Assert(ul_y <= (g_ul_lcd_y_length - 1));
	Assert(ul_width <= (g_ul_lcd_x_length - ul_x));
	Assert(ul_height <= (g_ul_lcd_y_length - ul_y));
	if (g_uc_device_type == DEVICE_TYPE_ILI9325) {
  400660:	4b22      	ldr	r3, [pc, #136]	; (4006ec <ili93xx_set_window+0x98>)
  400662:	781b      	ldrb	r3, [r3, #0]
  400664:	2b01      	cmp	r3, #1
  400666:	d114      	bne.n	400692 <ili93xx_set_window+0x3e>
		/** Set Horizontal Address Start Position */
		ili93xx_write_register_word(ILI9325_HORIZONTAL_ADDR_START,
  400668:	b285      	uxth	r5, r0
  40066a:	2050      	movs	r0, #80	; 0x50
  40066c:	4629      	mov	r1, r5
  40066e:	f8df 8084 	ldr.w	r8, [pc, #132]	; 4006f4 <ili93xx_set_window+0xa0>
  400672:	47c0      	blx	r8
  400674:	1e79      	subs	r1, r7, #1
				(uint16_t)ul_x);

		/** Set Horizontal Address End Position */
		ili93xx_write_register_word(ILI9325_HORIZONTAL_ADDR_END,
  400676:	4429      	add	r1, r5
  400678:	2051      	movs	r0, #81	; 0x51
  40067a:	b289      	uxth	r1, r1
  40067c:	47c0      	blx	r8
				(uint16_t)(ul_x + ul_width - 1));

		/** Set Vertical Address Start Position */
		ili93xx_write_register_word(ILI9325_VERTICAL_ADDR_START,
  40067e:	b2a4      	uxth	r4, r4
  400680:	2052      	movs	r0, #82	; 0x52
  400682:	4621      	mov	r1, r4
  400684:	47c0      	blx	r8
  400686:	1e71      	subs	r1, r6, #1
				(uint16_t)ul_y);

		/** Set Vertical Address End Position */
		ili93xx_write_register_word(ILI9325_VERTICAL_ADDR_END,
  400688:	4421      	add	r1, r4
  40068a:	2053      	movs	r0, #83	; 0x53
  40068c:	b289      	uxth	r1, r1
  40068e:	47c0      	blx	r8
  400690:	e028      	b.n	4006e4 <ili93xx_set_window+0x90>
				(uint16_t)(ul_y + ul_height - 1));
	} else if (g_uc_device_type == DEVICE_TYPE_ILI9341) {
  400692:	2b02      	cmp	r3, #2
  400694:	d126      	bne.n	4006e4 <ili93xx_set_window+0x90>
		uint8_t paratable[4];

		/** Set Column Address Position */
		paratable[0] = (ul_x >> 8) & 0xFF;
  400696:	0a03      	lsrs	r3, r0, #8
  400698:	f88d 3004 	strb.w	r3, [sp, #4]
		paratable[1] = ul_x & 0xFF;
  40069c:	b2c3      	uxtb	r3, r0
  40069e:	f88d 3005 	strb.w	r3, [sp, #5]
  4006a2:	3a01      	subs	r2, #1
		paratable[2] = ((ul_x + ul_width - 1) >> 8) & 0xFF;
  4006a4:	4410      	add	r0, r2
  4006a6:	0a00      	lsrs	r0, r0, #8
  4006a8:	f88d 0006 	strb.w	r0, [sp, #6]
  4006ac:	4617      	mov	r7, r2
		paratable[3] = (ul_x + ul_width - 1) & 0xFF;
  4006ae:	441f      	add	r7, r3
  4006b0:	f88d 7007 	strb.w	r7, [sp, #7]
		ili93xx_write_register(ILI9341_CMD_COLUMN_ADDRESS_SET,
  4006b4:	202a      	movs	r0, #42	; 0x2a
  4006b6:	a901      	add	r1, sp, #4
  4006b8:	2204      	movs	r2, #4
  4006ba:	4d0d      	ldr	r5, [pc, #52]	; (4006f0 <ili93xx_set_window+0x9c>)
  4006bc:	47a8      	blx	r5
				paratable, 4);

		/** Set Page Address Position */
		paratable[0] = (ul_y >> 8) & 0xFF;
  4006be:	0a23      	lsrs	r3, r4, #8
  4006c0:	f88d 3004 	strb.w	r3, [sp, #4]
		paratable[1] = ul_y & 0xFF;
  4006c4:	b2e3      	uxtb	r3, r4
  4006c6:	f88d 3005 	strb.w	r3, [sp, #5]
  4006ca:	1e72      	subs	r2, r6, #1
		paratable[2] = ((ul_y + ul_height - 1) >> 8) & 0xFF;
  4006cc:	4414      	add	r4, r2
  4006ce:	0a24      	lsrs	r4, r4, #8
  4006d0:	f88d 4006 	strb.w	r4, [sp, #6]
  4006d4:	4616      	mov	r6, r2
		paratable[3] = (ul_y + ul_height - 1) & 0xFF;
  4006d6:	441e      	add	r6, r3
  4006d8:	f88d 6007 	strb.w	r6, [sp, #7]
		ili93xx_write_register(ILI9341_CMD_PAGE_ADDRESS_SET,
  4006dc:	202b      	movs	r0, #43	; 0x2b
  4006de:	a901      	add	r1, sp, #4
  4006e0:	2204      	movs	r2, #4
  4006e2:	47a8      	blx	r5
				       paratable, 4);
	}
}
  4006e4:	b002      	add	sp, #8
  4006e6:	e8bd 81f0 	ldmia.w	sp!, {r4, r5, r6, r7, r8, pc}
  4006ea:	bf00      	nop
  4006ec:	20000c60 	.word	0x20000c60
  4006f0:	004004c9 	.word	0x004004c9
  4006f4:	004004b1 	.word	0x004004b1

004006f8 <ili93xx_set_cursor_position>:
 *
 * \param us_x X coordinate of upper-left corner on LCD.
 * \param us_y Y coordinate of upper-left corner on LCD.
 */
void ili93xx_set_cursor_position(uint16_t us_x, uint16_t us_y)
{
  4006f8:	b538      	push	{r3, r4, r5, lr}
	if (g_uc_device_type == DEVICE_TYPE_ILI9325) {
  4006fa:	4b06      	ldr	r3, [pc, #24]	; (400714 <ili93xx_set_cursor_position+0x1c>)
  4006fc:	781b      	ldrb	r3, [r3, #0]
  4006fe:	2b01      	cmp	r3, #1
  400700:	d107      	bne.n	400712 <ili93xx_set_cursor_position+0x1a>
  400702:	460c      	mov	r4, r1
  400704:	4601      	mov	r1, r0
		/** GRAM Horizontal/Vertical Address Set (R20h, R21h) */
		ili93xx_write_register_word(ILI9325_HORIZONTAL_GRAM_ADDR_SET, us_x);
  400706:	2020      	movs	r0, #32
  400708:	4d03      	ldr	r5, [pc, #12]	; (400718 <ili93xx_set_cursor_position+0x20>)
  40070a:	47a8      	blx	r5
		ili93xx_write_register_word(ILI9325_VERTICAL_GRAM_ADDR_SET, us_y);
  40070c:	2021      	movs	r0, #33	; 0x21
  40070e:	4621      	mov	r1, r4
  400710:	47a8      	blx	r5
  400712:	bd38      	pop	{r3, r4, r5, pc}
  400714:	20000c60 	.word	0x20000c60
  400718:	004004b1 	.word	0x004004b1

0040071c <ili93xx_init>:
 * \param p_opt pointer to ILI93xx option structure.
 *
 * \return 0 if initialization succeeds, otherwise fails.
 */
uint32_t ili93xx_init(struct ili93xx_opt_t *p_opt)
{
  40071c:	e92d 43f0 	stmdb	sp!, {r4, r5, r6, r7, r8, r9, lr}
  400720:	b083      	sub	sp, #12
  400722:	4606      	mov	r6, r0
	uint8_t paratable[6];

	/** Identify the LCD driver device*/
	if (ili93xx_device_type_identify() != 0) {
  400724:	4bac      	ldr	r3, [pc, #688]	; (4009d8 <ili93xx_init+0x2bc>)
  400726:	4798      	blx	r3
  400728:	2800      	cmp	r0, #0
  40072a:	f040 814f 	bne.w	4009cc <ili93xx_init+0x2b0>
		return 1;
	}

	g_ul_lcd_x_length = ILI93XX_LCD_WIDTH;
  40072e:	22f0      	movs	r2, #240	; 0xf0
  400730:	4baa      	ldr	r3, [pc, #680]	; (4009dc <ili93xx_init+0x2c0>)
  400732:	601a      	str	r2, [r3, #0]
	g_ul_lcd_y_length = ILI93XX_LCD_HEIGHT;
  400734:	f44f 72a0 	mov.w	r2, #320	; 0x140
  400738:	4ba9      	ldr	r3, [pc, #676]	; (4009e0 <ili93xx_init+0x2c4>)
  40073a:	601a      	str	r2, [r3, #0]

	if (g_uc_device_type == DEVICE_TYPE_ILI9325) {
  40073c:	4ba9      	ldr	r3, [pc, #676]	; (4009e4 <ili93xx_init+0x2c8>)
  40073e:	781b      	ldrb	r3, [r3, #0]
  400740:	2b01      	cmp	r3, #1
  400742:	f040 80b1 	bne.w	4008a8 <ili93xx_init+0x18c>
		/** Turn off LCD */
		ili93xx_write_register_word(ILI9325_DISP_CTRL1, ILI9325_DISP_CTRL1_GON |
  400746:	2007      	movs	r0, #7
  400748:	2133      	movs	r1, #51	; 0x33
  40074a:	4ca7      	ldr	r4, [pc, #668]	; (4009e8 <ili93xx_init+0x2cc>)
  40074c:	47a0      	blx	r4
				ILI9325_DISP_CTRL1_DTE | ILI9325_DISP_CTRL1_D(0x03));

		/** Start initial sequence */
		/** Disable sleep and standby mode*/
		ili93xx_write_register_word(ILI9325_POWER_CTRL1, 0x0000);
  40074e:	2010      	movs	r0, #16
  400750:	2100      	movs	r1, #0
  400752:	47a0      	blx	r4
		/** Start internal OSC */
		ili93xx_write_register_word(ILI9325_START_OSC_CTRL,
  400754:	2000      	movs	r0, #0
  400756:	2101      	movs	r1, #1
  400758:	47a0      	blx	r4
				ILI9325_START_OSC_CTRL_EN);
		/** Set SS bit and direction output from S720 to S1 */
		ili93xx_write_register_word(ILI9325_DRIVER_OUTPUT_CTRL1,
  40075a:	2001      	movs	r0, #1
  40075c:	f44f 7180 	mov.w	r1, #256	; 0x100
  400760:	47a0      	blx	r4
				ILI9325_DRIVER_OUTPUT_CTRL1_SS);
		/** Set 1 line inversion */
		ili93xx_write_register_word(ILI9325_LCD_DRIVING_CTRL,
  400762:	2002      	movs	r0, #2
  400764:	f44f 61e0 	mov.w	r1, #1792	; 0x700
  400768:	47a0      	blx	r4
				ILI9325_LCD_DRIVING_CTRL_BIT10 | ILI9325_LCD_DRIVING_CTRL_EOR
				| ILI9325_LCD_DRIVING_CTRL_BC0);
		/** Disable resizing feature */
		ili93xx_write_register_word(ILI9325_RESIZE_CTRL, 0x0000);
  40076a:	2004      	movs	r0, #4
  40076c:	2100      	movs	r1, #0
  40076e:	47a0      	blx	r4
		/** Set the back porch and front porch */
		ili93xx_write_register_word(ILI9325_DISP_CTRL2,
  400770:	2008      	movs	r0, #8
  400772:	f240 2107 	movw	r1, #519	; 0x207
  400776:	47a0      	blx	r4
				ILI9325_DISP_CTRL2_BP(
				0x07) | ILI9325_DISP_CTRL2_FP(0x02));
		/** Set non-display area refresh cycle ISC[3:0] */
		ili93xx_write_register_word(ILI9325_DISP_CTRL3, 0x0000);
  400778:	2009      	movs	r0, #9
  40077a:	2100      	movs	r1, #0
  40077c:	47a0      	blx	r4
		/** Disable FMARK function */
		ili93xx_write_register_word(ILI9325_DISP_CTRL4, 0x0000);
  40077e:	200a      	movs	r0, #10
  400780:	2100      	movs	r1, #0
  400782:	47a0      	blx	r4
		/** 18-bit RGB interface and writing display data by system
		 *interface */
		ili93xx_write_register_word(ILI9325_RGB_DISP_INTERFACE_CTRL1,
  400784:	200c      	movs	r0, #12
  400786:	2100      	movs	r1, #0
  400788:	47a0      	blx	r4
				0x0000);
		/** Set the output position of frame cycle */
		ili93xx_write_register_word(ILI9325_FRAME_MAKER_POS, 0x0000);
  40078a:	200d      	movs	r0, #13
  40078c:	2100      	movs	r1, #0
  40078e:	47a0      	blx	r4
		/** RGB interface polarity */
		ili93xx_write_register_word(ILI9325_RGB_DISP_INTERFACE_CTRL2,
  400790:	200f      	movs	r0, #15
  400792:	2100      	movs	r1, #0
  400794:	47a0      	blx	r4
				0x0000);

		/** Power on sequence */
		/** Disable sleep and standby mode */
		ili93xx_write_register_word(ILI9325_POWER_CTRL1, 0x0000);
  400796:	2010      	movs	r0, #16
  400798:	2100      	movs	r1, #0
  40079a:	47a0      	blx	r4

		/**
		 * Selects the operating frequency of the step-up circuit 1,2
		 * and Sets the ratio factor of Vci.
		 */
		ili93xx_write_register_word(ILI9325_POWER_CTRL2, 0x0000);
  40079c:	2011      	movs	r0, #17
  40079e:	2100      	movs	r1, #0
  4007a0:	47a0      	blx	r4
		/** Set VREG1OUT voltage */
		ili93xx_write_register_word(ILI9325_POWER_CTRL3, 0x0000);
  4007a2:	2012      	movs	r0, #18
  4007a4:	2100      	movs	r1, #0
  4007a6:	47a0      	blx	r4
		/** Set VCOM amplitude */
		ili93xx_write_register_word(ILI9325_POWER_CTRL4, 0x0000);
  4007a8:	2013      	movs	r0, #19
  4007aa:	2100      	movs	r1, #0
  4007ac:	47a0      	blx	r4
		ili93xx_delay(200);
  4007ae:	20c8      	movs	r0, #200	; 0xc8
  4007b0:	4d8e      	ldr	r5, [pc, #568]	; (4009ec <ili93xx_init+0x2d0>)
  4007b2:	47a8      	blx	r5

		/**
		 * Adjusts the constant current and Sets the factor used
		 * in the step-up circuits.
		 */
		ili93xx_write_register_word(ILI9325_POWER_CTRL1,
  4007b4:	2010      	movs	r0, #16
  4007b6:	f241 2190 	movw	r1, #4752	; 0x1290
  4007ba:	47a0      	blx	r4

		/**
		 * Select the operating frequency of the step-up circuit 1,2 and
		 * Sets the ratio factor of Vci
		 */
		ili93xx_write_register_word(ILI9325_POWER_CTRL2,
  4007bc:	2011      	movs	r0, #17
  4007be:	f240 2127 	movw	r1, #551	; 0x227
  4007c2:	47a0      	blx	r4
				ILI9325_POWER_CTRL2_DC1(0x02) |
				ILI9325_POWER_CTRL2_DC0(0x02) | ILI9325_POWER_CTRL2_VC(0x07));
		ili93xx_delay(50);
  4007c4:	2032      	movs	r0, #50	; 0x32
  4007c6:	47a8      	blx	r5
		/** Internal reference voltage= Vci */
		ili93xx_write_register_word(ILI9325_POWER_CTRL3,
  4007c8:	2012      	movs	r0, #18
  4007ca:	211b      	movs	r1, #27
  4007cc:	47a0      	blx	r4
				ILI9325_POWER_CTRL3_PON | ILI9325_POWER_CTRL3_VRH(0x0B));
		ili93xx_delay(50);
  4007ce:	2032      	movs	r0, #50	; 0x32
  4007d0:	47a8      	blx	r5
		/** Set VDV[4:0] for VCOM amplitude */
		ili93xx_write_register_word(ILI9325_POWER_CTRL4,
  4007d2:	2013      	movs	r0, #19
  4007d4:	f44f 5188 	mov.w	r1, #4352	; 0x1100
  4007d8:	47a0      	blx	r4
				ILI9325_POWER_CTRL4_VDV(0x11));
		/** Set VCM[5:0] for VCOMH */
		ili93xx_write_register_word(ILI9325_POWER_CTRL7,
  4007da:	2029      	movs	r0, #41	; 0x29
  4007dc:	2119      	movs	r1, #25
  4007de:	47a0      	blx	r4
				ILI9325_POWER_CTRL7_VCM(0x19));
		/** Set Frame Rate */
		ili93xx_write_register_word(ILI9325_FRAME_RATE_AND_COLOR_CTRL,
  4007e0:	202b      	movs	r0, #43	; 0x2b
  4007e2:	210d      	movs	r1, #13
  4007e4:	47a0      	blx	r4
				ILI9325_FRAME_RATE_AND_COLOR_CTRL_FRS(0x0D));
		ili93xx_delay(50);
  4007e6:	2032      	movs	r0, #50	; 0x32
  4007e8:	47a8      	blx	r5

		/** Adjust the Gamma Curve */
		ili93xx_write_register_word(ILI9325_GAMMA_CTL1, 0x0000);
  4007ea:	2030      	movs	r0, #48	; 0x30
  4007ec:	2100      	movs	r1, #0
  4007ee:	47a0      	blx	r4
		ili93xx_write_register_word(ILI9325_GAMMA_CTL2,
  4007f0:	2031      	movs	r0, #49	; 0x31
  4007f2:	f44f 7101 	mov.w	r1, #516	; 0x204
  4007f6:	47a0      	blx	r4
				ILI9325_GAMMA_CTL2_KP3(0x02) |
				ILI9325_GAMMA_CTL2_KP2(0x04));
		ili93xx_write_register_word(ILI9325_GAMMA_CTL3,
  4007f8:	2032      	movs	r0, #50	; 0x32
  4007fa:	f44f 7100 	mov.w	r1, #512	; 0x200
  4007fe:	47a0      	blx	r4
				ILI9325_GAMMA_CTL3_KP5(0x02) |
				ILI9325_GAMMA_CTL3_KP4(0x00));
		ili93xx_write_register_word(ILI9325_GAMMA_CTL4,
  400800:	2035      	movs	r0, #53	; 0x35
  400802:	2107      	movs	r1, #7
  400804:	47a0      	blx	r4
				ILI9325_GAMMA_CTL4_RP1(0x00) |
				ILI9325_GAMMA_CTL4_RP0(0x07));
		ili93xx_write_register_word(ILI9325_GAMMA_CTL5,
  400806:	2036      	movs	r0, #54	; 0x36
  400808:	f241 4104 	movw	r1, #5124	; 0x1404
  40080c:	47a0      	blx	r4
				ILI9325_GAMMA_CTL5_VRP1(0x14) |
				ILI9325_GAMMA_CTL5_VRP0(0x04));
		ili93xx_write_register_word(ILI9325_GAMMA_CTL6,
  40080e:	2037      	movs	r0, #55	; 0x37
  400810:	f240 7105 	movw	r1, #1797	; 0x705
  400814:	47a0      	blx	r4
				ILI9325_GAMMA_CTL6_KN1(0x07) |
				ILI9325_GAMMA_CTL6_KN0(0x05));
		ili93xx_write_register_word(ILI9325_GAMMA_CTL7,
  400816:	2038      	movs	r0, #56	; 0x38
  400818:	f240 3105 	movw	r1, #773	; 0x305
  40081c:	47a0      	blx	r4
				ILI9325_GAMMA_CTL7_KN3(0x03) |
				ILI9325_GAMMA_CTL7_KN2(0x05));
		ili93xx_write_register_word(ILI9325_GAMMA_CTL8,
  40081e:	2039      	movs	r0, #57	; 0x39
  400820:	f240 7107 	movw	r1, #1799	; 0x707
  400824:	47a0      	blx	r4
				ILI9325_GAMMA_CTL8_KN5(0x07) |
				ILI9325_GAMMA_CTL8_KN4(0x07));
		ili93xx_write_register_word(ILI9325_GAMMA_CTL9,
  400826:	203c      	movs	r0, #60	; 0x3c
  400828:	f240 7101 	movw	r1, #1793	; 0x701
  40082c:	47a0      	blx	r4
				ILI9325_GAMMA_CTL9_RN1(0x07) |
				ILI9325_GAMMA_CTL9_RN0(0x01));
		ili93xx_write_register_word(ILI9325_GAMMA_CTL10,
  40082e:	203d      	movs	r0, #61	; 0x3d
  400830:	210e      	movs	r1, #14
  400832:	47a0      	blx	r4
		 * DFM Set the mode of transferring data to the internal RAM
		 * when TRI = 1.
		 * I/D[1:0] = 11 Horizontal : increment Vertical : increment,
		 * AM=0:Horizontal
		 */
		ili93xx_write_register_word(ILI9325_ENTRY_MODE,
  400834:	2003      	movs	r0, #3
  400836:	f24d 0110 	movw	r1, #53264	; 0xd010
  40083a:	47a0      	blx	r4
				ILI9325_ENTRY_MODE_ID(0x01) | ILI9325_ENTRY_MODE_BGR);
		/**
		 * Sets the number of lines to drive the LCD at an interval of 8
		 * lines. The scan direction is from G320 to G1
		 */
		ili93xx_write_register_word(ILI9325_DRIVER_OUTPUT_CTRL2,
  40083c:	2060      	movs	r0, #96	; 0x60
  40083e:	f44f 4127 	mov.w	r1, #42752	; 0xa700
  400842:	47a0      	blx	r4
				ILI9325_DRIVER_OUTPUT_CTRL2_GS |
				ILI9325_DRIVER_OUTPUT_CTRL2_NL(0x27));

		/** Vertical Scrolling */
		/** Disable scrolling and enable the grayscale inversion */
		ili93xx_write_register_word(ILI9325_BASE_IMG_DISP_CTRL,
  400844:	2061      	movs	r0, #97	; 0x61
  400846:	2101      	movs	r1, #1
  400848:	47a0      	blx	r4
				ILI9325_BASE_IMG_DISP_CTRL_REV);
		ili93xx_write_register_word(ILI9325_VERTICAL_SCROLL_CTRL,
  40084a:	206a      	movs	r0, #106	; 0x6a
  40084c:	2100      	movs	r1, #0
  40084e:	47a0      	blx	r4
				0x0000);

		/** Disable Partial Display */
		ili93xx_write_register_word(ILI9325_PARTIAL_IMG1_DISP_POS,
  400850:	2080      	movs	r0, #128	; 0x80
  400852:	2100      	movs	r1, #0
  400854:	47a0      	blx	r4
				0x0000);
		ili93xx_write_register_word(
  400856:	2081      	movs	r0, #129	; 0x81
  400858:	2100      	movs	r1, #0
  40085a:	47a0      	blx	r4
				ILI9325_PARTIAL_IMG1_AREA_START_LINE,
				0x0000);
		ili93xx_write_register_word(ILI9325_PARTIAL_IMG1_AREA_END_LINE,
  40085c:	2082      	movs	r0, #130	; 0x82
  40085e:	2100      	movs	r1, #0
  400860:	47a0      	blx	r4
				0x0000);
		ili93xx_write_register_word(ILI9325_PARTIAL_IMG2_DISP_POS,
  400862:	2083      	movs	r0, #131	; 0x83
  400864:	2100      	movs	r1, #0
  400866:	47a0      	blx	r4
				0x0000);
		ili93xx_write_register_word(
  400868:	2084      	movs	r0, #132	; 0x84
  40086a:	2100      	movs	r1, #0
  40086c:	47a0      	blx	r4
				ILI9325_PARTIAL_IMG2_AREA_START_LINE,
				0x0000);
		ili93xx_write_register_word(ILI9325_PARTIAL_IMG2_AREA_END_LINE,
  40086e:	2085      	movs	r0, #133	; 0x85
  400870:	2100      	movs	r1, #0
  400872:	47a0      	blx	r4
				0x0000);

		/** Panel Control */
		ili93xx_write_register_word(ILI9325_PANEL_INTERFACE_CTRL1,
  400874:	2090      	movs	r0, #144	; 0x90
  400876:	2110      	movs	r1, #16
  400878:	47a0      	blx	r4
				ILI9325_PANEL_INTERFACE_CTRL1_RTNI(0x10));
		ili93xx_write_register_word(ILI9325_PANEL_INTERFACE_CTRL2,
  40087a:	2092      	movs	r0, #146	; 0x92
  40087c:	f44f 61c0 	mov.w	r1, #1536	; 0x600
  400880:	47a0      	blx	r4
				ILI9325_PANEL_INTERFACE_CTRL2_NOWI(0x06));
		ili93xx_write_register_word(ILI9325_PANEL_INTERFACE_CTRL4,
  400882:	2095      	movs	r0, #149	; 0x95
  400884:	f44f 7188 	mov.w	r1, #272	; 0x110
  400888:	47a0      	blx	r4
				ILI9325_PANEL_INTERFACE_CTRL4_DIVE(0x01) |
				ILI9325_PANEL_INTERFACE_CTRL4_RTNE(0x10));

		ili93xx_set_window(0, 0, p_opt->ul_width, p_opt->ul_height);
  40088a:	2000      	movs	r0, #0
  40088c:	4601      	mov	r1, r0
  40088e:	6832      	ldr	r2, [r6, #0]
  400890:	6873      	ldr	r3, [r6, #4]
  400892:	4c57      	ldr	r4, [pc, #348]	; (4009f0 <ili93xx_init+0x2d4>)
  400894:	47a0      	blx	r4
		ili93xx_set_foreground_color(p_opt->foreground_color);
  400896:	68b0      	ldr	r0, [r6, #8]
  400898:	4b56      	ldr	r3, [pc, #344]	; (4009f4 <ili93xx_init+0x2d8>)
  40089a:	4798      	blx	r3
		ili93xx_set_cursor_position(0, 0);
  40089c:	2000      	movs	r0, #0
  40089e:	4601      	mov	r1, r0
  4008a0:	4b55      	ldr	r3, [pc, #340]	; (4009f8 <ili93xx_init+0x2dc>)
  4008a2:	4798      	blx	r3
	} else {
		/** exit with return value 1 if device type is not supported.*/
		return 1;
	}

	return 0;
  4008a4:	2000      	movs	r0, #0
  4008a6:	e094      	b.n	4009d2 <ili93xx_init+0x2b6>
				ILI9325_PANEL_INTERFACE_CTRL4_RTNE(0x10));

		ili93xx_set_window(0, 0, p_opt->ul_width, p_opt->ul_height);
		ili93xx_set_foreground_color(p_opt->foreground_color);
		ili93xx_set_cursor_position(0, 0);
	} else if (g_uc_device_type == DEVICE_TYPE_ILI9341) {
  4008a8:	2b02      	cmp	r3, #2
  4008aa:	f040 8091 	bne.w	4009d0 <ili93xx_init+0x2b4>
		/** init for ILI9341 **/
		/** power control A configuration*/
		paratable[0] = 0x39;
  4008ae:	2339      	movs	r3, #57	; 0x39
  4008b0:	f88d 3000 	strb.w	r3, [sp]
		paratable[1] = 0x2C;
  4008b4:	232c      	movs	r3, #44	; 0x2c
  4008b6:	f88d 3001 	strb.w	r3, [sp, #1]
		paratable[2] = 0x00;
  4008ba:	2400      	movs	r4, #0
  4008bc:	f88d 4002 	strb.w	r4, [sp, #2]
		paratable[3] = 0x34;
  4008c0:	2334      	movs	r3, #52	; 0x34
  4008c2:	f88d 3003 	strb.w	r3, [sp, #3]
		paratable[4] = 0x02;
  4008c6:	2702      	movs	r7, #2
  4008c8:	f88d 7004 	strb.w	r7, [sp, #4]
		ili93xx_write_register(ILI9341_CMD_POWER_CONTROL_A, paratable, 5);
  4008cc:	20cb      	movs	r0, #203	; 0xcb
  4008ce:	4669      	mov	r1, sp
  4008d0:	2205      	movs	r2, #5
  4008d2:	4d4a      	ldr	r5, [pc, #296]	; (4009fc <ili93xx_init+0x2e0>)
  4008d4:	47a8      	blx	r5

		/** power control B configuration */
		paratable[0] = 0;
  4008d6:	f88d 4000 	strb.w	r4, [sp]
		paratable[1] = 0xAA;
  4008da:	23aa      	movs	r3, #170	; 0xaa
  4008dc:	f88d 3001 	strb.w	r3, [sp, #1]
		paratable[2] = 0xB0;
  4008e0:	23b0      	movs	r3, #176	; 0xb0
  4008e2:	f88d 3002 	strb.w	r3, [sp, #2]
		ili93xx_write_register(ILI9341_CMD_POWER_CONTROL_B, paratable, 3);
  4008e6:	20cf      	movs	r0, #207	; 0xcf
  4008e8:	4669      	mov	r1, sp
  4008ea:	2203      	movs	r2, #3
  4008ec:	47a8      	blx	r5

		/** Pump Ratio Control configuration */
		paratable[0] = 0x30;
  4008ee:	2330      	movs	r3, #48	; 0x30
  4008f0:	f88d 3000 	strb.w	r3, [sp]
		ili93xx_write_register(ILI9341_CMD_PUMP_RATIO_CONTROL,
  4008f4:	20f7      	movs	r0, #247	; 0xf7
  4008f6:	4669      	mov	r1, sp
  4008f8:	2201      	movs	r2, #1
  4008fa:	47a8      	blx	r5
				paratable, 1);

		/** Power Control 1 configuration*/
		paratable[0] = 0x25;
  4008fc:	2325      	movs	r3, #37	; 0x25
  4008fe:	f88d 3000 	strb.w	r3, [sp]
		ili93xx_write_register(ILI9341_CMD_POWER_CONTROL_1, paratable, 1);
  400902:	20c0      	movs	r0, #192	; 0xc0
  400904:	4669      	mov	r1, sp
  400906:	2201      	movs	r2, #1
  400908:	47a8      	blx	r5

		/** Power Control 2 configuration*/
		paratable[0] = 0x11;
  40090a:	f04f 0911 	mov.w	r9, #17
  40090e:	f88d 9000 	strb.w	r9, [sp]
		ili93xx_write_register(ILI9341_CMD_POWER_CONTROL_2, paratable, 1);
  400912:	20c1      	movs	r0, #193	; 0xc1
  400914:	4669      	mov	r1, sp
  400916:	2201      	movs	r2, #1
  400918:	47a8      	blx	r5

		/** VOM Control 1 configuration*/
		paratable[0] = 0x5C;
  40091a:	235c      	movs	r3, #92	; 0x5c
  40091c:	f88d 3000 	strb.w	r3, [sp]
		paratable[1] = 0x4C;
  400920:	234c      	movs	r3, #76	; 0x4c
  400922:	f88d 3001 	strb.w	r3, [sp, #1]
		ili93xx_write_register(ILI9341_CMD_VCOM_CONTROL_1, paratable, 2);
  400926:	20c5      	movs	r0, #197	; 0xc5
  400928:	4669      	mov	r1, sp
  40092a:	463a      	mov	r2, r7
  40092c:	47a8      	blx	r5

		/** VOM control 2 configuration*/
		paratable[0] = 0x94;
  40092e:	2394      	movs	r3, #148	; 0x94
  400930:	f88d 3000 	strb.w	r3, [sp]
		ili93xx_write_register(ILI9341_CMD_VCOM_CONTROL_2, paratable, 1);
  400934:	20c7      	movs	r0, #199	; 0xc7
  400936:	4669      	mov	r1, sp
  400938:	2201      	movs	r2, #1
  40093a:	47a8      	blx	r5

		/** Driver Timing Control A configuration*/
		paratable[0] = 0x85;
  40093c:	2385      	movs	r3, #133	; 0x85
  40093e:	f88d 3000 	strb.w	r3, [sp]
		paratable[1] = 0x01;
  400942:	f04f 0801 	mov.w	r8, #1
  400946:	f88d 8001 	strb.w	r8, [sp, #1]
		paratable[2] = 0x78;
  40094a:	2378      	movs	r3, #120	; 0x78
  40094c:	f88d 3002 	strb.w	r3, [sp, #2]
		ili93xx_write_register(ILI9341_CMD_DRIVER_TIMING_CTL_A, paratable, 3);
  400950:	20e8      	movs	r0, #232	; 0xe8
  400952:	4669      	mov	r1, sp
  400954:	2203      	movs	r2, #3
  400956:	47a8      	blx	r5

		/** Driver Timing Control B configuration*/
		paratable[0] = 0x00;
  400958:	f88d 4000 	strb.w	r4, [sp]
		paratable[1] = 0x00;
  40095c:	f88d 4001 	strb.w	r4, [sp, #1]
		ili93xx_write_register(ILI9341_CMD_DRIVER_TIMING_CTL_B, paratable, 2);
  400960:	20ea      	movs	r0, #234	; 0xea
  400962:	4669      	mov	r1, sp
  400964:	463a      	mov	r2, r7
  400966:	47a8      	blx	r5

		/** Memory Access Control configuration*/
		paratable[0] = ILI9341_CMD_MEMORY_ACCESS_CONTROL_MX |
  400968:	2348      	movs	r3, #72	; 0x48
  40096a:	f88d 3000 	strb.w	r3, [sp]
				ILI9341_CMD_MEMORY_ACCESS_CONTROL_BGR;
		ili93xx_write_register(ILI9341_CMD_MEMORY_ACCESS_CONTROL,
  40096e:	2036      	movs	r0, #54	; 0x36
  400970:	4669      	mov	r1, sp
  400972:	4642      	mov	r2, r8
  400974:	47a8      	blx	r5
				paratable, 1);

		/** Colmod Pixel Format Set configuation*/
		paratable[0] = 0x06;
  400976:	2306      	movs	r3, #6
  400978:	f88d 3000 	strb.w	r3, [sp]
		ili93xx_write_register(ILI9341_CMD_PIXEL_FORMAT_SET, paratable, 1);
  40097c:	203a      	movs	r0, #58	; 0x3a
  40097e:	4669      	mov	r1, sp
  400980:	4642      	mov	r2, r8
  400982:	47a8      	blx	r5

		/** Display Function Control */
		paratable[0] = 0x02;
  400984:	f88d 7000 	strb.w	r7, [sp]
		paratable[1] = 0x82;
  400988:	2382      	movs	r3, #130	; 0x82
  40098a:	f88d 3001 	strb.w	r3, [sp, #1]
		paratable[2] = 0x27;
  40098e:	2327      	movs	r3, #39	; 0x27
  400990:	f88d 3002 	strb.w	r3, [sp, #2]
		paratable[3] = 0x00;
  400994:	f88d 4003 	strb.w	r4, [sp, #3]
		ili93xx_write_register(ILI9341_CMD_DISPLAY_FUNCTION_CTL, paratable, 4);
  400998:	20b6      	movs	r0, #182	; 0xb6
  40099a:	4669      	mov	r1, sp
  40099c:	2204      	movs	r2, #4
  40099e:	47a8      	blx	r5
		
		/** set window area*/
		ili93xx_set_window(0, 0, p_opt->ul_width, p_opt->ul_height);
  4009a0:	4620      	mov	r0, r4
  4009a2:	4621      	mov	r1, r4
  4009a4:	6832      	ldr	r2, [r6, #0]
  4009a6:	6873      	ldr	r3, [r6, #4]
  4009a8:	4f11      	ldr	r7, [pc, #68]	; (4009f0 <ili93xx_init+0x2d4>)
  4009aa:	47b8      	blx	r7
		ili93xx_set_foreground_color(p_opt->foreground_color);
  4009ac:	68b0      	ldr	r0, [r6, #8]
  4009ae:	4b11      	ldr	r3, [pc, #68]	; (4009f4 <ili93xx_init+0x2d8>)
  4009b0:	4798      	blx	r3
		/** Leave sleep mode*/
		ili93xx_write_register(ILI9341_CMD_SLEEP_OUT, paratable, 0);
  4009b2:	4648      	mov	r0, r9
  4009b4:	4669      	mov	r1, sp
  4009b6:	4622      	mov	r2, r4
  4009b8:	47a8      	blx	r5
		ili93xx_delay(10);
  4009ba:	200a      	movs	r0, #10
  4009bc:	4b0b      	ldr	r3, [pc, #44]	; (4009ec <ili93xx_init+0x2d0>)
  4009be:	4798      	blx	r3
		/** Display on*/
		ili93xx_write_register(ILI9341_CMD_DISPLAY_ON, paratable, 0);
  4009c0:	2029      	movs	r0, #41	; 0x29
  4009c2:	4669      	mov	r1, sp
  4009c4:	4622      	mov	r2, r4
  4009c6:	47a8      	blx	r5
	} else {
		/** exit with return value 1 if device type is not supported.*/
		return 1;
	}

	return 0;
  4009c8:	4620      	mov	r0, r4
  4009ca:	e002      	b.n	4009d2 <ili93xx_init+0x2b6>
{
	uint8_t paratable[6];

	/** Identify the LCD driver device*/
	if (ili93xx_device_type_identify() != 0) {
		return 1;
  4009cc:	2001      	movs	r0, #1
  4009ce:	e000      	b.n	4009d2 <ili93xx_init+0x2b6>
		ili93xx_delay(10);
		/** Display on*/
		ili93xx_write_register(ILI9341_CMD_DISPLAY_ON, paratable, 0);
	} else {
		/** exit with return value 1 if device type is not supported.*/
		return 1;
  4009d0:	2001      	movs	r0, #1
	}

	return 0;
}
  4009d2:	b003      	add	sp, #12
  4009d4:	e8bd 83f0 	ldmia.w	sp!, {r4, r5, r6, r7, r8, r9, pc}
  4009d8:	0040058d 	.word	0x0040058d
  4009dc:	20000000 	.word	0x20000000
  4009e0:	20000004 	.word	0x20000004
  4009e4:	20000c60 	.word	0x20000c60
  4009e8:	004004b1 	.word	0x004004b1
  4009ec:	004004f5 	.word	0x004004f5
  4009f0:	00400655 	.word	0x00400655
  4009f4:	0040063d 	.word	0x0040063d
  4009f8:	004006f9 	.word	0x004006f9
  4009fc:	004004c9 	.word	0x004004c9

00400a00 <ili93xx_draw_pixel>:
 * \param ul_y Y coordinate of pixel.
 *
 * \return 0 if succeeds, otherwise fails.
 */
uint32_t ili93xx_draw_pixel(uint32_t ul_x, uint32_t ul_y)
{
  400a00:	b510      	push	{r4, lr}
	if ((ul_x >= g_ul_lcd_x_length) || (ul_y >= g_ul_lcd_y_length)) {
  400a02:	4b16      	ldr	r3, [pc, #88]	; (400a5c <ili93xx_draw_pixel+0x5c>)
  400a04:	681b      	ldr	r3, [r3, #0]
  400a06:	4283      	cmp	r3, r0
  400a08:	d921      	bls.n	400a4e <ili93xx_draw_pixel+0x4e>
  400a0a:	4b15      	ldr	r3, [pc, #84]	; (400a60 <ili93xx_draw_pixel+0x60>)
  400a0c:	681b      	ldr	r3, [r3, #0]
  400a0e:	428b      	cmp	r3, r1
  400a10:	d91f      	bls.n	400a52 <ili93xx_draw_pixel+0x52>
		return 1;
	}

	if (g_uc_device_type == DEVICE_TYPE_ILI9325) {
  400a12:	4b14      	ldr	r3, [pc, #80]	; (400a64 <ili93xx_draw_pixel+0x64>)
  400a14:	781b      	ldrb	r3, [r3, #0]
  400a16:	2b01      	cmp	r3, #1
  400a18:	d10b      	bne.n	400a32 <ili93xx_draw_pixel+0x32>
		/** Set cursor */
		ili93xx_set_cursor_position(ul_x, ul_y);
  400a1a:	b280      	uxth	r0, r0
  400a1c:	b289      	uxth	r1, r1
  400a1e:	4b12      	ldr	r3, [pc, #72]	; (400a68 <ili93xx_draw_pixel+0x68>)
  400a20:	4798      	blx	r3
		/** Prepare to write in GRAM */
		ili93xx_write_ram_prepare();
  400a22:	4b12      	ldr	r3, [pc, #72]	; (400a6c <ili93xx_draw_pixel+0x6c>)
  400a24:	4798      	blx	r3
		ili93xx_write_ram(*g_ul_pixel_cache);
  400a26:	4b12      	ldr	r3, [pc, #72]	; (400a70 <ili93xx_draw_pixel+0x70>)
  400a28:	6818      	ldr	r0, [r3, #0]
  400a2a:	4b12      	ldr	r3, [pc, #72]	; (400a74 <ili93xx_draw_pixel+0x74>)
  400a2c:	4798      	blx	r3
		/** Prepare to write in GRAM */
		ili93xx_write_ram_prepare();
		ili93xx_write_ram(*g_ul_pixel_cache);
	}

	return 0;
  400a2e:	2000      	movs	r0, #0
  400a30:	bd10      	pop	{r4, pc}
		/** Set cursor */
		ili93xx_set_cursor_position(ul_x, ul_y);
		/** Prepare to write in GRAM */
		ili93xx_write_ram_prepare();
		ili93xx_write_ram(*g_ul_pixel_cache);
	} else if (g_uc_device_type == DEVICE_TYPE_ILI9341) {
  400a32:	2b02      	cmp	r3, #2
  400a34:	d10f      	bne.n	400a56 <ili93xx_draw_pixel+0x56>
		ili93xx_set_window(ul_x, ul_y, 0, 0);
  400a36:	2200      	movs	r2, #0
  400a38:	4613      	mov	r3, r2
  400a3a:	4c0f      	ldr	r4, [pc, #60]	; (400a78 <ili93xx_draw_pixel+0x78>)
  400a3c:	47a0      	blx	r4
		/** Prepare to write in GRAM */
		ili93xx_write_ram_prepare();
  400a3e:	4b0b      	ldr	r3, [pc, #44]	; (400a6c <ili93xx_draw_pixel+0x6c>)
  400a40:	4798      	blx	r3
		ili93xx_write_ram(*g_ul_pixel_cache);
  400a42:	4b0b      	ldr	r3, [pc, #44]	; (400a70 <ili93xx_draw_pixel+0x70>)
  400a44:	6818      	ldr	r0, [r3, #0]
  400a46:	4b0b      	ldr	r3, [pc, #44]	; (400a74 <ili93xx_draw_pixel+0x74>)
  400a48:	4798      	blx	r3
	}

	return 0;
  400a4a:	2000      	movs	r0, #0
  400a4c:	bd10      	pop	{r4, pc}
 * \return 0 if succeeds, otherwise fails.
 */
uint32_t ili93xx_draw_pixel(uint32_t ul_x, uint32_t ul_y)
{
	if ((ul_x >= g_ul_lcd_x_length) || (ul_y >= g_ul_lcd_y_length)) {
		return 1;
  400a4e:	2001      	movs	r0, #1
  400a50:	bd10      	pop	{r4, pc}
  400a52:	2001      	movs	r0, #1
  400a54:	bd10      	pop	{r4, pc}
		/** Prepare to write in GRAM */
		ili93xx_write_ram_prepare();
		ili93xx_write_ram(*g_ul_pixel_cache);
	}

	return 0;
  400a56:	2000      	movs	r0, #0
}
  400a58:	bd10      	pop	{r4, pc}
  400a5a:	bf00      	nop
  400a5c:	20000000 	.word	0x20000000
  400a60:	20000004 	.word	0x20000004
  400a64:	20000c60 	.word	0x20000c60
  400a68:	004006f9 	.word	0x004006f9
  400a6c:	00400409 	.word	0x00400409
  400a70:	200008a0 	.word	0x200008a0
  400a74:	00400439 	.word	0x00400439
  400a78:	00400655 	.word	0x00400655

00400a7c <ili93xx_draw_filled_rectangle>:
 * \param ul_x2 X coordinate of lower-right corner on LCD.
 * \param ul_y2 Y coordinate of lower-right corner on LCD.
 */
void ili93xx_draw_filled_rectangle(uint32_t ul_x1, uint32_t ul_y1,
		uint32_t ul_x2, uint32_t ul_y2)
{
  400a7c:	e92d 41f0 	stmdb	sp!, {r4, r5, r6, r7, r8, lr}
  400a80:	b084      	sub	sp, #16
  400a82:	9003      	str	r0, [sp, #12]
  400a84:	9102      	str	r1, [sp, #8]
  400a86:	9201      	str	r2, [sp, #4]
  400a88:	9300      	str	r3, [sp, #0]
	uint32_t size, blocks;

	/** Swap coordinates if necessary */
	ili93xx_check_box_coordinates(&ul_x1, &ul_y1, &ul_x2, &ul_y2);
  400a8a:	a803      	add	r0, sp, #12
  400a8c:	a902      	add	r1, sp, #8
  400a8e:	aa01      	add	r2, sp, #4
  400a90:	466b      	mov	r3, sp
  400a92:	4c22      	ldr	r4, [pc, #136]	; (400b1c <ili93xx_draw_filled_rectangle+0xa0>)
  400a94:	47a0      	blx	r4

	/** Determine the refresh window area */
	ili93xx_set_window(ul_x1, ul_y1, (ul_x2 - ul_x1) + 1,
  400a96:	9d03      	ldr	r5, [sp, #12]
			(ul_y2 - ul_y1) + 1);
  400a98:	9c02      	ldr	r4, [sp, #8]
  400a9a:	9901      	ldr	r1, [sp, #4]
  400a9c:	1c4a      	adds	r2, r1, #1
  400a9e:	9900      	ldr	r1, [sp, #0]
  400aa0:	1c4b      	adds	r3, r1, #1

	/** Swap coordinates if necessary */
	ili93xx_check_box_coordinates(&ul_x1, &ul_y1, &ul_x2, &ul_y2);

	/** Determine the refresh window area */
	ili93xx_set_window(ul_x1, ul_y1, (ul_x2 - ul_x1) + 1,
  400aa2:	4628      	mov	r0, r5
  400aa4:	4621      	mov	r1, r4
  400aa6:	1b52      	subs	r2, r2, r5
  400aa8:	1b1b      	subs	r3, r3, r4
  400aaa:	4c1d      	ldr	r4, [pc, #116]	; (400b20 <ili93xx_draw_filled_rectangle+0xa4>)
  400aac:	47a0      	blx	r4
			(ul_y2 - ul_y1) + 1);

	/** Set cursor */
	ili93xx_set_cursor_position(ul_x1, ul_y1);
  400aae:	f8bd 000c 	ldrh.w	r0, [sp, #12]
  400ab2:	f8bd 1008 	ldrh.w	r1, [sp, #8]
  400ab6:	4b1b      	ldr	r3, [pc, #108]	; (400b24 <ili93xx_draw_filled_rectangle+0xa8>)
  400ab8:	4798      	blx	r3

	/** Prepare to write in Graphic RAM */
	ili93xx_write_ram_prepare();
  400aba:	4b1b      	ldr	r3, [pc, #108]	; (400b28 <ili93xx_draw_filled_rectangle+0xac>)
  400abc:	4798      	blx	r3

	size = (ul_x2 - ul_x1 + 1) * (ul_y2 - ul_y1 + 1);
  400abe:	9a02      	ldr	r2, [sp, #8]
  400ac0:	9b00      	ldr	r3, [sp, #0]
  400ac2:	1a9a      	subs	r2, r3, r2
  400ac4:	9b01      	ldr	r3, [sp, #4]
  400ac6:	f103 0801 	add.w	r8, r3, #1
  400aca:	9b03      	ldr	r3, [sp, #12]
  400acc:	ebc3 0808 	rsb	r8, r3, r8
  400ad0:	fb02 8808 	mla	r8, r2, r8, r8

	/** Send pixels blocks => one SPI IT / block */
	blocks = size / LCD_DATA_CACHE_SIZE;
  400ad4:	4c15      	ldr	r4, [pc, #84]	; (400b2c <ili93xx_draw_filled_rectangle+0xb0>)
  400ad6:	fba4 3408 	umull	r3, r4, r4, r8
	while (blocks--) {
  400ada:	09e4      	lsrs	r4, r4, #7
  400adc:	d007      	beq.n	400aee <ili93xx_draw_filled_rectangle+0x72>
		ili93xx_write_ram_buffer(g_ul_pixel_cache,
  400ade:	4f14      	ldr	r7, [pc, #80]	; (400b30 <ili93xx_draw_filled_rectangle+0xb4>)
  400ae0:	26f0      	movs	r6, #240	; 0xf0
  400ae2:	4d14      	ldr	r5, [pc, #80]	; (400b34 <ili93xx_draw_filled_rectangle+0xb8>)
  400ae4:	4638      	mov	r0, r7
  400ae6:	4631      	mov	r1, r6
  400ae8:	47a8      	blx	r5

	size = (ul_x2 - ul_x1 + 1) * (ul_y2 - ul_y1 + 1);

	/** Send pixels blocks => one SPI IT / block */
	blocks = size / LCD_DATA_CACHE_SIZE;
	while (blocks--) {
  400aea:	3c01      	subs	r4, #1
  400aec:	d1fa      	bne.n	400ae4 <ili93xx_draw_filled_rectangle+0x68>
		ili93xx_write_ram_buffer(g_ul_pixel_cache,
								LCD_DATA_CACHE_SIZE);
	}

	/** Send remaining pixels */
	ili93xx_write_ram_buffer(g_ul_pixel_cache,
  400aee:	490f      	ldr	r1, [pc, #60]	; (400b2c <ili93xx_draw_filled_rectangle+0xb0>)
  400af0:	fba1 3108 	umull	r3, r1, r1, r8
  400af4:	09c9      	lsrs	r1, r1, #7
  400af6:	ebc1 1101 	rsb	r1, r1, r1, lsl #4
  400afa:	480d      	ldr	r0, [pc, #52]	; (400b30 <ili93xx_draw_filled_rectangle+0xb4>)
  400afc:	eba8 1101 	sub.w	r1, r8, r1, lsl #4
  400b00:	4b0c      	ldr	r3, [pc, #48]	; (400b34 <ili93xx_draw_filled_rectangle+0xb8>)
  400b02:	4798      	blx	r3
					size % LCD_DATA_CACHE_SIZE);

	/** Reset the refresh window area */
	ili93xx_set_window(0, 0, g_ul_lcd_x_length, g_ul_lcd_y_length);
  400b04:	2000      	movs	r0, #0
  400b06:	4601      	mov	r1, r0
  400b08:	4b0b      	ldr	r3, [pc, #44]	; (400b38 <ili93xx_draw_filled_rectangle+0xbc>)
  400b0a:	681a      	ldr	r2, [r3, #0]
  400b0c:	4b0b      	ldr	r3, [pc, #44]	; (400b3c <ili93xx_draw_filled_rectangle+0xc0>)
  400b0e:	681b      	ldr	r3, [r3, #0]
  400b10:	4c03      	ldr	r4, [pc, #12]	; (400b20 <ili93xx_draw_filled_rectangle+0xa4>)
  400b12:	47a0      	blx	r4
}
  400b14:	b004      	add	sp, #16
  400b16:	e8bd 81f0 	ldmia.w	sp!, {r4, r5, r6, r7, r8, pc}
  400b1a:	bf00      	nop
  400b1c:	0040052d 	.word	0x0040052d
  400b20:	00400655 	.word	0x00400655
  400b24:	004006f9 	.word	0x004006f9
  400b28:	00400409 	.word	0x00400409
  400b2c:	88888889 	.word	0x88888889
  400b30:	200008a0 	.word	0x200008a0
  400b34:	00400451 	.word	0x00400451
  400b38:	20000000 	.word	0x20000000
  400b3c:	20000004 	.word	0x20000004

00400b40 <ili93xx_draw_string>:
 * \param ul_x X coordinate of string top-left corner.
 * \param ul_y Y coordinate of string top-left corner.
 * \param p_str String to display.
 */
void ili93xx_draw_string(uint32_t ul_x, uint32_t ul_y, const uint8_t *p_str)
{
  400b40:	e92d 4ff0 	stmdb	sp!, {r4, r5, r6, r7, r8, r9, sl, fp, lr}
  400b44:	b085      	sub	sp, #20
  400b46:	9003      	str	r0, [sp, #12]
  400b48:	9202      	str	r2, [sp, #8]
	uint32_t xorg = ul_x;

	while (*p_str != 0) {
  400b4a:	7813      	ldrb	r3, [r2, #0]
  400b4c:	2b00      	cmp	r3, #0
  400b4e:	d046      	beq.n	400bde <ili93xx_draw_string+0x9e>
  400b50:	468b      	mov	fp, r1
  400b52:	9001      	str	r0, [sp, #4]
		 * Draw pixel on screen depending on the corresponding bit value
		 * from the charset
		 */
		for (row = 0; row < 8; row++) {
			if ((p_uc_charset10x14[offset0] >> (7 - row)) & 0x1) {
				ili93xx_draw_pixel(ul_x + col, ul_y + row);
  400b54:	f8df 9090 	ldr.w	r9, [pc, #144]	; 400be8 <ili93xx_draw_string+0xa8>
{
	uint32_t xorg = ul_x;

	while (*p_str != 0) {
		/** If newline, jump to the next line (font height + 2) */
		if (*p_str == '\n') {
  400b58:	2b0a      	cmp	r3, #10
  400b5a:	d104      	bne.n	400b66 <ili93xx_draw_string+0x26>
			ul_y += gfont.height + 2;
  400b5c:	f10b 0b10 	add.w	fp, fp, #16
			ul_x = xorg;
  400b60:	9b03      	ldr	r3, [sp, #12]
  400b62:	9301      	str	r3, [sp, #4]
  400b64:	e035      	b.n	400bd2 <ili93xx_draw_string+0x92>

	/**
	 * Compute offset according of the specified ASCII character
	 *  Note: the first 32 characters of the ASCII table are not handled
	 */
	offset = ((uint32_t)uc_c - 0x20) * 20;
  400b66:	eb03 0383 	add.w	r3, r3, r3, lsl #2
  400b6a:	4e1e      	ldr	r6, [pc, #120]	; (400be4 <ili93xx_draw_string+0xa4>)
  400b6c:	eb06 0383 	add.w	r3, r6, r3, lsl #2
  400b70:	f2a3 267f 	subw	r6, r3, #639	; 0x27f
  400b74:	9a01      	ldr	r2, [sp, #4]
  400b76:	4613      	mov	r3, r2
  400b78:	330a      	adds	r3, #10
  400b7a:	9300      	str	r3, [sp, #0]
  400b7c:	4690      	mov	r8, r2
  400b7e:	2407      	movs	r4, #7
  400b80:	4637      	mov	r7, r6
  400b82:	eb0b 0a04 	add.w	sl, fp, r4
  400b86:	463d      	mov	r5, r7
		/**
		 * Draw pixel on screen depending on the corresponding bit value
		 * from the charset
		 */
		for (row = 0; row < 8; row++) {
			if ((p_uc_charset10x14[offset0] >> (7 - row)) & 0x1) {
  400b88:	f816 3c01 	ldrb.w	r3, [r6, #-1]
  400b8c:	4123      	asrs	r3, r4
  400b8e:	f013 0f01 	tst.w	r3, #1
  400b92:	d003      	beq.n	400b9c <ili93xx_draw_string+0x5c>
				ili93xx_draw_pixel(ul_x + col, ul_y + row);
  400b94:	4640      	mov	r0, r8
  400b96:	ebc4 010a 	rsb	r1, r4, sl
  400b9a:	47c8      	blx	r9
  400b9c:	3c01      	subs	r4, #1

		/**
		 * Draw pixel on screen depending on the corresponding bit value
		 * from the charset
		 */
		for (row = 0; row < 8; row++) {
  400b9e:	f1b4 3fff 	cmp.w	r4, #4294967295
  400ba2:	d1f0      	bne.n	400b86 <ili93xx_draw_string+0x46>
  400ba4:	2407      	movs	r4, #7
  400ba6:	f10b 070f 	add.w	r7, fp, #15
				ili93xx_draw_pixel(ul_x + col, ul_y + row);
			}
		}

		for (row = 0; row < 6; row++) {
			if ((p_uc_charset10x14[offset1] >> (7 - row)) & 0x1) {
  400baa:	782b      	ldrb	r3, [r5, #0]
  400bac:	4123      	asrs	r3, r4
  400bae:	f013 0f01 	tst.w	r3, #1
  400bb2:	d002      	beq.n	400bba <ili93xx_draw_string+0x7a>
				ili93xx_draw_pixel(ul_x + col, ul_y + row + 8);
  400bb4:	4640      	mov	r0, r8
  400bb6:	1b39      	subs	r1, r7, r4
  400bb8:	47c8      	blx	r9
  400bba:	3c01      	subs	r4, #1
			if ((p_uc_charset10x14[offset0] >> (7 - row)) & 0x1) {
				ili93xx_draw_pixel(ul_x + col, ul_y + row);
			}
		}

		for (row = 0; row < 6; row++) {
  400bbc:	2c01      	cmp	r4, #1
  400bbe:	d1f4      	bne.n	400baa <ili93xx_draw_string+0x6a>
  400bc0:	3602      	adds	r6, #2
  400bc2:	f108 0801 	add.w	r8, r8, #1
	 * Compute offset according of the specified ASCII character
	 *  Note: the first 32 characters of the ASCII table are not handled
	 */
	offset = ((uint32_t)uc_c - 0x20) * 20;

	for (col = 0; col < 10; col++) {
  400bc6:	9b00      	ldr	r3, [sp, #0]
  400bc8:	4598      	cmp	r8, r3
  400bca:	d1d8      	bne.n	400b7e <ili93xx_draw_string+0x3e>
			/**
			 * Draw the character and place cursor right after (font
			 * width + 2)
			 */
			ili93xx_draw_char(ul_x, ul_y, *p_str);
			ul_x += gfont.width + 2;
  400bcc:	9b01      	ldr	r3, [sp, #4]
  400bce:	330c      	adds	r3, #12
  400bd0:	9301      	str	r3, [sp, #4]
 */
void ili93xx_draw_string(uint32_t ul_x, uint32_t ul_y, const uint8_t *p_str)
{
	uint32_t xorg = ul_x;

	while (*p_str != 0) {
  400bd2:	9a02      	ldr	r2, [sp, #8]
  400bd4:	f812 3f01 	ldrb.w	r3, [r2, #1]!
  400bd8:	9202      	str	r2, [sp, #8]
  400bda:	2b00      	cmp	r3, #0
  400bdc:	d1bc      	bne.n	400b58 <ili93xx_draw_string+0x18>
			ul_x += gfont.width + 2;
		}

		p_str++;
	}
}
  400bde:	b005      	add	sp, #20
  400be0:	e8bd 8ff0 	ldmia.w	sp!, {r4, r5, r6, r7, r8, r9, sl, fp, pc}
  400be4:	00407874 	.word	0x00407874
  400be8:	00400a01 	.word	0x00400a01

00400bec <ili93xx_draw_pixmap>:
 * \param ul_height height of the picture.
 * \param p_ul_pixmap pixmap of the image.
 */
void ili93xx_draw_pixmap(uint32_t ul_x, uint32_t ul_y, uint32_t ul_width,
		uint32_t ul_height, const ili93xx_color_t *p_ul_pixmap)
{
  400bec:	b530      	push	{r4, r5, lr}
  400bee:	b085      	sub	sp, #20
	uint32_t size;
	uint32_t dwX1, dwY1, dwX2, dwY2;
	dwX1 = ul_x;
  400bf0:	9003      	str	r0, [sp, #12]
	dwY1 = ul_y;
  400bf2:	9102      	str	r1, [sp, #8]
	dwX2 = ul_x + ul_width;
  400bf4:	4402      	add	r2, r0
  400bf6:	9201      	str	r2, [sp, #4]
	dwY2 = ul_y + ul_height;
  400bf8:	440b      	add	r3, r1
  400bfa:	9300      	str	r3, [sp, #0]

	/** Swap coordinates if necessary */
	ili93xx_check_box_coordinates(&dwX1, &dwY1, &dwX2, &dwY2);
  400bfc:	a803      	add	r0, sp, #12
  400bfe:	a902      	add	r1, sp, #8
  400c00:	aa01      	add	r2, sp, #4
  400c02:	466b      	mov	r3, sp
  400c04:	4c22      	ldr	r4, [pc, #136]	; (400c90 <ili93xx_draw_pixmap+0xa4>)
  400c06:	47a0      	blx	r4

	/** Determine the refresh window area */
	ili93xx_set_window(dwX1, dwY1, (dwX2 - dwX1 + 1), (dwY2 - dwY1 + 1));
  400c08:	9d03      	ldr	r5, [sp, #12]
  400c0a:	9c02      	ldr	r4, [sp, #8]
  400c0c:	9901      	ldr	r1, [sp, #4]
  400c0e:	1c4a      	adds	r2, r1, #1
  400c10:	9900      	ldr	r1, [sp, #0]
  400c12:	1c4b      	adds	r3, r1, #1
  400c14:	4628      	mov	r0, r5
  400c16:	4621      	mov	r1, r4
  400c18:	1b52      	subs	r2, r2, r5
  400c1a:	1b1b      	subs	r3, r3, r4
  400c1c:	4c1d      	ldr	r4, [pc, #116]	; (400c94 <ili93xx_draw_pixmap+0xa8>)
  400c1e:	47a0      	blx	r4

	if (g_uc_device_type == DEVICE_TYPE_ILI9325) {
  400c20:	4b1d      	ldr	r3, [pc, #116]	; (400c98 <ili93xx_draw_pixmap+0xac>)
  400c22:	781b      	ldrb	r3, [r3, #0]
  400c24:	2b01      	cmp	r3, #1
  400c26:	d11a      	bne.n	400c5e <ili93xx_draw_pixmap+0x72>
		/** Set cursor */
		ili93xx_set_cursor_position(dwX1, dwY1);
  400c28:	f8bd 000c 	ldrh.w	r0, [sp, #12]
  400c2c:	f8bd 1008 	ldrh.w	r1, [sp, #8]
  400c30:	4b1a      	ldr	r3, [pc, #104]	; (400c9c <ili93xx_draw_pixmap+0xb0>)
  400c32:	4798      	blx	r3
		/** Prepare to write in GRAM */
		ili93xx_write_ram_prepare();
  400c34:	4b1a      	ldr	r3, [pc, #104]	; (400ca0 <ili93xx_draw_pixmap+0xb4>)
  400c36:	4798      	blx	r3

		size = (dwX2 - dwX1) * (dwY2 - dwY1);
  400c38:	9902      	ldr	r1, [sp, #8]
  400c3a:	9b00      	ldr	r3, [sp, #0]
  400c3c:	1a5b      	subs	r3, r3, r1
  400c3e:	9903      	ldr	r1, [sp, #12]
  400c40:	9a01      	ldr	r2, [sp, #4]
  400c42:	1a51      	subs	r1, r2, r1

		ili93xx_write_ram_buffer(p_ul_pixmap, size);
  400c44:	9808      	ldr	r0, [sp, #32]
  400c46:	fb01 f103 	mul.w	r1, r1, r3
  400c4a:	4b16      	ldr	r3, [pc, #88]	; (400ca4 <ili93xx_draw_pixmap+0xb8>)
  400c4c:	4798      	blx	r3

		/** Reset the refresh window area */
		ili93xx_set_window(0, 0, g_ul_lcd_x_length, g_ul_lcd_y_length);
  400c4e:	2000      	movs	r0, #0
  400c50:	4601      	mov	r1, r0
  400c52:	4b15      	ldr	r3, [pc, #84]	; (400ca8 <ili93xx_draw_pixmap+0xbc>)
  400c54:	681a      	ldr	r2, [r3, #0]
  400c56:	4b15      	ldr	r3, [pc, #84]	; (400cac <ili93xx_draw_pixmap+0xc0>)
  400c58:	681b      	ldr	r3, [r3, #0]
  400c5a:	47a0      	blx	r4
  400c5c:	e016      	b.n	400c8c <ili93xx_draw_pixmap+0xa0>
	} else if (g_uc_device_type == DEVICE_TYPE_ILI9341) {
  400c5e:	2b02      	cmp	r3, #2
  400c60:	d114      	bne.n	400c8c <ili93xx_draw_pixmap+0xa0>
		/** Prepare to write in GRAM */
		ili93xx_write_ram_prepare();
  400c62:	4b0f      	ldr	r3, [pc, #60]	; (400ca0 <ili93xx_draw_pixmap+0xb4>)
  400c64:	4798      	blx	r3

		size = (dwX2 - dwX1) * (dwY2 - dwY1);
  400c66:	9902      	ldr	r1, [sp, #8]
  400c68:	9b00      	ldr	r3, [sp, #0]
  400c6a:	1a5b      	subs	r3, r3, r1
  400c6c:	9903      	ldr	r1, [sp, #12]
  400c6e:	9a01      	ldr	r2, [sp, #4]
  400c70:	1a51      	subs	r1, r2, r1

		ili93xx_write_ram_buffer(p_ul_pixmap, size);
  400c72:	9808      	ldr	r0, [sp, #32]
  400c74:	fb01 f103 	mul.w	r1, r1, r3
  400c78:	4b0a      	ldr	r3, [pc, #40]	; (400ca4 <ili93xx_draw_pixmap+0xb8>)
  400c7a:	4798      	blx	r3

		/** Reset the refresh window area */
		ili93xx_set_window(0, 0, g_ul_lcd_x_length, g_ul_lcd_y_length);
  400c7c:	2000      	movs	r0, #0
  400c7e:	4601      	mov	r1, r0
  400c80:	4b09      	ldr	r3, [pc, #36]	; (400ca8 <ili93xx_draw_pixmap+0xbc>)
  400c82:	681a      	ldr	r2, [r3, #0]
  400c84:	4b09      	ldr	r3, [pc, #36]	; (400cac <ili93xx_draw_pixmap+0xc0>)
  400c86:	681b      	ldr	r3, [r3, #0]
  400c88:	4c02      	ldr	r4, [pc, #8]	; (400c94 <ili93xx_draw_pixmap+0xa8>)
  400c8a:	47a0      	blx	r4
	}
}
  400c8c:	b005      	add	sp, #20
  400c8e:	bd30      	pop	{r4, r5, pc}
  400c90:	0040052d 	.word	0x0040052d
  400c94:	00400655 	.word	0x00400655
  400c98:	20000c60 	.word	0x20000c60
  400c9c:	004006f9 	.word	0x004006f9
  400ca0:	00400409 	.word	0x00400409
  400ca4:	00400451 	.word	0x00400451
  400ca8:	20000000 	.word	0x20000000
  400cac:	20000004 	.word	0x20000004

00400cb0 <smc_set_setup_timing>:
 * \param ul_setup_timing Setup timing for NWE, NCS, NRD.
 */
void smc_set_setup_timing(Smc *p_smc, uint32_t ul_cs,
		uint32_t ul_setup_timing)
{
	p_smc->SMC_CS_NUMBER[ul_cs].SMC_SETUP = ul_setup_timing;
  400cb0:	0109      	lsls	r1, r1, #4
  400cb2:	5042      	str	r2, [r0, r1]
  400cb4:	4770      	bx	lr
  400cb6:	bf00      	nop

00400cb8 <smc_set_pulse_timing>:
 * \param ul_pulse_timing Pulse timing for NWE,NCS,NRD.
 */
void smc_set_pulse_timing(Smc *p_smc, uint32_t ul_cs,
		uint32_t ul_pulse_timing)
{
	p_smc->SMC_CS_NUMBER[ul_cs].SMC_PULSE = ul_pulse_timing;
  400cb8:	eb00 1101 	add.w	r1, r0, r1, lsl #4
  400cbc:	604a      	str	r2, [r1, #4]
  400cbe:	4770      	bx	lr

00400cc0 <smc_set_cycle_timing>:
 * \param ul_cycle_timing Cycle timing for NWE and NRD.
 */
void smc_set_cycle_timing(Smc *p_smc, uint32_t ul_cs,
		uint32_t ul_cycle_timing)
{
	p_smc->SMC_CS_NUMBER[ul_cs].SMC_CYCLE = ul_cycle_timing;
  400cc0:	eb00 1101 	add.w	r1, r0, r1, lsl #4
  400cc4:	608a      	str	r2, [r1, #8]
  400cc6:	4770      	bx	lr

00400cc8 <smc_set_mode>:
 * \param ul_cs Chip select number to be set.
 * \param ul_mode SMC mode.
 */
void smc_set_mode(Smc *p_smc, uint32_t ul_cs, uint32_t ul_mode)
{
	p_smc->SMC_CS_NUMBER[ul_cs].SMC_MODE = ul_mode;
  400cc8:	eb00 1101 	add.w	r1, r0, r1, lsl #4
  400ccc:	60ca      	str	r2, [r1, #12]
  400cce:	4770      	bx	lr

00400cd0 <pio_set_debounce_filter>:
void pio_set_debounce_filter(Pio *p_pio, const uint32_t ul_mask,
		const uint32_t ul_cut_off)
{
#if (SAM3S || SAM3N || SAM4S || SAM4E || SAM4N || SAM4C || SAMG || SAM4CP || SAM4CM || SAMV71 || SAMV70 || SAME70 || SAMS70)
	/* Set Debouncing, 0 bit field no effect */
	p_pio->PIO_IFSCER = ul_mask;
  400cd0:	f8c0 1084 	str.w	r1, [r0, #132]	; 0x84
	/*
	 * The debouncing filter can filter a pulse of less than 1/2 Period of a
	 * programmable Divided Slow Clock:
	 * Tdiv_slclk = ((DIV+1)*2).Tslow_clock
	 */
	p_pio->PIO_SCDR = PIO_SCDR_DIV((FREQ_SLOW_CLOCK_EXT /
  400cd4:	0052      	lsls	r2, r2, #1
  400cd6:	f44f 4300 	mov.w	r3, #32768	; 0x8000
  400cda:	fbb3 f2f2 	udiv	r2, r3, r2
  400cde:	3a01      	subs	r2, #1
  400ce0:	f3c2 020d 	ubfx	r2, r2, #0, #14
  400ce4:	f8c0 208c 	str.w	r2, [r0, #140]	; 0x8c
  400ce8:	4770      	bx	lr
  400cea:	bf00      	nop

00400cec <pio_set_peripheral>:
		const uint32_t ul_mask)
{
	uint32_t ul_sr;

	/* Disable interrupts on the pin(s) */
	p_pio->PIO_IDR = ul_mask;
  400cec:	6442      	str	r2, [r0, #68]	; 0x44

#if (SAM3S || SAM3N || SAM4S || SAM4E || SAM4N || SAM4C || SAMG || SAM4CP || SAM4CM || SAMV71 || SAMV70 || SAME70 || SAMS70)
	switch (ul_type) {
  400cee:	f1b1 5fc0 	cmp.w	r1, #402653184	; 0x18000000
  400cf2:	d02f      	beq.n	400d54 <pio_set_peripheral+0x68>
  400cf4:	d807      	bhi.n	400d06 <pio_set_peripheral+0x1a>
  400cf6:	f1b1 6f00 	cmp.w	r1, #134217728	; 0x8000000
  400cfa:	d014      	beq.n	400d26 <pio_set_peripheral+0x3a>
  400cfc:	f1b1 5f80 	cmp.w	r1, #268435456	; 0x10000000
  400d00:	d01e      	beq.n	400d40 <pio_set_peripheral+0x54>
  400d02:	b939      	cbnz	r1, 400d14 <pio_set_peripheral+0x28>
  400d04:	4770      	bx	lr
  400d06:	f1b1 5f20 	cmp.w	r1, #671088640	; 0x28000000
  400d0a:	d037      	beq.n	400d7c <pio_set_peripheral+0x90>
  400d0c:	d804      	bhi.n	400d18 <pio_set_peripheral+0x2c>
  400d0e:	f1b1 5f00 	cmp.w	r1, #536870912	; 0x20000000
  400d12:	d029      	beq.n	400d68 <pio_set_peripheral+0x7c>
#else
#error "Unsupported device"
#endif

	/* Remove the pins from under the control of PIO */
	p_pio->PIO_PDR = ul_mask;
  400d14:	6042      	str	r2, [r0, #4]
  400d16:	4770      	bx	lr

	/* Disable interrupts on the pin(s) */
	p_pio->PIO_IDR = ul_mask;

#if (SAM3S || SAM3N || SAM4S || SAM4E || SAM4N || SAM4C || SAMG || SAM4CP || SAM4CM || SAMV71 || SAMV70 || SAME70 || SAMS70)
	switch (ul_type) {
  400d18:	f1b1 5f40 	cmp.w	r1, #805306368	; 0x30000000
  400d1c:	d02e      	beq.n	400d7c <pio_set_peripheral+0x90>
  400d1e:	f1b1 5f60 	cmp.w	r1, #939524096	; 0x38000000
  400d22:	d02b      	beq.n	400d7c <pio_set_peripheral+0x90>
  400d24:	e7f6      	b.n	400d14 <pio_set_peripheral+0x28>
 * \param ul_type PIO type.
 * \param ul_mask Bitmask of one or more pin(s) to configure.
 */
void pio_set_peripheral(Pio *p_pio, const pio_type_t ul_type,
		const uint32_t ul_mask)
{
  400d26:	b410      	push	{r4}
	p_pio->PIO_IDR = ul_mask;

#if (SAM3S || SAM3N || SAM4S || SAM4E || SAM4N || SAM4C || SAMG || SAM4CP || SAM4CM || SAMV71 || SAMV70 || SAME70 || SAMS70)
	switch (ul_type) {
	case PIO_PERIPH_A:
		ul_sr = p_pio->PIO_ABCDSR[0];
  400d28:	6f01      	ldr	r1, [r0, #112]	; 0x70
		p_pio->PIO_ABCDSR[0] &= (~ul_mask & ul_sr);
  400d2a:	6f04      	ldr	r4, [r0, #112]	; 0x70
  400d2c:	43d3      	mvns	r3, r2
  400d2e:	4021      	ands	r1, r4
  400d30:	4019      	ands	r1, r3
  400d32:	6701      	str	r1, [r0, #112]	; 0x70

		ul_sr = p_pio->PIO_ABCDSR[1];
  400d34:	6f41      	ldr	r1, [r0, #116]	; 0x74
		p_pio->PIO_ABCDSR[1] &= (~ul_mask & ul_sr);
  400d36:	6f44      	ldr	r4, [r0, #116]	; 0x74
  400d38:	4021      	ands	r1, r4
  400d3a:	400b      	ands	r3, r1
  400d3c:	6743      	str	r3, [r0, #116]	; 0x74
		break;
  400d3e:	e01a      	b.n	400d76 <pio_set_peripheral+0x8a>
	case PIO_PERIPH_B:
		ul_sr = p_pio->PIO_ABCDSR[0];
  400d40:	6f03      	ldr	r3, [r0, #112]	; 0x70
		p_pio->PIO_ABCDSR[0] = (ul_mask | ul_sr);
  400d42:	4313      	orrs	r3, r2
  400d44:	6703      	str	r3, [r0, #112]	; 0x70

		ul_sr = p_pio->PIO_ABCDSR[1];
  400d46:	6f43      	ldr	r3, [r0, #116]	; 0x74
		p_pio->PIO_ABCDSR[1] &= (~ul_mask & ul_sr);
  400d48:	6f41      	ldr	r1, [r0, #116]	; 0x74
  400d4a:	400b      	ands	r3, r1
  400d4c:	ea23 0302 	bic.w	r3, r3, r2
  400d50:	6743      	str	r3, [r0, #116]	; 0x74
		break;
  400d52:	e7df      	b.n	400d14 <pio_set_peripheral+0x28>
#if (!SAMG)
	case PIO_PERIPH_C:
		ul_sr = p_pio->PIO_ABCDSR[0];
  400d54:	6f03      	ldr	r3, [r0, #112]	; 0x70
		p_pio->PIO_ABCDSR[0] &= (~ul_mask & ul_sr);
  400d56:	6f01      	ldr	r1, [r0, #112]	; 0x70
  400d58:	400b      	ands	r3, r1
  400d5a:	ea23 0302 	bic.w	r3, r3, r2
  400d5e:	6703      	str	r3, [r0, #112]	; 0x70

		ul_sr = p_pio->PIO_ABCDSR[1];
  400d60:	6f43      	ldr	r3, [r0, #116]	; 0x74
		p_pio->PIO_ABCDSR[1] = (ul_mask | ul_sr);
  400d62:	4313      	orrs	r3, r2
  400d64:	6743      	str	r3, [r0, #116]	; 0x74
		break;
  400d66:	e7d5      	b.n	400d14 <pio_set_peripheral+0x28>
	case PIO_PERIPH_D:
		ul_sr = p_pio->PIO_ABCDSR[0];
  400d68:	6f03      	ldr	r3, [r0, #112]	; 0x70
		p_pio->PIO_ABCDSR[0] = (ul_mask | ul_sr);
  400d6a:	4313      	orrs	r3, r2
  400d6c:	6703      	str	r3, [r0, #112]	; 0x70

		ul_sr = p_pio->PIO_ABCDSR[1];
  400d6e:	6f43      	ldr	r3, [r0, #116]	; 0x74
		p_pio->PIO_ABCDSR[1] = (ul_mask | ul_sr);
  400d70:	4313      	orrs	r3, r2
  400d72:	6743      	str	r3, [r0, #116]	; 0x74
		break;
  400d74:	e7ce      	b.n	400d14 <pio_set_peripheral+0x28>
#else
#error "Unsupported device"
#endif

	/* Remove the pins from under the control of PIO */
	p_pio->PIO_PDR = ul_mask;
  400d76:	6042      	str	r2, [r0, #4]
}
  400d78:	f85d 4b04 	ldr.w	r4, [sp], #4
  400d7c:	4770      	bx	lr
  400d7e:	bf00      	nop

00400d80 <pio_set_input>:
 * \param p_pio Pointer to a PIO instance.
 * \param ul_mask Interrupt sources bit map.
 */
void pio_disable_interrupt(Pio *p_pio, const uint32_t ul_mask)
{
	p_pio->PIO_IDR = ul_mask;
  400d80:	6441      	str	r1, [r0, #68]	; 0x44
 */
void pio_pull_up(Pio *p_pio, const uint32_t ul_mask,
		const uint32_t ul_pull_up_enable)
{
	/* Enable the pull-up(s) if necessary */
	if (ul_pull_up_enable) {
  400d82:	f012 0f01 	tst.w	r2, #1
		p_pio->PIO_PUER = ul_mask;
  400d86:	bf14      	ite	ne
  400d88:	6641      	strne	r1, [r0, #100]	; 0x64
	} else {
		p_pio->PIO_PUDR = ul_mask;
  400d8a:	6601      	streq	r1, [r0, #96]	; 0x60
{
	pio_disable_interrupt(p_pio, ul_mask);
	pio_pull_up(p_pio, ul_mask, ul_attribute & PIO_PULLUP);

	/* Enable Input Filter if necessary */
	if (ul_attribute & (PIO_DEGLITCH | PIO_DEBOUNCE)) {
  400d8c:	f012 0f0a 	tst.w	r2, #10
		p_pio->PIO_IFER = ul_mask;
  400d90:	bf14      	ite	ne
  400d92:	6201      	strne	r1, [r0, #32]
	} else {
		p_pio->PIO_IFDR = ul_mask;
  400d94:	6241      	streq	r1, [r0, #36]	; 0x24
	}

#if (SAM3S || SAM3N || SAM4S || SAM4E || SAM4N || SAM4C || SAMG || SAM4CP || SAM4CM || SAMV71 || SAMV70 || SAME70 || SAMS70)
	/* Enable de-glitch or de-bounce if necessary */
	if (ul_attribute & PIO_DEGLITCH) {
  400d96:	f012 0f02 	tst.w	r2, #2
  400d9a:	d002      	beq.n	400da2 <pio_set_input+0x22>
		p_pio->PIO_IFSCDR = ul_mask;
  400d9c:	f8c0 1080 	str.w	r1, [r0, #128]	; 0x80
  400da0:	e004      	b.n	400dac <pio_set_input+0x2c>
	} else {
		if (ul_attribute & PIO_DEBOUNCE) {
  400da2:	f012 0f08 	tst.w	r2, #8
			p_pio->PIO_IFSCER = ul_mask;
  400da6:	bf18      	it	ne
  400da8:	f8c0 1084 	strne.w	r1, [r0, #132]	; 0x84
#else
#error "Unsupported device"
#endif

	/* Configure pin as input */
	p_pio->PIO_ODR = ul_mask;
  400dac:	6141      	str	r1, [r0, #20]
	p_pio->PIO_PER = ul_mask;
  400dae:	6001      	str	r1, [r0, #0]
  400db0:	4770      	bx	lr
  400db2:	bf00      	nop

00400db4 <pio_set_output>:
 */
void pio_set_output(Pio *p_pio, const uint32_t ul_mask,
		const uint32_t ul_default_level,
		const uint32_t ul_multidrive_enable,
		const uint32_t ul_pull_up_enable)
{
  400db4:	b410      	push	{r4}
 * \param p_pio Pointer to a PIO instance.
 * \param ul_mask Interrupt sources bit map.
 */
void pio_disable_interrupt(Pio *p_pio, const uint32_t ul_mask)
{
	p_pio->PIO_IDR = ul_mask;
  400db6:	6441      	str	r1, [r0, #68]	; 0x44
 */
void pio_pull_up(Pio *p_pio, const uint32_t ul_mask,
		const uint32_t ul_pull_up_enable)
{
	/* Enable the pull-up(s) if necessary */
	if (ul_pull_up_enable) {
  400db8:	9c01      	ldr	r4, [sp, #4]
  400dba:	b10c      	cbz	r4, 400dc0 <pio_set_output+0xc>
		p_pio->PIO_PUER = ul_mask;
  400dbc:	6641      	str	r1, [r0, #100]	; 0x64
  400dbe:	e000      	b.n	400dc2 <pio_set_output+0xe>
	} else {
		p_pio->PIO_PUDR = ul_mask;
  400dc0:	6601      	str	r1, [r0, #96]	; 0x60
{
	pio_disable_interrupt(p_pio, ul_mask);
	pio_pull_up(p_pio, ul_mask, ul_pull_up_enable);

	/* Enable multi-drive if necessary */
	if (ul_multidrive_enable) {
  400dc2:	b10b      	cbz	r3, 400dc8 <pio_set_output+0x14>
		p_pio->PIO_MDER = ul_mask;
  400dc4:	6501      	str	r1, [r0, #80]	; 0x50
  400dc6:	e000      	b.n	400dca <pio_set_output+0x16>
	} else {
		p_pio->PIO_MDDR = ul_mask;
  400dc8:	6541      	str	r1, [r0, #84]	; 0x54
	}

	/* Set default value */
	if (ul_default_level) {
  400dca:	b10a      	cbz	r2, 400dd0 <pio_set_output+0x1c>
		p_pio->PIO_SODR = ul_mask;
  400dcc:	6301      	str	r1, [r0, #48]	; 0x30
  400dce:	e000      	b.n	400dd2 <pio_set_output+0x1e>
	} else {
		p_pio->PIO_CODR = ul_mask;
  400dd0:	6341      	str	r1, [r0, #52]	; 0x34
	}

	/* Configure pin(s) as output(s) */
	p_pio->PIO_OER = ul_mask;
  400dd2:	6101      	str	r1, [r0, #16]
	p_pio->PIO_PER = ul_mask;
  400dd4:	6001      	str	r1, [r0, #0]
}
  400dd6:	f85d 4b04 	ldr.w	r4, [sp], #4
  400dda:	4770      	bx	lr

00400ddc <pio_configure_interrupt>:
 */
void pio_configure_interrupt(Pio *p_pio, const uint32_t ul_mask,
		const uint32_t ul_attr)
{
	/* Configure additional interrupt mode registers. */
	if (ul_attr & PIO_IT_AIME) {
  400ddc:	f012 0f10 	tst.w	r2, #16
  400de0:	d010      	beq.n	400e04 <pio_configure_interrupt+0x28>
		/* Enable additional interrupt mode. */
		p_pio->PIO_AIMER = ul_mask;
  400de2:	f8c0 10b0 	str.w	r1, [r0, #176]	; 0xb0

		/* If bit field of the selected pin is 1, set as
		   Rising Edge/High level detection event. */
		if (ul_attr & PIO_IT_RE_OR_HL) {
  400de6:	f012 0f20 	tst.w	r2, #32
			/* Rising Edge or High Level */
			p_pio->PIO_REHLSR = ul_mask;
  400dea:	bf14      	ite	ne
  400dec:	f8c0 10d4 	strne.w	r1, [r0, #212]	; 0xd4
		} else {
			/* Falling Edge or Low Level */
			p_pio->PIO_FELLSR = ul_mask;
  400df0:	f8c0 10d0 	streq.w	r1, [r0, #208]	; 0xd0
		}

		/* If bit field of the selected pin is 1, set as
		   edge detection source. */
		if (ul_attr & PIO_IT_EDGE) {
  400df4:	f012 0f40 	tst.w	r2, #64	; 0x40
			/* Edge select */
			p_pio->PIO_ESR = ul_mask;
  400df8:	bf14      	ite	ne
  400dfa:	f8c0 10c0 	strne.w	r1, [r0, #192]	; 0xc0
		} else {
			/* Level select */
			p_pio->PIO_LSR = ul_mask;
  400dfe:	f8c0 10c4 	streq.w	r1, [r0, #196]	; 0xc4
  400e02:	4770      	bx	lr
		}
	} else {
		/* Disable additional interrupt mode. */
		p_pio->PIO_AIMDR = ul_mask;
  400e04:	f8c0 10b4 	str.w	r1, [r0, #180]	; 0xb4
  400e08:	4770      	bx	lr
  400e0a:	bf00      	nop

00400e0c <pio_enable_interrupt>:
 * \param p_pio Pointer to a PIO instance.
 * \param ul_mask Interrupt sources bit map.
 */
void pio_enable_interrupt(Pio *p_pio, const uint32_t ul_mask)
{
	p_pio->PIO_ISR;
  400e0c:	6cc3      	ldr	r3, [r0, #76]	; 0x4c
	p_pio->PIO_IER = ul_mask;
  400e0e:	6401      	str	r1, [r0, #64]	; 0x40
  400e10:	4770      	bx	lr
  400e12:	bf00      	nop

00400e14 <pio_get_interrupt_status>:
 *
 * \return The interrupt status mask value.
 */
uint32_t pio_get_interrupt_status(const Pio *p_pio)
{
	return p_pio->PIO_ISR;
  400e14:	6cc0      	ldr	r0, [r0, #76]	; 0x4c
}
  400e16:	4770      	bx	lr

00400e18 <pio_get_interrupt_mask>:
 *
 * \return The interrupt mask value.
 */
uint32_t pio_get_interrupt_mask(const Pio *p_pio)
{
	return p_pio->PIO_IMR;
  400e18:	6c80      	ldr	r0, [r0, #72]	; 0x48
}
  400e1a:	4770      	bx	lr

00400e1c <pio_configure_pin>:
 * \param ul_flags Pins attributes.
 *
 * \return Whether the pin(s) have been configured properly.
 */
uint32_t pio_configure_pin(uint32_t ul_pin, const uint32_t ul_flags)
{
  400e1c:	b570      	push	{r4, r5, r6, lr}
  400e1e:	b082      	sub	sp, #8
  400e20:	460d      	mov	r5, r1
		p_pio = PIOC;
	} else {
		p_pio = (Pio *)((uint32_t)PIOA + (PIO_DELTA * (ul_pin >> 5)));
	}
#else
	p_pio = (Pio *)((uint32_t)PIOA + (PIO_DELTA * (ul_pin >> 5)));
  400e22:	0943      	lsrs	r3, r0, #5
  400e24:	f503 1300 	add.w	r3, r3, #2097152	; 0x200000
  400e28:	f203 7307 	addw	r3, r3, #1799	; 0x707
  400e2c:	025c      	lsls	r4, r3, #9
uint32_t pio_configure_pin(uint32_t ul_pin, const uint32_t ul_flags)
{
	Pio *p_pio = pio_get_pin_group(ul_pin);

	/* Configure pins */
	switch (ul_flags & PIO_TYPE_Msk) {
  400e2e:	f001 43f0 	and.w	r3, r1, #2013265920	; 0x78000000
  400e32:	f1b3 5f00 	cmp.w	r3, #536870912	; 0x20000000
  400e36:	d047      	beq.n	400ec8 <pio_configure_pin+0xac>
  400e38:	d809      	bhi.n	400e4e <pio_configure_pin+0x32>
  400e3a:	f1b3 5f80 	cmp.w	r3, #268435456	; 0x10000000
  400e3e:	d021      	beq.n	400e84 <pio_configure_pin+0x68>
  400e40:	f1b3 5fc0 	cmp.w	r3, #402653184	; 0x18000000
  400e44:	d02f      	beq.n	400ea6 <pio_configure_pin+0x8a>
  400e46:	f1b3 6f00 	cmp.w	r3, #134217728	; 0x8000000
  400e4a:	d16f      	bne.n	400f2c <pio_configure_pin+0x110>
  400e4c:	e009      	b.n	400e62 <pio_configure_pin+0x46>
  400e4e:	f1b3 5f40 	cmp.w	r3, #805306368	; 0x30000000
  400e52:	d055      	beq.n	400f00 <pio_configure_pin+0xe4>
  400e54:	f1b3 5f60 	cmp.w	r3, #939524096	; 0x38000000
  400e58:	d052      	beq.n	400f00 <pio_configure_pin+0xe4>
  400e5a:	f1b3 5f20 	cmp.w	r3, #671088640	; 0x28000000
  400e5e:	d044      	beq.n	400eea <pio_configure_pin+0xce>
  400e60:	e064      	b.n	400f2c <pio_configure_pin+0x110>
	case PIO_TYPE_PIO_PERIPH_A:
		pio_set_peripheral(p_pio, PIO_PERIPH_A, (1 << (ul_pin & 0x1F)));
  400e62:	f000 001f 	and.w	r0, r0, #31
  400e66:	2601      	movs	r6, #1
  400e68:	4086      	lsls	r6, r0
  400e6a:	4620      	mov	r0, r4
  400e6c:	f04f 6100 	mov.w	r1, #134217728	; 0x8000000
  400e70:	4632      	mov	r2, r6
  400e72:	4b30      	ldr	r3, [pc, #192]	; (400f34 <pio_configure_pin+0x118>)
  400e74:	4798      	blx	r3
 */
void pio_pull_up(Pio *p_pio, const uint32_t ul_mask,
		const uint32_t ul_pull_up_enable)
{
	/* Enable the pull-up(s) if necessary */
	if (ul_pull_up_enable) {
  400e76:	f015 0f01 	tst.w	r5, #1
		p_pio->PIO_PUER = ul_mask;
  400e7a:	bf14      	ite	ne
  400e7c:	6666      	strne	r6, [r4, #100]	; 0x64
	} else {
		p_pio->PIO_PUDR = ul_mask;
  400e7e:	6626      	streq	r6, [r4, #96]	; 0x60

	default:
		return 0;
	}

	return 1;
  400e80:	2001      	movs	r0, #1
  400e82:	e054      	b.n	400f2e <pio_configure_pin+0x112>
		pio_set_peripheral(p_pio, PIO_PERIPH_A, (1 << (ul_pin & 0x1F)));
		pio_pull_up(p_pio, (1 << (ul_pin & 0x1F)),
				(ul_flags & PIO_PULLUP));
		break;
	case PIO_TYPE_PIO_PERIPH_B:
		pio_set_peripheral(p_pio, PIO_PERIPH_B, (1 << (ul_pin & 0x1F)));
  400e84:	f000 001f 	and.w	r0, r0, #31
  400e88:	2601      	movs	r6, #1
  400e8a:	4086      	lsls	r6, r0
  400e8c:	4620      	mov	r0, r4
  400e8e:	f04f 5180 	mov.w	r1, #268435456	; 0x10000000
  400e92:	4632      	mov	r2, r6
  400e94:	4b27      	ldr	r3, [pc, #156]	; (400f34 <pio_configure_pin+0x118>)
  400e96:	4798      	blx	r3
 */
void pio_pull_up(Pio *p_pio, const uint32_t ul_mask,
		const uint32_t ul_pull_up_enable)
{
	/* Enable the pull-up(s) if necessary */
	if (ul_pull_up_enable) {
  400e98:	f015 0f01 	tst.w	r5, #1
		p_pio->PIO_PUER = ul_mask;
  400e9c:	bf14      	ite	ne
  400e9e:	6666      	strne	r6, [r4, #100]	; 0x64
	} else {
		p_pio->PIO_PUDR = ul_mask;
  400ea0:	6626      	streq	r6, [r4, #96]	; 0x60

	default:
		return 0;
	}

	return 1;
  400ea2:	2001      	movs	r0, #1
  400ea4:	e043      	b.n	400f2e <pio_configure_pin+0x112>
		pio_pull_up(p_pio, (1 << (ul_pin & 0x1F)),
				(ul_flags & PIO_PULLUP));
		break;
#if (SAM3S || SAM3N || SAM4S || SAM4E || SAM4N || SAM4C || SAM4CP || SAM4CM || SAMV71 || SAMV70 || SAME70 || SAMS70)
	case PIO_TYPE_PIO_PERIPH_C:
		pio_set_peripheral(p_pio, PIO_PERIPH_C, (1 << (ul_pin & 0x1F)));
  400ea6:	f000 001f 	and.w	r0, r0, #31
  400eaa:	2601      	movs	r6, #1
  400eac:	4086      	lsls	r6, r0
  400eae:	4620      	mov	r0, r4
  400eb0:	f04f 51c0 	mov.w	r1, #402653184	; 0x18000000
  400eb4:	4632      	mov	r2, r6
  400eb6:	4b1f      	ldr	r3, [pc, #124]	; (400f34 <pio_configure_pin+0x118>)
  400eb8:	4798      	blx	r3
 */
void pio_pull_up(Pio *p_pio, const uint32_t ul_mask,
		const uint32_t ul_pull_up_enable)
{
	/* Enable the pull-up(s) if necessary */
	if (ul_pull_up_enable) {
  400eba:	f015 0f01 	tst.w	r5, #1
		p_pio->PIO_PUER = ul_mask;
  400ebe:	bf14      	ite	ne
  400ec0:	6666      	strne	r6, [r4, #100]	; 0x64
	} else {
		p_pio->PIO_PUDR = ul_mask;
  400ec2:	6626      	streq	r6, [r4, #96]	; 0x60

	default:
		return 0;
	}

	return 1;
  400ec4:	2001      	movs	r0, #1
  400ec6:	e032      	b.n	400f2e <pio_configure_pin+0x112>
		pio_set_peripheral(p_pio, PIO_PERIPH_C, (1 << (ul_pin & 0x1F)));
		pio_pull_up(p_pio, (1 << (ul_pin & 0x1F)),
				(ul_flags & PIO_PULLUP));
		break;
	case PIO_TYPE_PIO_PERIPH_D:
		pio_set_peripheral(p_pio, PIO_PERIPH_D, (1 << (ul_pin & 0x1F)));
  400ec8:	f000 001f 	and.w	r0, r0, #31
  400ecc:	2601      	movs	r6, #1
  400ece:	4086      	lsls	r6, r0
  400ed0:	4620      	mov	r0, r4
  400ed2:	f04f 5100 	mov.w	r1, #536870912	; 0x20000000
  400ed6:	4632      	mov	r2, r6
  400ed8:	4b16      	ldr	r3, [pc, #88]	; (400f34 <pio_configure_pin+0x118>)
  400eda:	4798      	blx	r3
 */
void pio_pull_up(Pio *p_pio, const uint32_t ul_mask,
		const uint32_t ul_pull_up_enable)
{
	/* Enable the pull-up(s) if necessary */
	if (ul_pull_up_enable) {
  400edc:	f015 0f01 	tst.w	r5, #1
		p_pio->PIO_PUER = ul_mask;
  400ee0:	bf14      	ite	ne
  400ee2:	6666      	strne	r6, [r4, #100]	; 0x64
	} else {
		p_pio->PIO_PUDR = ul_mask;
  400ee4:	6626      	streq	r6, [r4, #96]	; 0x60

	default:
		return 0;
	}

	return 1;
  400ee6:	2001      	movs	r0, #1
  400ee8:	e021      	b.n	400f2e <pio_configure_pin+0x112>
				(ul_flags & PIO_PULLUP));
		break;
#endif

	case PIO_TYPE_PIO_INPUT:
		pio_set_input(p_pio, (1 << (ul_pin & 0x1F)), ul_flags);
  400eea:	f000 031f 	and.w	r3, r0, #31
  400eee:	2601      	movs	r6, #1
  400ef0:	4620      	mov	r0, r4
  400ef2:	fa06 f103 	lsl.w	r1, r6, r3
  400ef6:	462a      	mov	r2, r5
  400ef8:	4b0f      	ldr	r3, [pc, #60]	; (400f38 <pio_configure_pin+0x11c>)
  400efa:	4798      	blx	r3

	default:
		return 0;
	}

	return 1;
  400efc:	4630      	mov	r0, r6
		break;
#endif

	case PIO_TYPE_PIO_INPUT:
		pio_set_input(p_pio, (1 << (ul_pin & 0x1F)), ul_flags);
		break;
  400efe:	e016      	b.n	400f2e <pio_configure_pin+0x112>

	case PIO_TYPE_PIO_OUTPUT_0:
	case PIO_TYPE_PIO_OUTPUT_1:
		pio_set_output(p_pio, (1 << (ul_pin & 0x1F)),
  400f00:	f000 031f 	and.w	r3, r0, #31
  400f04:	2601      	movs	r6, #1
				((ul_flags & PIO_TYPE_PIO_OUTPUT_1)
  400f06:	f005 5260 	and.w	r2, r5, #939524096	; 0x38000000
		pio_set_input(p_pio, (1 << (ul_pin & 0x1F)), ul_flags);
		break;

	case PIO_TYPE_PIO_OUTPUT_0:
	case PIO_TYPE_PIO_OUTPUT_1:
		pio_set_output(p_pio, (1 << (ul_pin & 0x1F)),
  400f0a:	ea05 0106 	and.w	r1, r5, r6
  400f0e:	9100      	str	r1, [sp, #0]
  400f10:	4620      	mov	r0, r4
  400f12:	fa06 f103 	lsl.w	r1, r6, r3
  400f16:	f1b2 5f60 	cmp.w	r2, #939524096	; 0x38000000
  400f1a:	bf14      	ite	ne
  400f1c:	2200      	movne	r2, #0
  400f1e:	2201      	moveq	r2, #1
  400f20:	f3c5 0380 	ubfx	r3, r5, #2, #1
  400f24:	4c05      	ldr	r4, [pc, #20]	; (400f3c <pio_configure_pin+0x120>)
  400f26:	47a0      	blx	r4

	default:
		return 0;
	}

	return 1;
  400f28:	4630      	mov	r0, r6
		pio_set_output(p_pio, (1 << (ul_pin & 0x1F)),
				((ul_flags & PIO_TYPE_PIO_OUTPUT_1)
				== PIO_TYPE_PIO_OUTPUT_1) ? 1 : 0,
				(ul_flags & PIO_OPENDRAIN) ? 1 : 0,
				(ul_flags & PIO_PULLUP) ? 1 : 0);
		break;
  400f2a:	e000      	b.n	400f2e <pio_configure_pin+0x112>

	default:
		return 0;
  400f2c:	2000      	movs	r0, #0
	}

	return 1;
}
  400f2e:	b002      	add	sp, #8
  400f30:	bd70      	pop	{r4, r5, r6, pc}
  400f32:	bf00      	nop
  400f34:	00400ced 	.word	0x00400ced
  400f38:	00400d81 	.word	0x00400d81
  400f3c:	00400db5 	.word	0x00400db5

00400f40 <pio_configure_pin_group>:
 *
 * \return Whether the pin(s) have been configured properly.
 */
uint32_t pio_configure_pin_group(Pio *p_pio,
		uint32_t ul_mask, const uint32_t ul_flags)
{
  400f40:	b570      	push	{r4, r5, r6, lr}
  400f42:	b082      	sub	sp, #8
  400f44:	4606      	mov	r6, r0
  400f46:	460d      	mov	r5, r1
  400f48:	4614      	mov	r4, r2
	/* Configure pins */
	switch (ul_flags & PIO_TYPE_Msk) {
  400f4a:	f002 43f0 	and.w	r3, r2, #2013265920	; 0x78000000
  400f4e:	f1b3 5f00 	cmp.w	r3, #536870912	; 0x20000000
  400f52:	d038      	beq.n	400fc6 <pio_configure_pin_group+0x86>
  400f54:	d809      	bhi.n	400f6a <pio_configure_pin_group+0x2a>
  400f56:	f1b3 5f80 	cmp.w	r3, #268435456	; 0x10000000
  400f5a:	d01c      	beq.n	400f96 <pio_configure_pin_group+0x56>
  400f5c:	f1b3 5fc0 	cmp.w	r3, #402653184	; 0x18000000
  400f60:	d025      	beq.n	400fae <pio_configure_pin_group+0x6e>
  400f62:	f1b3 6f00 	cmp.w	r3, #134217728	; 0x8000000
  400f66:	d150      	bne.n	40100a <pio_configure_pin_group+0xca>
  400f68:	e009      	b.n	400f7e <pio_configure_pin_group+0x3e>
  400f6a:	f1b3 5f40 	cmp.w	r3, #805306368	; 0x30000000
  400f6e:	d03a      	beq.n	400fe6 <pio_configure_pin_group+0xa6>
  400f70:	f1b3 5f60 	cmp.w	r3, #939524096	; 0x38000000
  400f74:	d037      	beq.n	400fe6 <pio_configure_pin_group+0xa6>
  400f76:	f1b3 5f20 	cmp.w	r3, #671088640	; 0x28000000
  400f7a:	d030      	beq.n	400fde <pio_configure_pin_group+0x9e>
  400f7c:	e045      	b.n	40100a <pio_configure_pin_group+0xca>
	case PIO_TYPE_PIO_PERIPH_A:
		pio_set_peripheral(p_pio, PIO_PERIPH_A, ul_mask);
  400f7e:	f04f 6100 	mov.w	r1, #134217728	; 0x8000000
  400f82:	462a      	mov	r2, r5
  400f84:	4b22      	ldr	r3, [pc, #136]	; (401010 <pio_configure_pin_group+0xd0>)
  400f86:	4798      	blx	r3
 */
void pio_pull_up(Pio *p_pio, const uint32_t ul_mask,
		const uint32_t ul_pull_up_enable)
{
	/* Enable the pull-up(s) if necessary */
	if (ul_pull_up_enable) {
  400f88:	f014 0f01 	tst.w	r4, #1
		p_pio->PIO_PUER = ul_mask;
  400f8c:	bf14      	ite	ne
  400f8e:	6675      	strne	r5, [r6, #100]	; 0x64
	} else {
		p_pio->PIO_PUDR = ul_mask;
  400f90:	6635      	streq	r5, [r6, #96]	; 0x60

	default:
		return 0;
	}

	return 1;
  400f92:	2001      	movs	r0, #1
  400f94:	e03a      	b.n	40100c <pio_configure_pin_group+0xcc>
	case PIO_TYPE_PIO_PERIPH_A:
		pio_set_peripheral(p_pio, PIO_PERIPH_A, ul_mask);
		pio_pull_up(p_pio, ul_mask, (ul_flags & PIO_PULLUP));
		break;
	case PIO_TYPE_PIO_PERIPH_B:
		pio_set_peripheral(p_pio, PIO_PERIPH_B, ul_mask);
  400f96:	f04f 5180 	mov.w	r1, #268435456	; 0x10000000
  400f9a:	462a      	mov	r2, r5
  400f9c:	4b1c      	ldr	r3, [pc, #112]	; (401010 <pio_configure_pin_group+0xd0>)
  400f9e:	4798      	blx	r3
 */
void pio_pull_up(Pio *p_pio, const uint32_t ul_mask,
		const uint32_t ul_pull_up_enable)
{
	/* Enable the pull-up(s) if necessary */
	if (ul_pull_up_enable) {
  400fa0:	f014 0f01 	tst.w	r4, #1
		p_pio->PIO_PUER = ul_mask;
  400fa4:	bf14      	ite	ne
  400fa6:	6675      	strne	r5, [r6, #100]	; 0x64
	} else {
		p_pio->PIO_PUDR = ul_mask;
  400fa8:	6635      	streq	r5, [r6, #96]	; 0x60

	default:
		return 0;
	}

	return 1;
  400faa:	2001      	movs	r0, #1
  400fac:	e02e      	b.n	40100c <pio_configure_pin_group+0xcc>
		pio_set_peripheral(p_pio, PIO_PERIPH_B, ul_mask);
		pio_pull_up(p_pio, ul_mask, (ul_flags & PIO_PULLUP));
		break;
#if (SAM3S || SAM3N || SAM4S || SAM4E || SAM4N || SAM4C || SAM4CP || SAM4CM || SAMV71 || SAMV70 || SAME70 || SAMS70)
	case PIO_TYPE_PIO_PERIPH_C:
		pio_set_peripheral(p_pio, PIO_PERIPH_C, ul_mask);
  400fae:	f04f 51c0 	mov.w	r1, #402653184	; 0x18000000
  400fb2:	462a      	mov	r2, r5
  400fb4:	4b16      	ldr	r3, [pc, #88]	; (401010 <pio_configure_pin_group+0xd0>)
  400fb6:	4798      	blx	r3
 */
void pio_pull_up(Pio *p_pio, const uint32_t ul_mask,
		const uint32_t ul_pull_up_enable)
{
	/* Enable the pull-up(s) if necessary */
	if (ul_pull_up_enable) {
  400fb8:	f014 0f01 	tst.w	r4, #1
		p_pio->PIO_PUER = ul_mask;
  400fbc:	bf14      	ite	ne
  400fbe:	6675      	strne	r5, [r6, #100]	; 0x64
	} else {
		p_pio->PIO_PUDR = ul_mask;
  400fc0:	6635      	streq	r5, [r6, #96]	; 0x60

	default:
		return 0;
	}

	return 1;
  400fc2:	2001      	movs	r0, #1
  400fc4:	e022      	b.n	40100c <pio_configure_pin_group+0xcc>
	case PIO_TYPE_PIO_PERIPH_C:
		pio_set_peripheral(p_pio, PIO_PERIPH_C, ul_mask);
		pio_pull_up(p_pio, ul_mask, (ul_flags & PIO_PULLUP));
		break;
	case PIO_TYPE_PIO_PERIPH_D:
		pio_set_peripheral(p_pio, PIO_PERIPH_D, ul_mask);
  400fc6:	f04f 5100 	mov.w	r1, #536870912	; 0x20000000
  400fca:	462a      	mov	r2, r5
  400fcc:	4b10      	ldr	r3, [pc, #64]	; (401010 <pio_configure_pin_group+0xd0>)
  400fce:	4798      	blx	r3
 */
void pio_pull_up(Pio *p_pio, const uint32_t ul_mask,
		const uint32_t ul_pull_up_enable)
{
	/* Enable the pull-up(s) if necessary */
	if (ul_pull_up_enable) {
  400fd0:	f014 0f01 	tst.w	r4, #1
		p_pio->PIO_PUER = ul_mask;
  400fd4:	bf14      	ite	ne
  400fd6:	6675      	strne	r5, [r6, #100]	; 0x64
	} else {
		p_pio->PIO_PUDR = ul_mask;
  400fd8:	6635      	streq	r5, [r6, #96]	; 0x60

	default:
		return 0;
	}

	return 1;
  400fda:	2001      	movs	r0, #1
  400fdc:	e016      	b.n	40100c <pio_configure_pin_group+0xcc>
		pio_pull_up(p_pio, ul_mask, (ul_flags & PIO_PULLUP));
		break;
#endif

	case PIO_TYPE_PIO_INPUT:
		pio_set_input(p_pio, ul_mask, ul_flags);
  400fde:	4b0d      	ldr	r3, [pc, #52]	; (401014 <pio_configure_pin_group+0xd4>)
  400fe0:	4798      	blx	r3

	default:
		return 0;
	}

	return 1;
  400fe2:	2001      	movs	r0, #1
		break;
#endif

	case PIO_TYPE_PIO_INPUT:
		pio_set_input(p_pio, ul_mask, ul_flags);
		break;
  400fe4:	e012      	b.n	40100c <pio_configure_pin_group+0xcc>

	case PIO_TYPE_PIO_OUTPUT_0:
	case PIO_TYPE_PIO_OUTPUT_1:
		pio_set_output(p_pio, ul_mask,
				((ul_flags & PIO_TYPE_PIO_OUTPUT_1)
  400fe6:	f004 5260 	and.w	r2, r4, #939524096	; 0x38000000
		pio_set_input(p_pio, ul_mask, ul_flags);
		break;

	case PIO_TYPE_PIO_OUTPUT_0:
	case PIO_TYPE_PIO_OUTPUT_1:
		pio_set_output(p_pio, ul_mask,
  400fea:	f004 0301 	and.w	r3, r4, #1
  400fee:	9300      	str	r3, [sp, #0]
  400ff0:	4630      	mov	r0, r6
  400ff2:	4629      	mov	r1, r5
  400ff4:	f1b2 5f60 	cmp.w	r2, #939524096	; 0x38000000
  400ff8:	bf14      	ite	ne
  400ffa:	2200      	movne	r2, #0
  400ffc:	2201      	moveq	r2, #1
  400ffe:	f3c4 0380 	ubfx	r3, r4, #2, #1
  401002:	4c05      	ldr	r4, [pc, #20]	; (401018 <pio_configure_pin_group+0xd8>)
  401004:	47a0      	blx	r4

	default:
		return 0;
	}

	return 1;
  401006:	2001      	movs	r0, #1
		pio_set_output(p_pio, ul_mask,
				((ul_flags & PIO_TYPE_PIO_OUTPUT_1)
				== PIO_TYPE_PIO_OUTPUT_1) ? 1 : 0,
				(ul_flags & PIO_OPENDRAIN) ? 1 : 0,
				(ul_flags & PIO_PULLUP) ? 1 : 0);
		break;
  401008:	e000      	b.n	40100c <pio_configure_pin_group+0xcc>

	default:
		return 0;
  40100a:	2000      	movs	r0, #0
	}

	return 1;
}
  40100c:	b002      	add	sp, #8
  40100e:	bd70      	pop	{r4, r5, r6, pc}
  401010:	00400ced 	.word	0x00400ced
  401014:	00400d81 	.word	0x00400d81
  401018:	00400db5 	.word	0x00400db5

0040101c <pio_handler_process>:
 *
 * \param p_pio PIO controller base address.
 * \param ul_id PIO controller ID.
 */
void pio_handler_process(Pio *p_pio, uint32_t ul_id)
{
  40101c:	e92d 43f8 	stmdb	sp!, {r3, r4, r5, r6, r7, r8, r9, lr}
  401020:	4681      	mov	r9, r0
  401022:	4688      	mov	r8, r1
	uint32_t status;
	uint32_t i;

	/* Read PIO controller status */
	status = pio_get_interrupt_status(p_pio);
  401024:	4b12      	ldr	r3, [pc, #72]	; (401070 <pio_handler_process+0x54>)
  401026:	4798      	blx	r3
  401028:	4605      	mov	r5, r0
	status &= pio_get_interrupt_mask(p_pio);
  40102a:	4648      	mov	r0, r9
  40102c:	4b11      	ldr	r3, [pc, #68]	; (401074 <pio_handler_process+0x58>)
  40102e:	4798      	blx	r3

	/* Check pending events */
	if (status != 0) {
  401030:	4005      	ands	r5, r0
  401032:	d013      	beq.n	40105c <pio_handler_process+0x40>
  401034:	4c10      	ldr	r4, [pc, #64]	; (401078 <pio_handler_process+0x5c>)
  401036:	f104 0660 	add.w	r6, r4, #96	; 0x60
		/* Find triggering source */
		i = 0;
		while (status != 0) {
			/* Source is configured on the same controller */
			if (gs_interrupt_sources[i].id == ul_id) {
  40103a:	6823      	ldr	r3, [r4, #0]
  40103c:	4543      	cmp	r3, r8
  40103e:	d108      	bne.n	401052 <pio_handler_process+0x36>
				/* Source has PIOs whose statuses have changed */
				if ((status & gs_interrupt_sources[i].mask) != 0) {
  401040:	6861      	ldr	r1, [r4, #4]
  401042:	4229      	tst	r1, r5
  401044:	d005      	beq.n	401052 <pio_handler_process+0x36>
					gs_interrupt_sources[i].handler(gs_interrupt_sources[i].id,
  401046:	68e3      	ldr	r3, [r4, #12]
  401048:	4640      	mov	r0, r8
  40104a:	4798      	blx	r3
							gs_interrupt_sources[i].mask);
					status &= ~(gs_interrupt_sources[i].mask);
  40104c:	6863      	ldr	r3, [r4, #4]
  40104e:	ea25 0503 	bic.w	r5, r5, r3
				}
			}
			i++;
			if (i >= MAX_INTERRUPT_SOURCES) {
  401052:	42b4      	cmp	r4, r6
  401054:	d002      	beq.n	40105c <pio_handler_process+0x40>
  401056:	3410      	adds	r4, #16

	/* Check pending events */
	if (status != 0) {
		/* Find triggering source */
		i = 0;
		while (status != 0) {
  401058:	2d00      	cmp	r5, #0
  40105a:	d1ee      	bne.n	40103a <pio_handler_process+0x1e>
		}
	}

	/* Check capture events */
#if (SAM3S || SAM4S || SAM4E)
	if (pio_capture_enable_flag) {
  40105c:	4b07      	ldr	r3, [pc, #28]	; (40107c <pio_handler_process+0x60>)
  40105e:	681b      	ldr	r3, [r3, #0]
  401060:	b123      	cbz	r3, 40106c <pio_handler_process+0x50>
		if (pio_capture_handler) {
  401062:	4b07      	ldr	r3, [pc, #28]	; (401080 <pio_handler_process+0x64>)
  401064:	681b      	ldr	r3, [r3, #0]
  401066:	b10b      	cbz	r3, 40106c <pio_handler_process+0x50>
			pio_capture_handler(p_pio);
  401068:	4648      	mov	r0, r9
  40106a:	4798      	blx	r3
  40106c:	e8bd 83f8 	ldmia.w	sp!, {r3, r4, r5, r6, r7, r8, r9, pc}
  401070:	00400e15 	.word	0x00400e15
  401074:	00400e19 	.word	0x00400e19
  401078:	20000c6c 	.word	0x20000c6c
  40107c:	20000d1c 	.word	0x20000d1c
  401080:	20000c68 	.word	0x20000c68

00401084 <pio_handler_set>:
 *
 * \return 0 if successful, 1 if the maximum number of sources has been defined.
 */
uint32_t pio_handler_set(Pio *p_pio, uint32_t ul_id, uint32_t ul_mask,
		uint32_t ul_attr, void (*p_handler) (uint32_t, uint32_t))
{
  401084:	b5f8      	push	{r3, r4, r5, r6, r7, lr}
	struct s_interrupt_source *pSource;

	if (gs_ul_nb_sources >= MAX_INTERRUPT_SOURCES)
  401086:	4c0c      	ldr	r4, [pc, #48]	; (4010b8 <pio_handler_set+0x34>)
  401088:	6824      	ldr	r4, [r4, #0]
  40108a:	2c06      	cmp	r4, #6
  40108c:	d811      	bhi.n	4010b2 <pio_handler_set+0x2e>
  40108e:	4615      	mov	r5, r2
		return 1;

	/* Define new source */
	pSource = &(gs_interrupt_sources[gs_ul_nb_sources]);
	pSource->id = ul_id;
  401090:	4f0a      	ldr	r7, [pc, #40]	; (4010bc <pio_handler_set+0x38>)
  401092:	0122      	lsls	r2, r4, #4
  401094:	18be      	adds	r6, r7, r2
  401096:	50b9      	str	r1, [r7, r2]
	pSource->mask = ul_mask;
  401098:	6075      	str	r5, [r6, #4]
	pSource->attr = ul_attr;
  40109a:	60b3      	str	r3, [r6, #8]
	pSource->handler = p_handler;
  40109c:	9a06      	ldr	r2, [sp, #24]
  40109e:	60f2      	str	r2, [r6, #12]
	gs_ul_nb_sources++;
  4010a0:	3401      	adds	r4, #1
  4010a2:	4a05      	ldr	r2, [pc, #20]	; (4010b8 <pio_handler_set+0x34>)
  4010a4:	6014      	str	r4, [r2, #0]

	/* Configure interrupt mode */
	pio_configure_interrupt(p_pio, ul_mask, ul_attr);
  4010a6:	4629      	mov	r1, r5
  4010a8:	461a      	mov	r2, r3
  4010aa:	4b05      	ldr	r3, [pc, #20]	; (4010c0 <pio_handler_set+0x3c>)
  4010ac:	4798      	blx	r3

	return 0;
  4010ae:	2000      	movs	r0, #0
  4010b0:	bdf8      	pop	{r3, r4, r5, r6, r7, pc}
		uint32_t ul_attr, void (*p_handler) (uint32_t, uint32_t))
{
	struct s_interrupt_source *pSource;

	if (gs_ul_nb_sources >= MAX_INTERRUPT_SOURCES)
		return 1;
  4010b2:	2001      	movs	r0, #1

	/* Configure interrupt mode */
	pio_configure_interrupt(p_pio, ul_mask, ul_attr);

	return 0;
}
  4010b4:	bdf8      	pop	{r3, r4, r5, r6, r7, pc}
  4010b6:	bf00      	nop
  4010b8:	20000c64 	.word	0x20000c64
  4010bc:	20000c6c 	.word	0x20000c6c
  4010c0:	00400ddd 	.word	0x00400ddd

004010c4 <PIOA_Handler>:
/**
 * \brief Parallel IO Controller A interrupt handler.
 * Redefined PIOA interrupt handler for NVIC interrupt table.
 */
void PIOA_Handler(void)
{
  4010c4:	b508      	push	{r3, lr}
	pio_handler_process(PIOA, ID_PIOA);
  4010c6:	4802      	ldr	r0, [pc, #8]	; (4010d0 <PIOA_Handler+0xc>)
  4010c8:	210b      	movs	r1, #11
  4010ca:	4b02      	ldr	r3, [pc, #8]	; (4010d4 <PIOA_Handler+0x10>)
  4010cc:	4798      	blx	r3
  4010ce:	bd08      	pop	{r3, pc}
  4010d0:	400e0e00 	.word	0x400e0e00
  4010d4:	0040101d 	.word	0x0040101d

004010d8 <PIOB_Handler>:
/**
 * \brief Parallel IO Controller B interrupt handler
 * Redefined PIOB interrupt handler for NVIC interrupt table.
 */
void PIOB_Handler(void)
{
  4010d8:	b508      	push	{r3, lr}
    pio_handler_process(PIOB, ID_PIOB);
  4010da:	4802      	ldr	r0, [pc, #8]	; (4010e4 <PIOB_Handler+0xc>)
  4010dc:	210c      	movs	r1, #12
  4010de:	4b02      	ldr	r3, [pc, #8]	; (4010e8 <PIOB_Handler+0x10>)
  4010e0:	4798      	blx	r3
  4010e2:	bd08      	pop	{r3, pc}
  4010e4:	400e1000 	.word	0x400e1000
  4010e8:	0040101d 	.word	0x0040101d

004010ec <PIOC_Handler>:
/**
 * \brief Parallel IO Controller C interrupt handler.
 * Redefined PIOC interrupt handler for NVIC interrupt table.
 */
void PIOC_Handler(void)
{
  4010ec:	b508      	push	{r3, lr}
	pio_handler_process(PIOC, ID_PIOC);
  4010ee:	4802      	ldr	r0, [pc, #8]	; (4010f8 <PIOC_Handler+0xc>)
  4010f0:	210d      	movs	r1, #13
  4010f2:	4b02      	ldr	r3, [pc, #8]	; (4010fc <PIOC_Handler+0x10>)
  4010f4:	4798      	blx	r3
  4010f6:	bd08      	pop	{r3, pc}
  4010f8:	400e1200 	.word	0x400e1200
  4010fc:	0040101d 	.word	0x0040101d

00401100 <pmc_switch_mck_to_pllack>:
 */
uint32_t pmc_switch_mck_to_pllack(uint32_t ul_pres)
{
	uint32_t ul_timeout;

	PMC->PMC_MCKR = (PMC->PMC_MCKR & (~PMC_MCKR_PRES_Msk)) | ul_pres;
  401100:	4a18      	ldr	r2, [pc, #96]	; (401164 <pmc_switch_mck_to_pllack+0x64>)
  401102:	6b13      	ldr	r3, [r2, #48]	; 0x30
  401104:	f023 0370 	bic.w	r3, r3, #112	; 0x70
  401108:	4318      	orrs	r0, r3
  40110a:	6310      	str	r0, [r2, #48]	; 0x30
	for (ul_timeout = PMC_TIMEOUT; !(PMC->PMC_SR & PMC_SR_MCKRDY);
  40110c:	6e93      	ldr	r3, [r2, #104]	; 0x68
  40110e:	f013 0f08 	tst.w	r3, #8
  401112:	d003      	beq.n	40111c <pmc_switch_mck_to_pllack+0x1c>
  401114:	e009      	b.n	40112a <pmc_switch_mck_to_pllack+0x2a>
			--ul_timeout) {
		if (ul_timeout == 0) {
  401116:	3b01      	subs	r3, #1
  401118:	d103      	bne.n	401122 <pmc_switch_mck_to_pllack+0x22>
  40111a:	e01e      	b.n	40115a <pmc_switch_mck_to_pllack+0x5a>
uint32_t pmc_switch_mck_to_pllack(uint32_t ul_pres)
{
	uint32_t ul_timeout;

	PMC->PMC_MCKR = (PMC->PMC_MCKR & (~PMC_MCKR_PRES_Msk)) | ul_pres;
	for (ul_timeout = PMC_TIMEOUT; !(PMC->PMC_SR & PMC_SR_MCKRDY);
  40111c:	f44f 6300 	mov.w	r3, #2048	; 0x800
  401120:	4910      	ldr	r1, [pc, #64]	; (401164 <pmc_switch_mck_to_pllack+0x64>)
  401122:	6e8a      	ldr	r2, [r1, #104]	; 0x68
  401124:	f012 0f08 	tst.w	r2, #8
  401128:	d0f5      	beq.n	401116 <pmc_switch_mck_to_pllack+0x16>
		if (ul_timeout == 0) {
			return 1;
		}
	}

	PMC->PMC_MCKR = (PMC->PMC_MCKR & (~PMC_MCKR_CSS_Msk)) |
  40112a:	4a0e      	ldr	r2, [pc, #56]	; (401164 <pmc_switch_mck_to_pllack+0x64>)
  40112c:	6b13      	ldr	r3, [r2, #48]	; 0x30
  40112e:	f023 0303 	bic.w	r3, r3, #3
  401132:	f043 0302 	orr.w	r3, r3, #2
  401136:	6313      	str	r3, [r2, #48]	; 0x30
			PMC_MCKR_CSS_PLLA_CLK;

	for (ul_timeout = PMC_TIMEOUT; !(PMC->PMC_SR & PMC_SR_MCKRDY);
  401138:	6e90      	ldr	r0, [r2, #104]	; 0x68
  40113a:	f010 0008 	ands.w	r0, r0, #8
  40113e:	d004      	beq.n	40114a <pmc_switch_mck_to_pllack+0x4a>
		if (ul_timeout == 0) {
			return 1;
		}
	}

	return 0;
  401140:	2000      	movs	r0, #0
  401142:	4770      	bx	lr
	PMC->PMC_MCKR = (PMC->PMC_MCKR & (~PMC_MCKR_CSS_Msk)) |
			PMC_MCKR_CSS_PLLA_CLK;

	for (ul_timeout = PMC_TIMEOUT; !(PMC->PMC_SR & PMC_SR_MCKRDY);
			--ul_timeout) {
		if (ul_timeout == 0) {
  401144:	3b01      	subs	r3, #1
  401146:	d103      	bne.n	401150 <pmc_switch_mck_to_pllack+0x50>
  401148:	e009      	b.n	40115e <pmc_switch_mck_to_pllack+0x5e>
	}

	PMC->PMC_MCKR = (PMC->PMC_MCKR & (~PMC_MCKR_CSS_Msk)) |
			PMC_MCKR_CSS_PLLA_CLK;

	for (ul_timeout = PMC_TIMEOUT; !(PMC->PMC_SR & PMC_SR_MCKRDY);
  40114a:	f44f 6300 	mov.w	r3, #2048	; 0x800
  40114e:	4905      	ldr	r1, [pc, #20]	; (401164 <pmc_switch_mck_to_pllack+0x64>)
  401150:	6e8a      	ldr	r2, [r1, #104]	; 0x68
  401152:	f012 0f08 	tst.w	r2, #8
  401156:	d0f5      	beq.n	401144 <pmc_switch_mck_to_pllack+0x44>
  401158:	4770      	bx	lr

	PMC->PMC_MCKR = (PMC->PMC_MCKR & (~PMC_MCKR_PRES_Msk)) | ul_pres;
	for (ul_timeout = PMC_TIMEOUT; !(PMC->PMC_SR & PMC_SR_MCKRDY);
			--ul_timeout) {
		if (ul_timeout == 0) {
			return 1;
  40115a:	2001      	movs	r0, #1
  40115c:	4770      	bx	lr
			PMC_MCKR_CSS_PLLA_CLK;

	for (ul_timeout = PMC_TIMEOUT; !(PMC->PMC_SR & PMC_SR_MCKRDY);
			--ul_timeout) {
		if (ul_timeout == 0) {
			return 1;
  40115e:	2001      	movs	r0, #1
		}
	}

	return 0;
}
  401160:	4770      	bx	lr
  401162:	bf00      	nop
  401164:	400e0400 	.word	0x400e0400

00401168 <pmc_switch_mainck_to_xtal>:
 */
void pmc_switch_mainck_to_xtal(uint32_t ul_bypass,
		uint32_t ul_xtal_startup_time)
{
	/* Enable Main Xtal oscillator */
	if (ul_bypass) {
  401168:	b138      	cbz	r0, 40117a <pmc_switch_mainck_to_xtal+0x12>
		PMC->CKGR_MOR = (PMC->CKGR_MOR & ~CKGR_MOR_MOSCXTEN) |
  40116a:	4911      	ldr	r1, [pc, #68]	; (4011b0 <pmc_switch_mainck_to_xtal+0x48>)
  40116c:	6a0b      	ldr	r3, [r1, #32]
				CKGR_MOR_KEY_PASSWD | CKGR_MOR_MOSCXTBY |
  40116e:	4a11      	ldr	r2, [pc, #68]	; (4011b4 <pmc_switch_mainck_to_xtal+0x4c>)
  401170:	401a      	ands	r2, r3
  401172:	4b11      	ldr	r3, [pc, #68]	; (4011b8 <pmc_switch_mainck_to_xtal+0x50>)
  401174:	4313      	orrs	r3, r2
void pmc_switch_mainck_to_xtal(uint32_t ul_bypass,
		uint32_t ul_xtal_startup_time)
{
	/* Enable Main Xtal oscillator */
	if (ul_bypass) {
		PMC->CKGR_MOR = (PMC->CKGR_MOR & ~CKGR_MOR_MOSCXTEN) |
  401176:	620b      	str	r3, [r1, #32]
  401178:	4770      	bx	lr
				CKGR_MOR_KEY_PASSWD | CKGR_MOR_MOSCXTBY |
				CKGR_MOR_MOSCSEL;
	} else {
		PMC->CKGR_MOR = (PMC->CKGR_MOR & ~CKGR_MOR_MOSCXTBY) |
  40117a:	4a0d      	ldr	r2, [pc, #52]	; (4011b0 <pmc_switch_mainck_to_xtal+0x48>)
  40117c:	6a13      	ldr	r3, [r2, #32]
				CKGR_MOR_KEY_PASSWD | CKGR_MOR_MOSCXTEN |
  40117e:	f423 135c 	bic.w	r3, r3, #3604480	; 0x370000
  401182:	f023 0303 	bic.w	r3, r3, #3
  401186:	f443 135c 	orr.w	r3, r3, #3604480	; 0x370000
  40118a:	f043 0301 	orr.w	r3, r3, #1
				CKGR_MOR_MOSCXTST(ul_xtal_startup_time);
  40118e:	0209      	lsls	r1, r1, #8
  401190:	b289      	uxth	r1, r1
		PMC->CKGR_MOR = (PMC->CKGR_MOR & ~CKGR_MOR_MOSCXTEN) |
				CKGR_MOR_KEY_PASSWD | CKGR_MOR_MOSCXTBY |
				CKGR_MOR_MOSCSEL;
	} else {
		PMC->CKGR_MOR = (PMC->CKGR_MOR & ~CKGR_MOR_MOSCXTBY) |
				CKGR_MOR_KEY_PASSWD | CKGR_MOR_MOSCXTEN |
  401192:	430b      	orrs	r3, r1
	if (ul_bypass) {
		PMC->CKGR_MOR = (PMC->CKGR_MOR & ~CKGR_MOR_MOSCXTEN) |
				CKGR_MOR_KEY_PASSWD | CKGR_MOR_MOSCXTBY |
				CKGR_MOR_MOSCSEL;
	} else {
		PMC->CKGR_MOR = (PMC->CKGR_MOR & ~CKGR_MOR_MOSCXTBY) |
  401194:	6213      	str	r3, [r2, #32]
				CKGR_MOR_KEY_PASSWD | CKGR_MOR_MOSCXTEN |
				CKGR_MOR_MOSCXTST(ul_xtal_startup_time);
		/* Wait the Xtal to stabilize */
		while (!(PMC->PMC_SR & PMC_SR_MOSCXTS));
  401196:	6e93      	ldr	r3, [r2, #104]	; 0x68
  401198:	f013 0f01 	tst.w	r3, #1
  40119c:	d0fb      	beq.n	401196 <pmc_switch_mainck_to_xtal+0x2e>

		PMC->CKGR_MOR |= CKGR_MOR_KEY_PASSWD | CKGR_MOR_MOSCSEL;
  40119e:	4a04      	ldr	r2, [pc, #16]	; (4011b0 <pmc_switch_mainck_to_xtal+0x48>)
  4011a0:	6a13      	ldr	r3, [r2, #32]
  4011a2:	f043 739b 	orr.w	r3, r3, #20316160	; 0x1360000
  4011a6:	f443 3380 	orr.w	r3, r3, #65536	; 0x10000
  4011aa:	6213      	str	r3, [r2, #32]
  4011ac:	4770      	bx	lr
  4011ae:	bf00      	nop
  4011b0:	400e0400 	.word	0x400e0400
  4011b4:	fec8fffc 	.word	0xfec8fffc
  4011b8:	01370002 	.word	0x01370002

004011bc <pmc_osc_is_ready_mainck>:
 * \retval 1 Xtal is ready.
 * \retval 0 Xtal is not ready.
 */
uint32_t pmc_osc_is_ready_mainck(void)
{
	return PMC->PMC_SR & PMC_SR_MOSCSELS;
  4011bc:	4b02      	ldr	r3, [pc, #8]	; (4011c8 <pmc_osc_is_ready_mainck+0xc>)
  4011be:	6e98      	ldr	r0, [r3, #104]	; 0x68
}
  4011c0:	f400 3080 	and.w	r0, r0, #65536	; 0x10000
  4011c4:	4770      	bx	lr
  4011c6:	bf00      	nop
  4011c8:	400e0400 	.word	0x400e0400

004011cc <pmc_disable_pllack>:
void pmc_disable_pllack(void)
{
#if (SAM4C || SAM4CM || SAM4CP || SAMG)
	PMC->CKGR_PLLAR = CKGR_PLLAR_MULA(0);
#else
	PMC->CKGR_PLLAR = CKGR_PLLAR_ONE | CKGR_PLLAR_MULA(0);
  4011cc:	f04f 5200 	mov.w	r2, #536870912	; 0x20000000
  4011d0:	4b01      	ldr	r3, [pc, #4]	; (4011d8 <pmc_disable_pllack+0xc>)
  4011d2:	629a      	str	r2, [r3, #40]	; 0x28
  4011d4:	4770      	bx	lr
  4011d6:	bf00      	nop
  4011d8:	400e0400 	.word	0x400e0400

004011dc <pmc_is_locked_pllack>:
 * \retval 0 Not locked.
 * \retval 1 Locked.
 */
uint32_t pmc_is_locked_pllack(void)
{
	return (PMC->PMC_SR & PMC_SR_LOCKA);
  4011dc:	4b02      	ldr	r3, [pc, #8]	; (4011e8 <pmc_is_locked_pllack+0xc>)
  4011de:	6e98      	ldr	r0, [r3, #104]	; 0x68
}
  4011e0:	f000 0002 	and.w	r0, r0, #2
  4011e4:	4770      	bx	lr
  4011e6:	bf00      	nop
  4011e8:	400e0400 	.word	0x400e0400

004011ec <pmc_enable_periph_clk>:
 * \retval 0 Success.
 * \retval 1 Invalid parameter.
 */
uint32_t pmc_enable_periph_clk(uint32_t ul_id)
{
	if (ul_id > MAX_PERIPH_ID) {
  4011ec:	2822      	cmp	r0, #34	; 0x22
  4011ee:	d81e      	bhi.n	40122e <pmc_enable_periph_clk+0x42>
		return 1;
	}

	if (ul_id < 32) {
  4011f0:	281f      	cmp	r0, #31
  4011f2:	d80c      	bhi.n	40120e <pmc_enable_periph_clk+0x22>
		if ((PMC->PMC_PCSR0 & (1u << ul_id)) != (1u << ul_id)) {
  4011f4:	4b11      	ldr	r3, [pc, #68]	; (40123c <pmc_enable_periph_clk+0x50>)
  4011f6:	699a      	ldr	r2, [r3, #24]
  4011f8:	2301      	movs	r3, #1
  4011fa:	4083      	lsls	r3, r0
  4011fc:	401a      	ands	r2, r3
  4011fe:	4293      	cmp	r3, r2
  401200:	d017      	beq.n	401232 <pmc_enable_periph_clk+0x46>
			PMC->PMC_PCER0 = 1 << ul_id;
  401202:	2301      	movs	r3, #1
  401204:	4083      	lsls	r3, r0
  401206:	4a0d      	ldr	r2, [pc, #52]	; (40123c <pmc_enable_periph_clk+0x50>)
  401208:	6113      	str	r3, [r2, #16]
			PMC->PMC_PCER1 = 1 << ul_id;
		}
#endif
	}

	return 0;
  40120a:	2000      	movs	r0, #0
  40120c:	4770      	bx	lr
			PMC->PMC_PCER0 = 1 << ul_id;
		}
#if (SAM3S || SAM3XA || SAM4S || SAM4E || SAM4C || SAM4CM || SAM4CP || SAMG55 || SAMV71 || SAMV70 || SAME70 || SAMS70)
	} else {
		ul_id -= 32;
		if ((PMC->PMC_PCSR1 & (1u << ul_id)) != (1u << ul_id)) {
  40120e:	4b0b      	ldr	r3, [pc, #44]	; (40123c <pmc_enable_periph_clk+0x50>)
  401210:	f8d3 2108 	ldr.w	r2, [r3, #264]	; 0x108
		if ((PMC->PMC_PCSR0 & (1u << ul_id)) != (1u << ul_id)) {
			PMC->PMC_PCER0 = 1 << ul_id;
		}
#if (SAM3S || SAM3XA || SAM4S || SAM4E || SAM4C || SAM4CM || SAM4CP || SAMG55 || SAMV71 || SAMV70 || SAME70 || SAMS70)
	} else {
		ul_id -= 32;
  401214:	3820      	subs	r0, #32
		if ((PMC->PMC_PCSR1 & (1u << ul_id)) != (1u << ul_id)) {
  401216:	2301      	movs	r3, #1
  401218:	4083      	lsls	r3, r0
  40121a:	401a      	ands	r2, r3
  40121c:	4293      	cmp	r3, r2
  40121e:	d00a      	beq.n	401236 <pmc_enable_periph_clk+0x4a>
			PMC->PMC_PCER1 = 1 << ul_id;
  401220:	2301      	movs	r3, #1
  401222:	4083      	lsls	r3, r0
  401224:	4a05      	ldr	r2, [pc, #20]	; (40123c <pmc_enable_periph_clk+0x50>)
  401226:	f8c2 3100 	str.w	r3, [r2, #256]	; 0x100
		}
#endif
	}

	return 0;
  40122a:	2000      	movs	r0, #0
  40122c:	4770      	bx	lr
 * \retval 1 Invalid parameter.
 */
uint32_t pmc_enable_periph_clk(uint32_t ul_id)
{
	if (ul_id > MAX_PERIPH_ID) {
		return 1;
  40122e:	2001      	movs	r0, #1
  401230:	4770      	bx	lr
			PMC->PMC_PCER1 = 1 << ul_id;
		}
#endif
	}

	return 0;
  401232:	2000      	movs	r0, #0
  401234:	4770      	bx	lr
  401236:	2000      	movs	r0, #0
}
  401238:	4770      	bx	lr
  40123a:	bf00      	nop
  40123c:	400e0400 	.word	0x400e0400

00401240 <Dummy_Handler>:
 * \brief Default interrupt handler for unused IRQs.
 */
void Dummy_Handler(void)
{
	while (1) {
	}
  401240:	e7fe      	b.n	401240 <Dummy_Handler>
  401242:	bf00      	nop

00401244 <Reset_Handler>:
/**
 * \brief This is the code that gets called on processor reset.
 * To initialize the device, and call the main() routine.
 */
void Reset_Handler(void)
{
  401244:	b508      	push	{r3, lr}

	/* Initialize the relocate segment */
	pSrc = &_etext;
	pDest = &_srelocate;

	if (pSrc > pDest) {
  401246:	4b20      	ldr	r3, [pc, #128]	; (4012c8 <Reset_Handler+0x84>)
  401248:	4a20      	ldr	r2, [pc, #128]	; (4012cc <Reset_Handler+0x88>)
  40124a:	429a      	cmp	r2, r3
  40124c:	d913      	bls.n	401276 <Reset_Handler+0x32>
		for (; pDest < &_erelocate;) {
  40124e:	4b20      	ldr	r3, [pc, #128]	; (4012d0 <Reset_Handler+0x8c>)
  401250:	4a1d      	ldr	r2, [pc, #116]	; (4012c8 <Reset_Handler+0x84>)
  401252:	429a      	cmp	r2, r3
  401254:	d21f      	bcs.n	401296 <Reset_Handler+0x52>
  401256:	4611      	mov	r1, r2
  401258:	3204      	adds	r2, #4
  40125a:	3303      	adds	r3, #3
  40125c:	1a9b      	subs	r3, r3, r2
  40125e:	f023 0303 	bic.w	r3, r3, #3
  401262:	3304      	adds	r3, #4
  401264:	4a19      	ldr	r2, [pc, #100]	; (4012cc <Reset_Handler+0x88>)
  401266:	4413      	add	r3, r2
			*pDest++ = *pSrc++;
  401268:	f852 0b04 	ldr.w	r0, [r2], #4
  40126c:	f841 0b04 	str.w	r0, [r1], #4
	/* Initialize the relocate segment */
	pSrc = &_etext;
	pDest = &_srelocate;

	if (pSrc > pDest) {
		for (; pDest < &_erelocate;) {
  401270:	429a      	cmp	r2, r3
  401272:	d1f9      	bne.n	401268 <Reset_Handler+0x24>
  401274:	e00f      	b.n	401296 <Reset_Handler+0x52>
			*pDest++ = *pSrc++;
		}
	} else if (pSrc < pDest) {
  401276:	4b14      	ldr	r3, [pc, #80]	; (4012c8 <Reset_Handler+0x84>)
  401278:	4a14      	ldr	r2, [pc, #80]	; (4012cc <Reset_Handler+0x88>)
  40127a:	429a      	cmp	r2, r3
  40127c:	d20b      	bcs.n	401296 <Reset_Handler+0x52>
		uint32_t nb_bytes = (uint32_t)&_erelocate - (uint32_t)&_srelocate;
  40127e:	4b14      	ldr	r3, [pc, #80]	; (4012d0 <Reset_Handler+0x8c>)
  401280:	4a11      	ldr	r2, [pc, #68]	; (4012c8 <Reset_Handler+0x84>)
  401282:	1a9a      	subs	r2, r3, r2
  401284:	4813      	ldr	r0, [pc, #76]	; (4012d4 <Reset_Handler+0x90>)
		pSrc = (uint32_t*)((uint32_t)pSrc + nb_bytes) - 1;
  401286:	1881      	adds	r1, r0, r2
		pDest = (uint32_t*)((uint32_t)pDest + nb_bytes) - 1;
		for (;nb_bytes;nb_bytes -= 4) {
  401288:	b12a      	cbz	r2, 401296 <Reset_Handler+0x52>
			*pDest-- = *pSrc--;
  40128a:	f851 2904 	ldr.w	r2, [r1], #-4
  40128e:	f843 2d04 	str.w	r2, [r3, #-4]!
		}
	} else if (pSrc < pDest) {
		uint32_t nb_bytes = (uint32_t)&_erelocate - (uint32_t)&_srelocate;
		pSrc = (uint32_t*)((uint32_t)pSrc + nb_bytes) - 1;
		pDest = (uint32_t*)((uint32_t)pDest + nb_bytes) - 1;
		for (;nb_bytes;nb_bytes -= 4) {
  401292:	4281      	cmp	r1, r0
  401294:	d1f9      	bne.n	40128a <Reset_Handler+0x46>

    No Operation does nothing. This instruction can be used for code alignment purposes.
 */
__attribute__( ( always_inline ) ) __STATIC_INLINE void __NOP(void)
{
  __ASM volatile ("nop");
  401296:	bf00      	nop
		}
	}
	__NOP();

	/* Clear the zero segment */
	for (pDest = &_szero; pDest < &_ezero;) {
  401298:	4b0f      	ldr	r3, [pc, #60]	; (4012d8 <Reset_Handler+0x94>)
  40129a:	4a10      	ldr	r2, [pc, #64]	; (4012dc <Reset_Handler+0x98>)
  40129c:	429a      	cmp	r2, r3
  40129e:	d20b      	bcs.n	4012b8 <Reset_Handler+0x74>
  4012a0:	1d13      	adds	r3, r2, #4
  4012a2:	4a0f      	ldr	r2, [pc, #60]	; (4012e0 <Reset_Handler+0x9c>)
  4012a4:	1ad2      	subs	r2, r2, r3
  4012a6:	f022 0203 	bic.w	r2, r2, #3
  4012aa:	441a      	add	r2, r3
  4012ac:	3b04      	subs	r3, #4
		*pDest++ = 0;
  4012ae:	2100      	movs	r1, #0
  4012b0:	f843 1b04 	str.w	r1, [r3], #4
		}
	}
	__NOP();

	/* Clear the zero segment */
	for (pDest = &_szero; pDest < &_ezero;) {
  4012b4:	4293      	cmp	r3, r2
  4012b6:	d1fb      	bne.n	4012b0 <Reset_Handler+0x6c>
		*pDest++ = 0;
	}

	/* Set the vector table base address */
	pSrc = (uint32_t *) & _sfixed;
	SCB->VTOR = ((uint32_t) pSrc);
  4012b8:	4b0a      	ldr	r3, [pc, #40]	; (4012e4 <Reset_Handler+0xa0>)
  4012ba:	4a0b      	ldr	r2, [pc, #44]	; (4012e8 <Reset_Handler+0xa4>)
  4012bc:	609a      	str	r2, [r3, #8]

	/* Initialize the C library */
	__libc_init_array();
  4012be:	4b0b      	ldr	r3, [pc, #44]	; (4012ec <Reset_Handler+0xa8>)
  4012c0:	4798      	blx	r3

	/* Branch to main function */
	main();
  4012c2:	4b0b      	ldr	r3, [pc, #44]	; (4012f0 <Reset_Handler+0xac>)
  4012c4:	4798      	blx	r3

	/* Infinite loop */
	while (1);
  4012c6:	e7fe      	b.n	4012c6 <Reset_Handler+0x82>
  4012c8:	20000000 	.word	0x20000000
  4012cc:	0041fa9c 	.word	0x0041fa9c
  4012d0:	20000884 	.word	0x20000884
  4012d4:	0041fa98 	.word	0x0041fa98
  4012d8:	20000d3c 	.word	0x20000d3c
  4012dc:	20000884 	.word	0x20000884
  4012e0:	20000d3f 	.word	0x20000d3f
  4012e4:	e000ed00 	.word	0xe000ed00
  4012e8:	00400000 	.word	0x00400000
  4012ec:	004035e9 	.word	0x004035e9
  4012f0:	00401891 	.word	0x00401891

004012f4 <SystemCoreClockUpdate>:
 * \brief Get Core Clock Frequency.
 */
void SystemCoreClockUpdate( void )
{
	/* Determine clock frequency according to clock register values */
	switch ( PMC->PMC_MCKR & (uint32_t) PMC_MCKR_CSS_Msk ) {
  4012f4:	4b3d      	ldr	r3, [pc, #244]	; (4013ec <SystemCoreClockUpdate+0xf8>)
  4012f6:	6b1b      	ldr	r3, [r3, #48]	; 0x30
  4012f8:	f003 0303 	and.w	r3, r3, #3
  4012fc:	2b03      	cmp	r3, #3
  4012fe:	d85d      	bhi.n	4013bc <SystemCoreClockUpdate+0xc8>
  401300:	e8df f003 	tbb	[pc, r3]
  401304:	2b2b0e02 	.word	0x2b2b0e02
	case PMC_MCKR_CSS_SLOW_CLK: /* Slow clock */
			if ( SUPC->SUPC_SR & SUPC_SR_OSCSEL ) {
  401308:	4b39      	ldr	r3, [pc, #228]	; (4013f0 <SystemCoreClockUpdate+0xfc>)
  40130a:	695b      	ldr	r3, [r3, #20]
  40130c:	f013 0f80 	tst.w	r3, #128	; 0x80
				SystemCoreClock = CHIP_FREQ_XTAL_32K;
  401310:	bf14      	ite	ne
  401312:	f44f 4200 	movne.w	r2, #32768	; 0x8000
			} else {
				SystemCoreClock = CHIP_FREQ_SLCK_RC;
  401316:	f44f 42fa 	moveq.w	r2, #32000	; 0x7d00
  40131a:	4b36      	ldr	r3, [pc, #216]	; (4013f4 <SystemCoreClockUpdate+0x100>)
  40131c:	601a      	str	r2, [r3, #0]
  40131e:	e04d      	b.n	4013bc <SystemCoreClockUpdate+0xc8>
			}
		break;
		
	case PMC_MCKR_CSS_MAIN_CLK: /* Main clock */
		if ( PMC->CKGR_MOR & CKGR_MOR_MOSCSEL ) {
  401320:	4b32      	ldr	r3, [pc, #200]	; (4013ec <SystemCoreClockUpdate+0xf8>)
  401322:	6a1b      	ldr	r3, [r3, #32]
  401324:	f013 7f80 	tst.w	r3, #16777216	; 0x1000000
  401328:	d003      	beq.n	401332 <SystemCoreClockUpdate+0x3e>
			SystemCoreClock = CHIP_FREQ_XTAL;
  40132a:	4a33      	ldr	r2, [pc, #204]	; (4013f8 <SystemCoreClockUpdate+0x104>)
  40132c:	4b31      	ldr	r3, [pc, #196]	; (4013f4 <SystemCoreClockUpdate+0x100>)
  40132e:	601a      	str	r2, [r3, #0]
  401330:	e044      	b.n	4013bc <SystemCoreClockUpdate+0xc8>
		} else {
			SystemCoreClock = CHIP_FREQ_MAINCK_RC_4MHZ;
  401332:	4a32      	ldr	r2, [pc, #200]	; (4013fc <SystemCoreClockUpdate+0x108>)
  401334:	4b2f      	ldr	r3, [pc, #188]	; (4013f4 <SystemCoreClockUpdate+0x100>)
  401336:	601a      	str	r2, [r3, #0]
			
			switch ( PMC->CKGR_MOR & CKGR_MOR_MOSCRCF_Msk ) {
  401338:	4b2c      	ldr	r3, [pc, #176]	; (4013ec <SystemCoreClockUpdate+0xf8>)
  40133a:	6a1b      	ldr	r3, [r3, #32]
  40133c:	f003 0370 	and.w	r3, r3, #112	; 0x70
  401340:	2b10      	cmp	r3, #16
  401342:	d002      	beq.n	40134a <SystemCoreClockUpdate+0x56>
  401344:	2b20      	cmp	r3, #32
  401346:	d004      	beq.n	401352 <SystemCoreClockUpdate+0x5e>
  401348:	e038      	b.n	4013bc <SystemCoreClockUpdate+0xc8>
			case CKGR_MOR_MOSCRCF_4_MHz:
				SystemCoreClock = CHIP_FREQ_MAINCK_RC_4MHZ;
			break;
			
			case CKGR_MOR_MOSCRCF_8_MHz:
				SystemCoreClock = CHIP_FREQ_MAINCK_RC_8MHZ;
  40134a:	4a2d      	ldr	r2, [pc, #180]	; (401400 <SystemCoreClockUpdate+0x10c>)
  40134c:	4b29      	ldr	r3, [pc, #164]	; (4013f4 <SystemCoreClockUpdate+0x100>)
  40134e:	601a      	str	r2, [r3, #0]
			break;
  401350:	e034      	b.n	4013bc <SystemCoreClockUpdate+0xc8>
			
			case CKGR_MOR_MOSCRCF_12_MHz:
				SystemCoreClock = CHIP_FREQ_MAINCK_RC_12MHZ;
  401352:	4a29      	ldr	r2, [pc, #164]	; (4013f8 <SystemCoreClockUpdate+0x104>)
  401354:	4b27      	ldr	r3, [pc, #156]	; (4013f4 <SystemCoreClockUpdate+0x100>)
  401356:	601a      	str	r2, [r3, #0]
			break;
  401358:	e030      	b.n	4013bc <SystemCoreClockUpdate+0xc8>
		}
		break;
		
	case PMC_MCKR_CSS_PLLA_CLK:	/* PLLA clock */
	case PMC_MCKR_CSS_PLLB_CLK:	/* PLLB clock */
			if ( PMC->CKGR_MOR & CKGR_MOR_MOSCSEL ) {
  40135a:	4b24      	ldr	r3, [pc, #144]	; (4013ec <SystemCoreClockUpdate+0xf8>)
  40135c:	6a1b      	ldr	r3, [r3, #32]
  40135e:	f013 7f80 	tst.w	r3, #16777216	; 0x1000000
  401362:	d003      	beq.n	40136c <SystemCoreClockUpdate+0x78>
				SystemCoreClock = CHIP_FREQ_XTAL;
  401364:	4a24      	ldr	r2, [pc, #144]	; (4013f8 <SystemCoreClockUpdate+0x104>)
  401366:	4b23      	ldr	r3, [pc, #140]	; (4013f4 <SystemCoreClockUpdate+0x100>)
  401368:	601a      	str	r2, [r3, #0]
  40136a:	e012      	b.n	401392 <SystemCoreClockUpdate+0x9e>
			} else {
				SystemCoreClock = CHIP_FREQ_MAINCK_RC_4MHZ;
  40136c:	4a23      	ldr	r2, [pc, #140]	; (4013fc <SystemCoreClockUpdate+0x108>)
  40136e:	4b21      	ldr	r3, [pc, #132]	; (4013f4 <SystemCoreClockUpdate+0x100>)
  401370:	601a      	str	r2, [r3, #0]
				
				switch ( PMC->CKGR_MOR & CKGR_MOR_MOSCRCF_Msk ) {
  401372:	4b1e      	ldr	r3, [pc, #120]	; (4013ec <SystemCoreClockUpdate+0xf8>)
  401374:	6a1b      	ldr	r3, [r3, #32]
  401376:	f003 0370 	and.w	r3, r3, #112	; 0x70
  40137a:	2b10      	cmp	r3, #16
  40137c:	d002      	beq.n	401384 <SystemCoreClockUpdate+0x90>
  40137e:	2b20      	cmp	r3, #32
  401380:	d004      	beq.n	40138c <SystemCoreClockUpdate+0x98>
  401382:	e006      	b.n	401392 <SystemCoreClockUpdate+0x9e>
				case CKGR_MOR_MOSCRCF_4_MHz:
					SystemCoreClock = CHIP_FREQ_MAINCK_RC_4MHZ;
					break;
				
				case CKGR_MOR_MOSCRCF_8_MHz:
					SystemCoreClock = CHIP_FREQ_MAINCK_RC_8MHZ;
  401384:	4a1e      	ldr	r2, [pc, #120]	; (401400 <SystemCoreClockUpdate+0x10c>)
  401386:	4b1b      	ldr	r3, [pc, #108]	; (4013f4 <SystemCoreClockUpdate+0x100>)
  401388:	601a      	str	r2, [r3, #0]
					break;
  40138a:	e002      	b.n	401392 <SystemCoreClockUpdate+0x9e>
				
				case CKGR_MOR_MOSCRCF_12_MHz:
					SystemCoreClock = CHIP_FREQ_MAINCK_RC_12MHZ;
  40138c:	4a1a      	ldr	r2, [pc, #104]	; (4013f8 <SystemCoreClockUpdate+0x104>)
  40138e:	4b19      	ldr	r3, [pc, #100]	; (4013f4 <SystemCoreClockUpdate+0x100>)
  401390:	601a      	str	r2, [r3, #0]
				default:
					break;
				}
			}
			
			if ( (uint32_t)(PMC->PMC_MCKR & (uint32_t) PMC_MCKR_CSS_Msk) ==
  401392:	4b16      	ldr	r3, [pc, #88]	; (4013ec <SystemCoreClockUpdate+0xf8>)
  401394:	6b1b      	ldr	r3, [r3, #48]	; 0x30
  401396:	f003 0303 	and.w	r3, r3, #3
  40139a:	2b02      	cmp	r3, #2
					PMC_MCKR_CSS_PLLA_CLK ) {
				SystemCoreClock *= ((((PMC->CKGR_PLLAR) & CKGR_PLLAR_MULA_Msk)
  40139c:	4a13      	ldr	r2, [pc, #76]	; (4013ec <SystemCoreClockUpdate+0xf8>)
  40139e:	bf07      	ittee	eq
  4013a0:	6a93      	ldreq	r3, [r2, #40]	; 0x28
						>> CKGR_PLLAR_MULA_Pos) + 1U);
				SystemCoreClock /= ((((PMC->CKGR_PLLAR) & CKGR_PLLAR_DIVA_Msk)
  4013a2:	6a92      	ldreq	r2, [r2, #40]	; 0x28
						>> CKGR_PLLAR_DIVA_Pos));
			} else {
				SystemCoreClock *= ((((PMC->CKGR_PLLBR) & CKGR_PLLBR_MULB_Msk)
  4013a4:	6ad3      	ldrne	r3, [r2, #44]	; 0x2c
						>> CKGR_PLLBR_MULB_Pos) + 1U);
				SystemCoreClock /= ((((PMC->CKGR_PLLBR) & CKGR_PLLBR_DIVB_Msk)
  4013a6:	6ad2      	ldrne	r2, [r2, #44]	; 0x2c
  4013a8:	4812      	ldr	r0, [pc, #72]	; (4013f4 <SystemCoreClockUpdate+0x100>)
						>> CKGR_PLLAR_MULA_Pos) + 1U);
				SystemCoreClock /= ((((PMC->CKGR_PLLAR) & CKGR_PLLAR_DIVA_Msk)
						>> CKGR_PLLAR_DIVA_Pos));
			} else {
				SystemCoreClock *= ((((PMC->CKGR_PLLBR) & CKGR_PLLBR_MULB_Msk)
						>> CKGR_PLLBR_MULB_Pos) + 1U);
  4013aa:	f3c3 410a 	ubfx	r1, r3, #16, #11
				SystemCoreClock *= ((((PMC->CKGR_PLLAR) & CKGR_PLLAR_MULA_Msk)
						>> CKGR_PLLAR_MULA_Pos) + 1U);
				SystemCoreClock /= ((((PMC->CKGR_PLLAR) & CKGR_PLLAR_DIVA_Msk)
						>> CKGR_PLLAR_DIVA_Pos));
			} else {
				SystemCoreClock *= ((((PMC->CKGR_PLLBR) & CKGR_PLLBR_MULB_Msk)
  4013ae:	6803      	ldr	r3, [r0, #0]
  4013b0:	fb01 3303 	mla	r3, r1, r3, r3
						>> CKGR_PLLBR_MULB_Pos) + 1U);
				SystemCoreClock /= ((((PMC->CKGR_PLLBR) & CKGR_PLLBR_DIVB_Msk)
						>> CKGR_PLLBR_DIVB_Pos));
  4013b4:	b2d2      	uxtb	r2, r2
				SystemCoreClock /= ((((PMC->CKGR_PLLAR) & CKGR_PLLAR_DIVA_Msk)
						>> CKGR_PLLAR_DIVA_Pos));
			} else {
				SystemCoreClock *= ((((PMC->CKGR_PLLBR) & CKGR_PLLBR_MULB_Msk)
						>> CKGR_PLLBR_MULB_Pos) + 1U);
				SystemCoreClock /= ((((PMC->CKGR_PLLBR) & CKGR_PLLBR_DIVB_Msk)
  4013b6:	fbb3 f3f2 	udiv	r3, r3, r2
  4013ba:	6003      	str	r3, [r0, #0]
		
	default:
		break;
	}

	if ( (PMC->PMC_MCKR & PMC_MCKR_PRES_Msk) == PMC_MCKR_PRES_CLK_3 ) {
  4013bc:	4b0b      	ldr	r3, [pc, #44]	; (4013ec <SystemCoreClockUpdate+0xf8>)
  4013be:	6b1b      	ldr	r3, [r3, #48]	; 0x30
  4013c0:	f003 0370 	and.w	r3, r3, #112	; 0x70
  4013c4:	2b70      	cmp	r3, #112	; 0x70
  4013c6:	d107      	bne.n	4013d8 <SystemCoreClockUpdate+0xe4>
		SystemCoreClock /= 3U;
  4013c8:	4a0a      	ldr	r2, [pc, #40]	; (4013f4 <SystemCoreClockUpdate+0x100>)
  4013ca:	6813      	ldr	r3, [r2, #0]
  4013cc:	490d      	ldr	r1, [pc, #52]	; (401404 <SystemCoreClockUpdate+0x110>)
  4013ce:	fba1 1303 	umull	r1, r3, r1, r3
  4013d2:	085b      	lsrs	r3, r3, #1
  4013d4:	6013      	str	r3, [r2, #0]
  4013d6:	4770      	bx	lr
	} else {
		SystemCoreClock >>=
			((PMC->PMC_MCKR & PMC_MCKR_PRES_Msk) >> PMC_MCKR_PRES_Pos);
  4013d8:	4b04      	ldr	r3, [pc, #16]	; (4013ec <SystemCoreClockUpdate+0xf8>)
  4013da:	6b1a      	ldr	r2, [r3, #48]	; 0x30
	}

	if ( (PMC->PMC_MCKR & PMC_MCKR_PRES_Msk) == PMC_MCKR_PRES_CLK_3 ) {
		SystemCoreClock /= 3U;
	} else {
		SystemCoreClock >>=
  4013dc:	4905      	ldr	r1, [pc, #20]	; (4013f4 <SystemCoreClockUpdate+0x100>)
			((PMC->PMC_MCKR & PMC_MCKR_PRES_Msk) >> PMC_MCKR_PRES_Pos);
  4013de:	f3c2 1202 	ubfx	r2, r2, #4, #3
	}

	if ( (PMC->PMC_MCKR & PMC_MCKR_PRES_Msk) == PMC_MCKR_PRES_CLK_3 ) {
		SystemCoreClock /= 3U;
	} else {
		SystemCoreClock >>=
  4013e2:	680b      	ldr	r3, [r1, #0]
  4013e4:	40d3      	lsrs	r3, r2
  4013e6:	600b      	str	r3, [r1, #0]
  4013e8:	4770      	bx	lr
  4013ea:	bf00      	nop
  4013ec:	400e0400 	.word	0x400e0400
  4013f0:	400e1410 	.word	0x400e1410
  4013f4:	20000008 	.word	0x20000008
  4013f8:	00b71b00 	.word	0x00b71b00
  4013fc:	003d0900 	.word	0x003d0900
  401400:	007a1200 	.word	0x007a1200
  401404:	aaaaaaab 	.word	0xaaaaaaab

00401408 <system_init_flash>:
				}
			}
		}
	}
#else
	if ( ul_clk < CHIP_FREQ_FWS_0 ) {
  401408:	4b1a      	ldr	r3, [pc, #104]	; (401474 <system_init_flash+0x6c>)
  40140a:	4298      	cmp	r0, r3
  40140c:	d807      	bhi.n	40141e <system_init_flash+0x16>
		EFC0->EEFC_FMR = EEFC_FMR_FWS(0)|EEFC_FMR_CLOE;
  40140e:	f04f 6380 	mov.w	r3, #67108864	; 0x4000000
  401412:	4a19      	ldr	r2, [pc, #100]	; (401478 <system_init_flash+0x70>)
  401414:	6013      	str	r3, [r2, #0]
		EFC1->EEFC_FMR = EEFC_FMR_FWS(0)|EEFC_FMR_CLOE;
  401416:	f502 7200 	add.w	r2, r2, #512	; 0x200
  40141a:	6013      	str	r3, [r2, #0]
  40141c:	4770      	bx	lr
	} else {
		if ( ul_clk < CHIP_FREQ_FWS_1 ) {
  40141e:	4b17      	ldr	r3, [pc, #92]	; (40147c <system_init_flash+0x74>)
  401420:	4298      	cmp	r0, r3
  401422:	d806      	bhi.n	401432 <system_init_flash+0x2a>
			EFC0->EEFC_FMR = EEFC_FMR_FWS(1)|EEFC_FMR_CLOE;
  401424:	4b16      	ldr	r3, [pc, #88]	; (401480 <system_init_flash+0x78>)
  401426:	4a14      	ldr	r2, [pc, #80]	; (401478 <system_init_flash+0x70>)
  401428:	6013      	str	r3, [r2, #0]
			EFC1->EEFC_FMR = EEFC_FMR_FWS(1)|EEFC_FMR_CLOE;
  40142a:	f502 7200 	add.w	r2, r2, #512	; 0x200
  40142e:	6013      	str	r3, [r2, #0]
  401430:	4770      	bx	lr
		} else {
			if ( ul_clk < CHIP_FREQ_FWS_2 ) {
  401432:	4b14      	ldr	r3, [pc, #80]	; (401484 <system_init_flash+0x7c>)
  401434:	4298      	cmp	r0, r3
  401436:	d806      	bhi.n	401446 <system_init_flash+0x3e>
				EFC0->EEFC_FMR = EEFC_FMR_FWS(2)|EEFC_FMR_CLOE;
  401438:	4b13      	ldr	r3, [pc, #76]	; (401488 <system_init_flash+0x80>)
  40143a:	4a0f      	ldr	r2, [pc, #60]	; (401478 <system_init_flash+0x70>)
  40143c:	6013      	str	r3, [r2, #0]
				EFC1->EEFC_FMR = EEFC_FMR_FWS(2)|EEFC_FMR_CLOE;
  40143e:	f502 7200 	add.w	r2, r2, #512	; 0x200
  401442:	6013      	str	r3, [r2, #0]
  401444:	4770      	bx	lr
			} else {
				if ( ul_clk < CHIP_FREQ_FWS_3 ) {
  401446:	4b11      	ldr	r3, [pc, #68]	; (40148c <system_init_flash+0x84>)
  401448:	4298      	cmp	r0, r3
  40144a:	d806      	bhi.n	40145a <system_init_flash+0x52>
					EFC0->EEFC_FMR = EEFC_FMR_FWS(3)|EEFC_FMR_CLOE;
  40144c:	4b10      	ldr	r3, [pc, #64]	; (401490 <system_init_flash+0x88>)
  40144e:	4a0a      	ldr	r2, [pc, #40]	; (401478 <system_init_flash+0x70>)
  401450:	6013      	str	r3, [r2, #0]
					EFC1->EEFC_FMR = EEFC_FMR_FWS(3)|EEFC_FMR_CLOE;
  401452:	f502 7200 	add.w	r2, r2, #512	; 0x200
  401456:	6013      	str	r3, [r2, #0]
  401458:	4770      	bx	lr
				} else {
					if ( ul_clk < CHIP_FREQ_FWS_4 ) {
  40145a:	4b0e      	ldr	r3, [pc, #56]	; (401494 <system_init_flash+0x8c>)
  40145c:	4298      	cmp	r0, r3
						EFC0->EEFC_FMR = EEFC_FMR_FWS(4)|EEFC_FMR_CLOE;
  40145e:	bf94      	ite	ls
  401460:	f04f 2304 	movls.w	r3, #67109888	; 0x4000400
						EFC1->EEFC_FMR = EEFC_FMR_FWS(4)|EEFC_FMR_CLOE;
					} else {
						EFC0->EEFC_FMR = EEFC_FMR_FWS(5)|EEFC_FMR_CLOE;
  401464:	4b0c      	ldrhi	r3, [pc, #48]	; (401498 <system_init_flash+0x90>)
  401466:	4a04      	ldr	r2, [pc, #16]	; (401478 <system_init_flash+0x70>)
  401468:	6013      	str	r3, [r2, #0]
						EFC1->EEFC_FMR = EEFC_FMR_FWS(5)|EEFC_FMR_CLOE;
  40146a:	f502 7200 	add.w	r2, r2, #512	; 0x200
  40146e:	6013      	str	r3, [r2, #0]
  401470:	4770      	bx	lr
  401472:	bf00      	nop
  401474:	01312cff 	.word	0x01312cff
  401478:	400e0a00 	.word	0x400e0a00
  40147c:	026259ff 	.word	0x026259ff
  401480:	04000100 	.word	0x04000100
  401484:	039386ff 	.word	0x039386ff
  401488:	04000200 	.word	0x04000200
  40148c:	04c4b3ff 	.word	0x04c4b3ff
  401490:	04000300 	.word	0x04000300
  401494:	05f5e0ff 	.word	0x05f5e0ff
  401498:	04000500 	.word	0x04000500

0040149c <_sbrk>:
{
	static unsigned char *heap = NULL;
	unsigned char *prev_heap;
	int ramend = (int)&__ram_end__;

	if (heap == NULL) {
  40149c:	4b09      	ldr	r3, [pc, #36]	; (4014c4 <_sbrk+0x28>)
  40149e:	681b      	ldr	r3, [r3, #0]
  4014a0:	b913      	cbnz	r3, 4014a8 <_sbrk+0xc>
		heap = (unsigned char *)&_end;
  4014a2:	4a09      	ldr	r2, [pc, #36]	; (4014c8 <_sbrk+0x2c>)
  4014a4:	4b07      	ldr	r3, [pc, #28]	; (4014c4 <_sbrk+0x28>)
  4014a6:	601a      	str	r2, [r3, #0]
	}
	prev_heap = heap;
  4014a8:	4b06      	ldr	r3, [pc, #24]	; (4014c4 <_sbrk+0x28>)
  4014aa:	681b      	ldr	r3, [r3, #0]

	if (((int)prev_heap + incr) > ramend) {
  4014ac:	181a      	adds	r2, r3, r0
  4014ae:	4907      	ldr	r1, [pc, #28]	; (4014cc <_sbrk+0x30>)
  4014b0:	4291      	cmp	r1, r2
  4014b2:	db04      	blt.n	4014be <_sbrk+0x22>
		return (caddr_t) -1;	
	}

	heap += incr;
  4014b4:	4610      	mov	r0, r2
  4014b6:	4a03      	ldr	r2, [pc, #12]	; (4014c4 <_sbrk+0x28>)
  4014b8:	6010      	str	r0, [r2, #0]

	return (caddr_t) prev_heap;
  4014ba:	4618      	mov	r0, r3
  4014bc:	4770      	bx	lr
		heap = (unsigned char *)&_end;
	}
	prev_heap = heap;

	if (((int)prev_heap + incr) > ramend) {
		return (caddr_t) -1;	
  4014be:	f04f 30ff 	mov.w	r0, #4294967295
	}

	heap += incr;

	return (caddr_t) prev_heap;
}
  4014c2:	4770      	bx	lr
  4014c4:	20000cdc 	.word	0x20000cdc
  4014c8:	20003d40 	.word	0x20003d40
  4014cc:	20027ffc 	.word	0x20027ffc

004014d0 <TC0_Handler>:
/**

/**
*  Interrupt handler for TC0 interrupt.
*/
void TC0_Handler(void){
  4014d0:	b5f0      	push	{r4, r5, r6, r7, lr}
  4014d2:	b083      	sub	sp, #12
	
	volatile uint32_t ul_dummy, status;
	
	ul_dummy = tc_get_status(TC0,0);
  4014d4:	4824      	ldr	r0, [pc, #144]	; (401568 <TC0_Handler+0x98>)
  4014d6:	2100      	movs	r1, #0
  4014d8:	4b24      	ldr	r3, [pc, #144]	; (40156c <TC0_Handler+0x9c>)
  4014da:	4798      	blx	r3
  4014dc:	9001      	str	r0, [sp, #4]
	UNUSED(ul_dummy);
  4014de:	9b01      	ldr	r3, [sp, #4]
	
	static uint16_t i = 0 ;
	
	if(i >= 36){
  4014e0:	4b23      	ldr	r3, [pc, #140]	; (401570 <TC0_Handler+0xa0>)
  4014e2:	881b      	ldrh	r3, [r3, #0]
  4014e4:	2b23      	cmp	r3, #35	; 0x23
  4014e6:	d902      	bls.n	4014ee <TC0_Handler+0x1e>
		i=0;
  4014e8:	2200      	movs	r2, #0
  4014ea:	4b21      	ldr	r3, [pc, #132]	; (401570 <TC0_Handler+0xa0>)
  4014ec:	801a      	strh	r2, [r3, #0]
	}
	
	valorDAC= (amplitude+MAX_DIGITAL)/2*sin((M_PI/18)*i++)+(MAX_DIGITAL)/2;
  4014ee:	4b21      	ldr	r3, [pc, #132]	; (401574 <TC0_Handler+0xa4>)
  4014f0:	6818      	ldr	r0, [r3, #0]
  4014f2:	f600 70ff 	addw	r0, r0, #4095	; 0xfff
  4014f6:	eb00 70d0 	add.w	r0, r0, r0, lsr #31
  4014fa:	4c1f      	ldr	r4, [pc, #124]	; (401578 <TC0_Handler+0xa8>)
  4014fc:	1040      	asrs	r0, r0, #1
  4014fe:	47a0      	blx	r4
  401500:	4606      	mov	r6, r0
  401502:	460f      	mov	r7, r1
  401504:	4b1a      	ldr	r3, [pc, #104]	; (401570 <TC0_Handler+0xa0>)
  401506:	8818      	ldrh	r0, [r3, #0]
  401508:	1c42      	adds	r2, r0, #1
  40150a:	801a      	strh	r2, [r3, #0]
  40150c:	47a0      	blx	r4
  40150e:	4d1b      	ldr	r5, [pc, #108]	; (40157c <TC0_Handler+0xac>)
  401510:	a311      	add	r3, pc, #68	; (adr r3, 401558 <TC0_Handler+0x88>)
  401512:	e9d3 2300 	ldrd	r2, r3, [r3]
  401516:	47a8      	blx	r5
  401518:	4b19      	ldr	r3, [pc, #100]	; (401580 <TC0_Handler+0xb0>)
  40151a:	4798      	blx	r3
  40151c:	4602      	mov	r2, r0
  40151e:	460b      	mov	r3, r1
  401520:	4c18      	ldr	r4, [pc, #96]	; (401584 <TC0_Handler+0xb4>)
  401522:	4630      	mov	r0, r6
  401524:	4639      	mov	r1, r7
  401526:	47a8      	blx	r5
  401528:	a30d      	add	r3, pc, #52	; (adr r3, 401560 <TC0_Handler+0x90>)
  40152a:	e9d3 2300 	ldrd	r2, r3, [r3]
  40152e:	4d16      	ldr	r5, [pc, #88]	; (401588 <TC0_Handler+0xb8>)
  401530:	47a8      	blx	r5
  401532:	4b16      	ldr	r3, [pc, #88]	; (40158c <TC0_Handler+0xbc>)
  401534:	4798      	blx	r3
  401536:	6020      	str	r0, [r4, #0]

	
	/************************************************************************/
	/* Escreve um novo valor no DAC                                         */
	/************************************************************************/
	status = dacc_get_interrupt_status(DACC_BASE);
  401538:	4d15      	ldr	r5, [pc, #84]	; (401590 <TC0_Handler+0xc0>)
  40153a:	4628      	mov	r0, r5
  40153c:	4b15      	ldr	r3, [pc, #84]	; (401594 <TC0_Handler+0xc4>)
  40153e:	4798      	blx	r3
  401540:	9000      	str	r0, [sp, #0]
	dacc_write_conversion_data(DACC_BASE, valorDAC);
  401542:	4628      	mov	r0, r5
  401544:	6821      	ldr	r1, [r4, #0]
  401546:	4b14      	ldr	r3, [pc, #80]	; (401598 <TC0_Handler+0xc8>)
  401548:	4798      	blx	r3
	
	adc_start(ADC);
  40154a:	4814      	ldr	r0, [pc, #80]	; (40159c <TC0_Handler+0xcc>)
  40154c:	4b14      	ldr	r3, [pc, #80]	; (4015a0 <TC0_Handler+0xd0>)
  40154e:	4798      	blx	r3
}
  401550:	b003      	add	sp, #12
  401552:	bdf0      	pop	{r4, r5, r6, r7, pc}
  401554:	f3af 8000 	nop.w
  401558:	4ae74487 	.word	0x4ae74487
  40155c:	3fc65718 	.word	0x3fc65718
  401560:	00000000 	.word	0x00000000
  401564:	409ffc00 	.word	0x409ffc00
  401568:	40010000 	.word	0x40010000
  40156c:	00400265 	.word	0x00400265
  401570:	20000ce0 	.word	0x20000ce0
  401574:	20000d20 	.word	0x20000d20
  401578:	00402f59 	.word	0x00402f59
  40157c:	00403025 	.word	0x00403025
  401580:	004019e1 	.word	0x004019e1
  401584:	20000ce4 	.word	0x20000ce4
  401588:	00402cc1 	.word	0x00402cc1
  40158c:	004035a9 	.word	0x004035a9
  401590:	4003c000 	.word	0x4003c000
  401594:	004001f5 	.word	0x004001f5
  401598:	004001f9 	.word	0x004001f9
  40159c:	40038000 	.word	0x40038000
  4015a0:	0040018d 	.word	0x0040018d

004015a4 <atualiza_frequencia>:


/**
	Desenha um retngulo em cima do valor anterior do contador e sobrescreve o novo valor.
*/
void atualiza_frequencia(int valor){
  4015a4:	b570      	push	{r4, r5, r6, lr}
  4015a6:	b084      	sub	sp, #16
  4015a8:	4604      	mov	r4, r0
	//Muda valor da frequencia
	// Valor para o contador de um em um segundo.
	tc_write_rc(TC0,0,(32768/1000)*( (int) (valor+4095)/4095 ) );
  4015aa:	f600 73ff 	addw	r3, r0, #4095	; 0xfff
  4015ae:	4a12      	ldr	r2, [pc, #72]	; (4015f8 <atualiza_frequencia+0x54>)
  4015b0:	fb82 1203 	smull	r1, r2, r2, r3
  4015b4:	441a      	add	r2, r3
  4015b6:	17db      	asrs	r3, r3, #31
  4015b8:	ebc3 22e2 	rsb	r2, r3, r2, asr #11
  4015bc:	480f      	ldr	r0, [pc, #60]	; (4015fc <atualiza_frequencia+0x58>)
  4015be:	2100      	movs	r1, #0
  4015c0:	0152      	lsls	r2, r2, #5
  4015c2:	4b0f      	ldr	r3, [pc, #60]	; (401600 <atualiza_frequencia+0x5c>)
  4015c4:	4798      	blx	r3
	
	//Limpa a tela com um retngulo branco
	ili93xx_set_foreground_color(COLOR_WHITE);
  4015c6:	f06f 407f 	mvn.w	r0, #4278190080	; 0xff000000
  4015ca:	4d0e      	ldr	r5, [pc, #56]	; (401604 <atualiza_frequencia+0x60>)
  4015cc:	47a8      	blx	r5
	ili93xx_draw_filled_rectangle(125,100,200,170);
  4015ce:	207d      	movs	r0, #125	; 0x7d
  4015d0:	2164      	movs	r1, #100	; 0x64
  4015d2:	22c8      	movs	r2, #200	; 0xc8
  4015d4:	23aa      	movs	r3, #170	; 0xaa
  4015d6:	4e0c      	ldr	r6, [pc, #48]	; (401608 <atualiza_frequencia+0x64>)
  4015d8:	47b0      	blx	r6
	
	ili93xx_set_foreground_color(COLOR_BLACK);
  4015da:	2000      	movs	r0, #0
  4015dc:	47a8      	blx	r5
	char buffer[10];
	snprintf(buffer, 10, "%d", valor);
  4015de:	a801      	add	r0, sp, #4
  4015e0:	210a      	movs	r1, #10
  4015e2:	4a0a      	ldr	r2, [pc, #40]	; (40160c <atualiza_frequencia+0x68>)
  4015e4:	4623      	mov	r3, r4
  4015e6:	4c0a      	ldr	r4, [pc, #40]	; (401610 <atualiza_frequencia+0x6c>)
  4015e8:	47a0      	blx	r4
	ili93xx_draw_string(130, 110, (uint8_t *)buffer);
  4015ea:	2082      	movs	r0, #130	; 0x82
  4015ec:	216e      	movs	r1, #110	; 0x6e
  4015ee:	aa01      	add	r2, sp, #4
  4015f0:	4b08      	ldr	r3, [pc, #32]	; (401614 <atualiza_frequencia+0x70>)
  4015f2:	4798      	blx	r3
}
  4015f4:	b004      	add	sp, #16
  4015f6:	bd70      	pop	{r4, r5, r6, pc}
  4015f8:	80080081 	.word	0x80080081
  4015fc:	40010000 	.word	0x40010000
  401600:	00400255 	.word	0x00400255
  401604:	0040063d 	.word	0x0040063d
  401608:	00400a7d 	.word	0x00400a7d
  40160c:	0041f6f4 	.word	0x0041f6f4
  401610:	004036d5 	.word	0x004036d5
  401614:	00400b41 	.word	0x00400b41

00401618 <ADC_Handler>:
/**
* \brief ADC interrupt handler.
*/

void ADC_Handler(void)
{
  401618:	b510      	push	{r4, lr}
	uint32_t tmp;
	uint32_t status ;

	status = adc_get_status(ADC);
  40161a:	480c      	ldr	r0, [pc, #48]	; (40164c <ADC_Handler+0x34>)
  40161c:	4b0c      	ldr	r3, [pc, #48]	; (401650 <ADC_Handler+0x38>)
  40161e:	4798      	blx	r3
	
	/* Checa se a interrupo  devido ao canal 5 */
	if ((status & ADC_ISR_EOC5)) {
  401620:	f010 0f20 	tst.w	r0, #32
  401624:	d011      	beq.n	40164a <ADC_Handler+0x32>
		tmp = adc_get_channel_value(ADC, ADC_POT_CHANNEL);
  401626:	4809      	ldr	r0, [pc, #36]	; (40164c <ADC_Handler+0x34>)
  401628:	2105      	movs	r1, #5
  40162a:	4b0a      	ldr	r3, [pc, #40]	; (401654 <ADC_Handler+0x3c>)
  40162c:	4798      	blx	r3
  40162e:	4604      	mov	r4, r0
		if ((tmp > adc_value_old + 2) || (tmp < adc_value_old - 2))
  401630:	4b09      	ldr	r3, [pc, #36]	; (401658 <ADC_Handler+0x40>)
  401632:	681b      	ldr	r3, [r3, #0]
  401634:	1c9a      	adds	r2, r3, #2
  401636:	4290      	cmp	r0, r2
  401638:	d802      	bhi.n	401640 <ADC_Handler+0x28>
  40163a:	3b02      	subs	r3, #2
  40163c:	4298      	cmp	r0, r3
  40163e:	d202      	bcs.n	401646 <ADC_Handler+0x2e>
		{
			atualiza_frequencia(tmp);
  401640:	4620      	mov	r0, r4
  401642:	4b06      	ldr	r3, [pc, #24]	; (40165c <ADC_Handler+0x44>)
  401644:	4798      	blx	r3
		}
		adc_value_old = tmp;
  401646:	4b04      	ldr	r3, [pc, #16]	; (401658 <ADC_Handler+0x40>)
  401648:	601c      	str	r4, [r3, #0]
  40164a:	bd10      	pop	{r4, pc}
  40164c:	40038000 	.word	0x40038000
  401650:	004001b1 	.word	0x004001b1
  401654:	0040019d 	.word	0x0040019d
  401658:	20000d24 	.word	0x20000d24
  40165c:	004015a5 	.word	0x004015a5

00401660 <atualiza_amplitude>:
	char buffer[10];
	snprintf(buffer, 10, "%d", valor);
	ili93xx_draw_string(130, 110, (uint8_t *)buffer);
}

void atualiza_amplitude(int valor){
  401660:	b570      	push	{r4, r5, r6, lr}
  401662:	b084      	sub	sp, #16
  401664:	4605      	mov	r5, r0
	//Muda valor da frequencia
	// Valor para o contador de um em um segundo.
	//tc_write_rc(TC0,0,(32768/1000)*( (int) (valor+4095)/4095 ) );
	
	//Limpa a tela com um retngulo branco
	ili93xx_set_foreground_color(COLOR_WHITE);
  401666:	f06f 407f 	mvn.w	r0, #4278190080	; 0xff000000
  40166a:	4c0b      	ldr	r4, [pc, #44]	; (401698 <atualiza_amplitude+0x38>)
  40166c:	47a0      	blx	r4
	ili93xx_draw_filled_rectangle(125,100,200,170);
  40166e:	207d      	movs	r0, #125	; 0x7d
  401670:	2164      	movs	r1, #100	; 0x64
  401672:	22c8      	movs	r2, #200	; 0xc8
  401674:	23aa      	movs	r3, #170	; 0xaa
  401676:	4e09      	ldr	r6, [pc, #36]	; (40169c <atualiza_amplitude+0x3c>)
  401678:	47b0      	blx	r6
	
	ili93xx_set_foreground_color(COLOR_BLACK);
  40167a:	2000      	movs	r0, #0
  40167c:	47a0      	blx	r4
	char buffer[10];
	snprintf(buffer, 10, "%d", valor);
  40167e:	a801      	add	r0, sp, #4
  401680:	210a      	movs	r1, #10
  401682:	4a07      	ldr	r2, [pc, #28]	; (4016a0 <atualiza_amplitude+0x40>)
  401684:	462b      	mov	r3, r5
  401686:	4c07      	ldr	r4, [pc, #28]	; (4016a4 <atualiza_amplitude+0x44>)
  401688:	47a0      	blx	r4
	ili93xx_draw_string(130, 150, (uint8_t *)buffer);
  40168a:	2082      	movs	r0, #130	; 0x82
  40168c:	2196      	movs	r1, #150	; 0x96
  40168e:	aa01      	add	r2, sp, #4
  401690:	4b05      	ldr	r3, [pc, #20]	; (4016a8 <atualiza_amplitude+0x48>)
  401692:	4798      	blx	r3
}
  401694:	b004      	add	sp, #16
  401696:	bd70      	pop	{r4, r5, r6, pc}
  401698:	0040063d 	.word	0x0040063d
  40169c:	00400a7d 	.word	0x00400a7d
  4016a0:	0041f6f4 	.word	0x0041f6f4
  4016a4:	004036d5 	.word	0x004036d5
  4016a8:	00400b41 	.word	0x00400b41

004016ac <Button2_Handler>:
 *  Handle Interrupcao Bt2 -> Bp3 
 *  
 *
 */
static void Button2_Handler(uint32_t id, uint32_t mask)
{
  4016ac:	b508      	push	{r3, lr}
	amplitude++;
  4016ae:	4b03      	ldr	r3, [pc, #12]	; (4016bc <Button2_Handler+0x10>)
  4016b0:	6818      	ldr	r0, [r3, #0]
  4016b2:	3001      	adds	r0, #1
  4016b4:	6018      	str	r0, [r3, #0]
	atualiza_amplitude(amplitude);
  4016b6:	4b02      	ldr	r3, [pc, #8]	; (4016c0 <Button2_Handler+0x14>)
  4016b8:	4798      	blx	r3
  4016ba:	bd08      	pop	{r3, pc}
  4016bc:	20000d20 	.word	0x20000d20
  4016c0:	00401661 	.word	0x00401661

004016c4 <Button1_Handler>:
 *  Handle Interrupcao Bt1 -> Bp2 
 *  
 *	
 */
static void Button1_Handler(uint32_t id, uint32_t mask)
{
  4016c4:	b508      	push	{r3, lr}
	amplitude--;
  4016c6:	4b03      	ldr	r3, [pc, #12]	; (4016d4 <Button1_Handler+0x10>)
  4016c8:	6818      	ldr	r0, [r3, #0]
  4016ca:	3801      	subs	r0, #1
  4016cc:	6018      	str	r0, [r3, #0]
	atualiza_amplitude(amplitude);
  4016ce:	4b02      	ldr	r3, [pc, #8]	; (4016d8 <Button1_Handler+0x14>)
  4016d0:	4798      	blx	r3
  4016d2:	bd08      	pop	{r3, pc}
  4016d4:	20000d20 	.word	0x20000d20
  4016d8:	00401661 	.word	0x00401661

004016dc <configure_LCD>:
	char buffer[10];
	snprintf(buffer, 10, "%d", valor);
	ili93xx_draw_string(130, 150, (uint8_t *)buffer);
}

void configure_LCD(void){
  4016dc:	e92d 41f0 	stmdb	sp!, {r4, r5, r6, r7, r8, lr}
  4016e0:	b082      	sub	sp, #8
  /** Enable peripheral clock */
  pmc_enable_periph_clk(ID_SMC);
  4016e2:	200a      	movs	r0, #10
  4016e4:	4b22      	ldr	r3, [pc, #136]	; (401770 <configure_LCD+0x94>)
  4016e6:	4798      	blx	r3

  /** Configure SMC interface for Lcd */
  smc_set_setup_timing(SMC, ILI93XX_LCD_CS, SMC_SETUP_NWE_SETUP(2)
  4016e8:	4c22      	ldr	r4, [pc, #136]	; (401774 <configure_LCD+0x98>)
  4016ea:	4620      	mov	r0, r4
  4016ec:	2101      	movs	r1, #1
  4016ee:	f04f 3202 	mov.w	r2, #33686018	; 0x2020202
  4016f2:	4b21      	ldr	r3, [pc, #132]	; (401778 <configure_LCD+0x9c>)
  4016f4:	4798      	blx	r3
  | SMC_SETUP_NCS_WR_SETUP(2)
  | SMC_SETUP_NRD_SETUP(2)
  | SMC_SETUP_NCS_RD_SETUP(2));
  smc_set_pulse_timing(SMC, ILI93XX_LCD_CS, SMC_PULSE_NWE_PULSE(4)
  4016f6:	4620      	mov	r0, r4
  4016f8:	2101      	movs	r1, #1
  4016fa:	4a20      	ldr	r2, [pc, #128]	; (40177c <configure_LCD+0xa0>)
  4016fc:	4b20      	ldr	r3, [pc, #128]	; (401780 <configure_LCD+0xa4>)
  4016fe:	4798      	blx	r3
  | SMC_PULSE_NCS_WR_PULSE(4)
  | SMC_PULSE_NRD_PULSE(10)
  | SMC_PULSE_NCS_RD_PULSE(10));
  smc_set_cycle_timing(SMC, ILI93XX_LCD_CS, SMC_CYCLE_NWE_CYCLE(10)
  401700:	4620      	mov	r0, r4
  401702:	2101      	movs	r1, #1
  401704:	4a1f      	ldr	r2, [pc, #124]	; (401784 <configure_LCD+0xa8>)
  401706:	4b20      	ldr	r3, [pc, #128]	; (401788 <configure_LCD+0xac>)
  401708:	4798      	blx	r3
  #if ((!defined(SAM4S)) && (!defined(SAM4E)))
  smc_set_mode(SMC, ILI93XX_LCD_CS, SMC_MODE_READ_MODE
  | SMC_MODE_WRITE_MODE
  | SMC_MODE_DBW_8_BIT);
  #else
  smc_set_mode(SMC, ILI93XX_LCD_CS, SMC_MODE_READ_MODE
  40170a:	4620      	mov	r0, r4
  40170c:	2101      	movs	r1, #1
  40170e:	2203      	movs	r2, #3
  401710:	4b1e      	ldr	r3, [pc, #120]	; (40178c <configure_LCD+0xb0>)
  401712:	4798      	blx	r3
  | SMC_MODE_WRITE_MODE);
  #endif
  /** Initialize display parameter */
  g_ili93xx_display_opt.ul_width = ILI93XX_LCD_WIDTH;
  401714:	4d1e      	ldr	r5, [pc, #120]	; (401790 <configure_LCD+0xb4>)
  401716:	27f0      	movs	r7, #240	; 0xf0
  401718:	602f      	str	r7, [r5, #0]
  g_ili93xx_display_opt.ul_height = ILI93XX_LCD_HEIGHT;
  40171a:	f44f 76a0 	mov.w	r6, #320	; 0x140
  40171e:	606e      	str	r6, [r5, #4]
  g_ili93xx_display_opt.foreground_color = COLOR_BLACK;
  401720:	2400      	movs	r4, #0
  401722:	60ac      	str	r4, [r5, #8]
  g_ili93xx_display_opt.background_color = COLOR_WHITE;
  401724:	f06f 487f 	mvn.w	r8, #4278190080	; 0xff000000
  401728:	f8c5 800c 	str.w	r8, [r5, #12]

  /** Switch off backlight */
  aat31xx_disable_backlight();
  40172c:	4b19      	ldr	r3, [pc, #100]	; (401794 <configure_LCD+0xb8>)
  40172e:	4798      	blx	r3

  /** Initialize LCD */
  ili93xx_init(&g_ili93xx_display_opt);
  401730:	4628      	mov	r0, r5
  401732:	4b19      	ldr	r3, [pc, #100]	; (401798 <configure_LCD+0xbc>)
  401734:	4798      	blx	r3

  /** Set backlight level */
  aat31xx_set_backlight(AAT31XX_AVG_BACKLIGHT_LEVEL);
  401736:	2008      	movs	r0, #8
  401738:	4b18      	ldr	r3, [pc, #96]	; (40179c <configure_LCD+0xc0>)
  40173a:	4798      	blx	r3

  ili93xx_set_foreground_color(COLOR_WHITE);
  40173c:	4640      	mov	r0, r8
  40173e:	4b18      	ldr	r3, [pc, #96]	; (4017a0 <configure_LCD+0xc4>)
  401740:	4798      	blx	r3
  ili93xx_draw_filled_rectangle(0, 0, ILI93XX_LCD_WIDTH,
  401742:	4620      	mov	r0, r4
  401744:	4621      	mov	r1, r4
  401746:	463a      	mov	r2, r7
  401748:	4633      	mov	r3, r6
  40174a:	4d16      	ldr	r5, [pc, #88]	; (4017a4 <configure_LCD+0xc8>)
  40174c:	47a8      	blx	r5
  ILI93XX_LCD_HEIGHT);
  /** Turn on LCD */
  ili93xx_display_on();
  40174e:	4b16      	ldr	r3, [pc, #88]	; (4017a8 <configure_LCD+0xcc>)
  401750:	4798      	blx	r3
  ili93xx_set_cursor_position(0, 0);
  401752:	4620      	mov	r0, r4
  401754:	4621      	mov	r1, r4
  401756:	4b15      	ldr	r3, [pc, #84]	; (4017ac <configure_LCD+0xd0>)
  401758:	4798      	blx	r3
  
  /** Desenha o logo da Mau **/
  
  ili93xx_draw_pixmap(0,
  40175a:	4b15      	ldr	r3, [pc, #84]	; (4017b0 <configure_LCD+0xd4>)
  40175c:	9300      	str	r3, [sp, #0]
  40175e:	4620      	mov	r0, r4
  401760:	21db      	movs	r1, #219	; 0xdb
  401762:	22ef      	movs	r2, #239	; 0xef
  401764:	2363      	movs	r3, #99	; 0x63
  401766:	4c13      	ldr	r4, [pc, #76]	; (4017b4 <configure_LCD+0xd8>)
  401768:	47a0      	blx	r4
  ILI93XX_LCD_HEIGHT-100-1,
  240-1,
  100-1,
  &image_data_maua[0]);
};
  40176a:	b002      	add	sp, #8
  40176c:	e8bd 81f0 	ldmia.w	sp!, {r4, r5, r6, r7, r8, pc}
  401770:	004011ed 	.word	0x004011ed
  401774:	400e0000 	.word	0x400e0000
  401778:	00400cb1 	.word	0x00400cb1
  40177c:	0a0a0404 	.word	0x0a0a0404
  401780:	00400cb9 	.word	0x00400cb9
  401784:	0016000a 	.word	0x0016000a
  401788:	00400cc1 	.word	0x00400cc1
  40178c:	00400cc9 	.word	0x00400cc9
  401790:	20000d28 	.word	0x20000d28
  401794:	004003e5 	.word	0x004003e5
  401798:	0040071d 	.word	0x0040071d
  40179c:	00400389 	.word	0x00400389
  4017a0:	0040063d 	.word	0x0040063d
  4017a4:	00400a7d 	.word	0x00400a7d
  4017a8:	00400609 	.word	0x00400609
  4017ac:	004006f9 	.word	0x004006f9
  4017b0:	00407ff4 	.word	0x00407ff4
  4017b4:	00400bed 	.word	0x00400bed

004017b8 <configure_DAC>:

void configure_DAC(void){
  4017b8:	b510      	push	{r4, lr}
  4017ba:	201e      	movs	r0, #30
  4017bc:	4b0b      	ldr	r3, [pc, #44]	; (4017ec <configure_DAC+0x34>)
  4017be:	4798      	blx	r3
	
	/* Enable clock for DACC */
	sysclk_enable_peripheral_clock(DACC_ID);
	
	/* Reset DACC registers */
	dacc_reset(DACC_BASE);
  4017c0:	4c0b      	ldr	r4, [pc, #44]	; (4017f0 <configure_DAC+0x38>)
  4017c2:	4620      	mov	r0, r4
  4017c4:	4b0b      	ldr	r3, [pc, #44]	; (4017f4 <configure_DAC+0x3c>)
  4017c6:	4798      	blx	r3

	/* Half word transfer mode */
	dacc_set_transfer_mode(DACC_BASE, 0);
  4017c8:	4620      	mov	r0, r4
  4017ca:	2100      	movs	r1, #0
  4017cc:	4b0a      	ldr	r3, [pc, #40]	; (4017f8 <configure_DAC+0x40>)
  4017ce:	4798      	blx	r3

	/* selects channel */
	dacc_set_channel_selection(DACC_BASE, DACC_CHANNEL);
  4017d0:	4620      	mov	r0, r4
  4017d2:	2101      	movs	r1, #1
  4017d4:	4b09      	ldr	r3, [pc, #36]	; (4017fc <configure_DAC+0x44>)
  4017d6:	4798      	blx	r3

	/* Enable output channel DACC_CHANNEL */
	dacc_enable_channel(DACC_BASE, DACC_CHANNEL);
  4017d8:	4620      	mov	r0, r4
  4017da:	2101      	movs	r1, #1
  4017dc:	4b08      	ldr	r3, [pc, #32]	; (401800 <configure_DAC+0x48>)
  4017de:	4798      	blx	r3

	/* Set up analog current */
	dacc_set_analog_control(DACC_BASE, DACC_ANALOG_CONTROL);
  4017e0:	4620      	mov	r0, r4
  4017e2:	f44f 7185 	mov.w	r1, #266	; 0x10a
  4017e6:	4b07      	ldr	r3, [pc, #28]	; (401804 <configure_DAC+0x4c>)
  4017e8:	4798      	blx	r3
  4017ea:	bd10      	pop	{r4, pc}
  4017ec:	004011ed 	.word	0x004011ed
  4017f0:	4003c000 	.word	0x4003c000
  4017f4:	004001c5 	.word	0x004001c5
  4017f8:	004001cd 	.word	0x004001cd
  4017fc:	004001fd 	.word	0x004001fd
  401800:	00400215 	.word	0x00400215
  401804:	00400229 	.word	0x00400229

00401808 <configure_ADC>:
}

void configure_ADC(void)
{
  401808:	b538      	push	{r3, r4, r5, lr}
	/* Enable peripheral clock. */
	pmc_enable_periph_clk(ID_ADC);
  40180a:	201d      	movs	r0, #29
  40180c:	4b14      	ldr	r3, [pc, #80]	; (401860 <configure_ADC+0x58>)
  40180e:	4798      	blx	r3
	*/
	/* Formula:
	*     Startup  Time = startup value / ADCClock
	*     Startup time = 64 / 6.4MHz = 10 us
	*/
	adc_init(ADC, sysclk_get_cpu_hz(), 6400000, STARTUP_TIME);
  401810:	4c14      	ldr	r4, [pc, #80]	; (401864 <configure_ADC+0x5c>)
  401812:	4620      	mov	r0, r4
  401814:	4914      	ldr	r1, [pc, #80]	; (401868 <configure_ADC+0x60>)
  401816:	4a15      	ldr	r2, [pc, #84]	; (40186c <configure_ADC+0x64>)
  401818:	f44f 2380 	mov.w	r3, #262144	; 0x40000
  40181c:	4d14      	ldr	r5, [pc, #80]	; (401870 <configure_ADC+0x68>)
  40181e:	47a8      	blx	r5
	*
	*     Transfer Time = (1 * 2 + 3) / 6.4MHz = 781 ns
	*     Tracking Time = (1 + 1) / 6.4MHz = 312 ns
	*     Settling Time = 3 / 6.4MHz = 469 ns
	*/
	adc_configure_timing(ADC, TRACKING_TIME	, ADC_SETTLING_TIME_3, TRANSFER_PERIOD);
  401820:	4620      	mov	r0, r4
  401822:	2101      	movs	r1, #1
  401824:	f44f 1240 	mov.w	r2, #3145728	; 0x300000
  401828:	460b      	mov	r3, r1
  40182a:	4d12      	ldr	r5, [pc, #72]	; (401874 <configure_ADC+0x6c>)
  40182c:	47a8      	blx	r5

	adc_configure_trigger(ADC, ADC_TRIG_SW, 0);
  40182e:	4620      	mov	r0, r4
  401830:	2100      	movs	r1, #0
  401832:	460a      	mov	r2, r1
  401834:	4b10      	ldr	r3, [pc, #64]	; (401878 <configure_ADC+0x70>)
  401836:	4798      	blx	r3

	//adc_check(ADC, sysclk_get_cpu_hz());

	/* Enable channel for potentiometer. */
	adc_enable_channel(ADC, ADC_POT_CHANNEL);
  401838:	4620      	mov	r0, r4
  40183a:	2105      	movs	r1, #5
  40183c:	4b0f      	ldr	r3, [pc, #60]	; (40187c <configure_ADC+0x74>)
  40183e:	4798      	blx	r3

	/* Enable the temperature sensor. */
	adc_enable_ts(ADC);
  401840:	4620      	mov	r0, r4
  401842:	4b0f      	ldr	r3, [pc, #60]	; (401880 <configure_ADC+0x78>)
  401844:	4798      	blx	r3
    \param [in]      IRQn  External interrupt number. Value cannot be negative.
 */
__STATIC_INLINE void NVIC_EnableIRQ(IRQn_Type IRQn)
{
/*  NVIC->ISER[((uint32_t)(IRQn) >> 5)] = (1 << ((uint32_t)(IRQn) & 0x1F));  enable interrupt */
  NVIC->ISER[(uint32_t)((int32_t)IRQn) >> 5] = (uint32_t)(1 << ((uint32_t)((int32_t)IRQn) & (uint32_t)0x1F)); /* enable interrupt */
  401846:	f04f 5200 	mov.w	r2, #536870912	; 0x20000000
  40184a:	4b0e      	ldr	r3, [pc, #56]	; (401884 <configure_ADC+0x7c>)
  40184c:	601a      	str	r2, [r3, #0]

	/* Enable ADC interrupt. */
	NVIC_EnableIRQ(ADC_IRQn);

	/* Start conversion. */
	adc_start(ADC);
  40184e:	4620      	mov	r0, r4
  401850:	4b0d      	ldr	r3, [pc, #52]	; (401888 <configure_ADC+0x80>)
  401852:	4798      	blx	r3
	//adc_read_buffer(ADC, gs_s_adc_values, BUFFER_SIZE);

	//adc_get_channel_value(ADC, ADC_POT_CHANNEL);

	/* Enable PDC channel interrupt. */
	adc_enable_interrupt(ADC, ADC_ISR_EOC5);
  401854:	4620      	mov	r0, r4
  401856:	2120      	movs	r1, #32
  401858:	4b0c      	ldr	r3, [pc, #48]	; (40188c <configure_ADC+0x84>)
  40185a:	4798      	blx	r3
  40185c:	bd38      	pop	{r3, r4, r5, pc}
  40185e:	bf00      	nop
  401860:	004011ed 	.word	0x004011ed
  401864:	40038000 	.word	0x40038000
  401868:	07270e00 	.word	0x07270e00
  40186c:	0061a800 	.word	0x0061a800
  401870:	00400129 	.word	0x00400129
  401874:	0040016d 	.word	0x0040016d
  401878:	0040015d 	.word	0x0040015d
  40187c:	00400195 	.word	0x00400195
  401880:	004001b5 	.word	0x004001b5
  401884:	e000e100 	.word	0xe000e100
  401888:	0040018d 	.word	0x0040018d
  40188c:	004001ad 	.word	0x004001ad

00401890 <main>:
* \brief Application entry point for smc_lcd example.
*
* \return Unused (ANSI-C compatibility).
*/
int main(void)
{
  401890:	b580      	push	{r7, lr}
  401892:	b082      	sub	sp, #8
  sysclk_init();
  401894:	4b3a      	ldr	r3, [pc, #232]	; (401980 <main+0xf0>)
  401896:	4798      	blx	r3
  board_init();
  401898:	4b3a      	ldr	r3, [pc, #232]	; (401984 <main+0xf4>)
  40189a:	4798      	blx	r3

  //uint16_t i = 0 ;

  configure_LCD();
  40189c:	4b3a      	ldr	r3, [pc, #232]	; (401988 <main+0xf8>)
  40189e:	4798      	blx	r3
  configure_DAC();
  4018a0:	4b3a      	ldr	r3, [pc, #232]	; (40198c <main+0xfc>)
  4018a2:	4798      	blx	r3
	uint32_t ul_sysclk = sysclk_get_cpu_hz();
	
	/*
	*	Ativa o clock do perifrico TC 0
	*/
	pmc_enable_periph_clk(ID_TC0);
  4018a4:	2017      	movs	r0, #23
  4018a6:	4e3a      	ldr	r6, [pc, #232]	; (401990 <main+0x100>)
  4018a8:	47b0      	blx	r6
	
	// Configura TC para operar no modo de comparao e trigger RC
	
	tc_init(TC0,0,TC_CMR_CPCTRG | TC_CMR_TCCLKS_TIMER_CLOCK5);
  4018aa:	4d3a      	ldr	r5, [pc, #232]	; (401994 <main+0x104>)
  4018ac:	4628      	mov	r0, r5
  4018ae:	2100      	movs	r1, #0
  4018b0:	f244 0204 	movw	r2, #16388	; 0x4004
  4018b4:	4b38      	ldr	r3, [pc, #224]	; (401998 <main+0x108>)
  4018b6:	4798      	blx	r3

	// Valor para o contador de um em um segundo.
	tc_write_rc(TC0,0,32768/1000);
  4018b8:	4628      	mov	r0, r5
  4018ba:	2100      	movs	r1, #0
  4018bc:	2220      	movs	r2, #32
  4018be:	4b37      	ldr	r3, [pc, #220]	; (40199c <main+0x10c>)
  4018c0:	4798      	blx	r3
  4018c2:	4c37      	ldr	r4, [pc, #220]	; (4019a0 <main+0x110>)
  4018c4:	f44f 0300 	mov.w	r3, #8388608	; 0x800000
  4018c8:	6023      	str	r3, [r4, #0]

	NVIC_EnableIRQ((IRQn_Type) ID_TC0);
	
	tc_enable_interrupt(TC0,0,TC_IER_CPCS);
  4018ca:	4628      	mov	r0, r5
  4018cc:	2100      	movs	r1, #0
  4018ce:	2210      	movs	r2, #16
  4018d0:	4b34      	ldr	r3, [pc, #208]	; (4019a4 <main+0x114>)
  4018d2:	4798      	blx	r3
	
	tc_start(TC0, 0);
  4018d4:	4628      	mov	r0, r5
  4018d6:	2100      	movs	r1, #0
  4018d8:	4b33      	ldr	r3, [pc, #204]	; (4019a8 <main+0x118>)
  4018da:	4798      	blx	r3
  //uint16_t i = 0 ;

  configure_LCD();
  configure_DAC();
  configure_TC();
  configure_ADC();
  4018dc:	4b33      	ldr	r3, [pc, #204]	; (4019ac <main+0x11c>)
  4018de:	4798      	blx	r3
200  *  pressed or released.
201  *
202  *	Configura os dois botes
203  */
static void configure_buttons(void){
		pmc_enable_periph_clk(PIN_PUSHBUTTON_1_ID);
  4018e0:	200c      	movs	r0, #12
  4018e2:	47b0      	blx	r6
		pmc_enable_periph_clk(PIN_PUSHBUTTON_2_ID);
  4018e4:	200d      	movs	r0, #13
  4018e6:	47b0      	blx	r6
	
		pio_set_input(PIN_PUSHBUTTON_1_PIO, PIN_PUSHBUTTON_1_MASK, PIO_PULLUP | PIO_DEBOUNCE);
  4018e8:	4e31      	ldr	r6, [pc, #196]	; (4019b0 <main+0x120>)
  4018ea:	4630      	mov	r0, r6
  4018ec:	2108      	movs	r1, #8
  4018ee:	2209      	movs	r2, #9
  4018f0:	4f30      	ldr	r7, [pc, #192]	; (4019b4 <main+0x124>)
  4018f2:	47b8      	blx	r7
		pio_set_input(PIN_PUSHBUTTON_2_PIO, PIN_PUSHBUTTON_2_MASK, PIO_PULLUP | PIO_DEBOUNCE);
  4018f4:	f505 2551 	add.w	r5, r5, #856064	; 0xd1000
  4018f8:	f505 7500 	add.w	r5, r5, #512	; 0x200
  4018fc:	4628      	mov	r0, r5
  4018fe:	f44f 5180 	mov.w	r1, #4096	; 0x1000
  401902:	2209      	movs	r2, #9
  401904:	47b8      	blx	r7
	
	
		pio_set_debounce_filter(PIN_PUSHBUTTON_1_PIO, PIN_PUSHBUTTON_1_MASK, 10);
  401906:	4630      	mov	r0, r6
  401908:	2108      	movs	r1, #8
  40190a:	220a      	movs	r2, #10
  40190c:	4f2a      	ldr	r7, [pc, #168]	; (4019b8 <main+0x128>)
  40190e:	47b8      	blx	r7
		pio_set_debounce_filter(PIN_PUSHBUTTON_2_PIO, PIN_PUSHBUTTON_2_MASK, 10);
  401910:	4628      	mov	r0, r5
  401912:	f44f 5180 	mov.w	r1, #4096	; 0x1000
  401916:	220a      	movs	r2, #10
  401918:	47b8      	blx	r7

		pio_handler_set(PIN_PUSHBUTTON_1_PIO, PIN_PUSHBUTTON_1_ID, PIN_PUSHBUTTON_1_MASK, PIO_IT_FALL_EDGE | PIO_PULLUP, Button1_Handler);
  40191a:	4b28      	ldr	r3, [pc, #160]	; (4019bc <main+0x12c>)
  40191c:	9300      	str	r3, [sp, #0]
  40191e:	4630      	mov	r0, r6
  401920:	210c      	movs	r1, #12
  401922:	2208      	movs	r2, #8
  401924:	2351      	movs	r3, #81	; 0x51
  401926:	4f26      	ldr	r7, [pc, #152]	; (4019c0 <main+0x130>)
  401928:	47b8      	blx	r7
		pio_handler_set(PIN_PUSHBUTTON_2_PIO, PIN_PUSHBUTTON_2_ID, PIN_PUSHBUTTON_2_MASK, PIO_IT_FALL_EDGE | PIO_PULLUP, Button2_Handler);
  40192a:	4b26      	ldr	r3, [pc, #152]	; (4019c4 <main+0x134>)
  40192c:	9300      	str	r3, [sp, #0]
  40192e:	4628      	mov	r0, r5
  401930:	210d      	movs	r1, #13
  401932:	f44f 5280 	mov.w	r2, #4096	; 0x1000
  401936:	2351      	movs	r3, #81	; 0x51
  401938:	47b8      	blx	r7
	
	 	pio_enable_interrupt(PIN_PUSHBUTTON_1_PIO, PIN_PUSHBUTTON_1_MASK);
  40193a:	4630      	mov	r0, r6
  40193c:	2108      	movs	r1, #8
  40193e:	4e22      	ldr	r6, [pc, #136]	; (4019c8 <main+0x138>)
  401940:	47b0      	blx	r6
	 	pio_enable_interrupt(PIN_PUSHBUTTON_2_PIO, PIN_PUSHBUTTON_2_MASK);
  401942:	4628      	mov	r0, r5
  401944:	f44f 5180 	mov.w	r1, #4096	; 0x1000
  401948:	47b0      	blx	r6
__STATIC_INLINE void NVIC_SetPriority(IRQn_Type IRQn, uint32_t priority)
{
  if(IRQn < 0) {
    SCB->SHP[((uint32_t)(IRQn) & 0xF)-4] = ((priority << (8 - __NVIC_PRIO_BITS)) & 0xff); } /* set Priority for Cortex-M  System Interrupts */
  else {
    NVIC->IP[(uint32_t)(IRQn)] = ((priority << (8 - __NVIC_PRIO_BITS)) & 0xff);    }        /* set Priority for device specific Interrupts  */
  40194a:	2000      	movs	r0, #0
  40194c:	f884 030c 	strb.w	r0, [r4, #780]	; 0x30c
  401950:	f884 030d 	strb.w	r0, [r4, #781]	; 0x30d
    \param [in]      IRQn  External interrupt number. Value cannot be negative.
 */
__STATIC_INLINE void NVIC_EnableIRQ(IRQn_Type IRQn)
{
/*  NVIC->ISER[((uint32_t)(IRQn) >> 5)] = (1 << ((uint32_t)(IRQn) & 0x1F));  enable interrupt */
  NVIC->ISER[(uint32_t)((int32_t)IRQn) >> 5] = (uint32_t)(1 << ((uint32_t)((int32_t)IRQn) & (uint32_t)0x1F)); /* enable interrupt */
  401954:	f44f 5380 	mov.w	r3, #4096	; 0x1000
  401958:	6023      	str	r3, [r4, #0]
  40195a:	f44f 5300 	mov.w	r3, #8192	; 0x2000
  40195e:	6023      	str	r3, [r4, #0]
  configure_ADC();
  configure_buttons();
  
  
  /** Escreve contador e tempo no display. */
  ili93xx_set_foreground_color(COLOR_BLACK);
  401960:	4b1a      	ldr	r3, [pc, #104]	; (4019cc <main+0x13c>)
  401962:	4798      	blx	r3
  ili93xx_draw_string(10, 110, (uint8_t *)"Contador");
  401964:	200a      	movs	r0, #10
  401966:	216e      	movs	r1, #110	; 0x6e
  401968:	4a19      	ldr	r2, [pc, #100]	; (4019d0 <main+0x140>)
  40196a:	4c1a      	ldr	r4, [pc, #104]	; (4019d4 <main+0x144>)
  40196c:	47a0      	blx	r4
  ili93xx_draw_string(10, 150, (uint8_t *)"Amplitude");
  40196e:	200a      	movs	r0, #10
  401970:	2196      	movs	r1, #150	; 0x96
  401972:	4a19      	ldr	r2, [pc, #100]	; (4019d8 <main+0x148>)
  401974:	47a0      	blx	r4
  
  amplitude = 1;
  401976:	2201      	movs	r2, #1
  401978:	4b18      	ldr	r3, [pc, #96]	; (4019dc <main+0x14c>)
  40197a:	601a      	str	r2, [r3, #0]
      /*delay_us(500);
      if(i<= MAX_DIGITAL)
        dacc_write_conversion_data(DACC_BASE, i++);
      else
        i = 0;*/
}
  40197c:	e7fe      	b.n	40197c <main+0xec>
  40197e:	bf00      	nop
  401980:	0040026d 	.word	0x0040026d
  401984:	004002d1 	.word	0x004002d1
  401988:	004016dd 	.word	0x004016dd
  40198c:	004017b9 	.word	0x004017b9
  401990:	004011ed 	.word	0x004011ed
  401994:	40010000 	.word	0x40010000
  401998:	00400231 	.word	0x00400231
  40199c:	00400255 	.word	0x00400255
  4019a0:	e000e100 	.word	0xe000e100
  4019a4:	0040025d 	.word	0x0040025d
  4019a8:	0040024d 	.word	0x0040024d
  4019ac:	00401809 	.word	0x00401809
  4019b0:	400e1000 	.word	0x400e1000
  4019b4:	00400d81 	.word	0x00400d81
  4019b8:	00400cd1 	.word	0x00400cd1
  4019bc:	004016c5 	.word	0x004016c5
  4019c0:	00401085 	.word	0x00401085
  4019c4:	004016ad 	.word	0x004016ad
  4019c8:	00400e0d 	.word	0x00400e0d
  4019cc:	0040063d 	.word	0x0040063d
  4019d0:	0041f6f8 	.word	0x0041f6f8
  4019d4:	00400b41 	.word	0x00400b41
  4019d8:	0041f704 	.word	0x0041f704
  4019dc:	20000d20 	.word	0x20000d20

004019e0 <sin>:
  4019e0:	b530      	push	{r4, r5, lr}
  4019e2:	4a22      	ldr	r2, [pc, #136]	; (401a6c <sin+0x8c>)
  4019e4:	f021 4300 	bic.w	r3, r1, #2147483648	; 0x80000000
  4019e8:	4293      	cmp	r3, r2
  4019ea:	b087      	sub	sp, #28
  4019ec:	dd1b      	ble.n	401a26 <sin+0x46>
  4019ee:	4a20      	ldr	r2, [pc, #128]	; (401a70 <sin+0x90>)
  4019f0:	4293      	cmp	r3, r2
  4019f2:	dd05      	ble.n	401a00 <sin+0x20>
  4019f4:	4602      	mov	r2, r0
  4019f6:	460b      	mov	r3, r1
  4019f8:	f001 f960 	bl	402cbc <__aeabi_dsub>
  4019fc:	b007      	add	sp, #28
  4019fe:	bd30      	pop	{r4, r5, pc}
  401a00:	aa02      	add	r2, sp, #8
  401a02:	f000 f839 	bl	401a78 <__ieee754_rem_pio2>
  401a06:	f000 0003 	and.w	r0, r0, #3
  401a0a:	2801      	cmp	r0, #1
  401a0c:	d01e      	beq.n	401a4c <sin+0x6c>
  401a0e:	2802      	cmp	r0, #2
  401a10:	d011      	beq.n	401a36 <sin+0x56>
  401a12:	b310      	cbz	r0, 401a5a <sin+0x7a>
  401a14:	e9dd 0102 	ldrd	r0, r1, [sp, #8]
  401a18:	e9dd 2304 	ldrd	r2, r3, [sp, #16]
  401a1c:	f000 fa50 	bl	401ec0 <__kernel_cos>
  401a20:	f101 4100 	add.w	r1, r1, #2147483648	; 0x80000000
  401a24:	e7ea      	b.n	4019fc <sin+0x1c>
  401a26:	2300      	movs	r3, #0
  401a28:	9300      	str	r3, [sp, #0]
  401a2a:	2200      	movs	r2, #0
  401a2c:	2300      	movs	r3, #0
  401a2e:	f000 ff6f 	bl	402910 <__kernel_sin>
  401a32:	b007      	add	sp, #28
  401a34:	bd30      	pop	{r4, r5, pc}
  401a36:	2401      	movs	r4, #1
  401a38:	e9dd 0102 	ldrd	r0, r1, [sp, #8]
  401a3c:	e9dd 2304 	ldrd	r2, r3, [sp, #16]
  401a40:	9400      	str	r4, [sp, #0]
  401a42:	f000 ff65 	bl	402910 <__kernel_sin>
  401a46:	f101 4100 	add.w	r1, r1, #2147483648	; 0x80000000
  401a4a:	e7d7      	b.n	4019fc <sin+0x1c>
  401a4c:	e9dd 0102 	ldrd	r0, r1, [sp, #8]
  401a50:	e9dd 2304 	ldrd	r2, r3, [sp, #16]
  401a54:	f000 fa34 	bl	401ec0 <__kernel_cos>
  401a58:	e7d0      	b.n	4019fc <sin+0x1c>
  401a5a:	2401      	movs	r4, #1
  401a5c:	e9dd 0102 	ldrd	r0, r1, [sp, #8]
  401a60:	e9dd 2304 	ldrd	r2, r3, [sp, #16]
  401a64:	9400      	str	r4, [sp, #0]
  401a66:	f000 ff53 	bl	402910 <__kernel_sin>
  401a6a:	e7c7      	b.n	4019fc <sin+0x1c>
  401a6c:	3fe921fb 	.word	0x3fe921fb
  401a70:	7fefffff 	.word	0x7fefffff
  401a74:	00000000 	.word	0x00000000

00401a78 <__ieee754_rem_pio2>:
  401a78:	e92d 4ff0 	stmdb	sp!, {r4, r5, r6, r7, r8, r9, sl, fp, lr}
  401a7c:	4e96      	ldr	r6, [pc, #600]	; (401cd8 <__ieee754_rem_pio2+0x260>)
  401a7e:	f021 4b00 	bic.w	fp, r1, #2147483648	; 0x80000000
  401a82:	45b3      	cmp	fp, r6
  401a84:	b08f      	sub	sp, #60	; 0x3c
  401a86:	460c      	mov	r4, r1
  401a88:	f340 8081 	ble.w	401b8e <__ieee754_rem_pio2+0x116>
  401a8c:	4692      	mov	sl, r2
  401a8e:	4a93      	ldr	r2, [pc, #588]	; (401cdc <__ieee754_rem_pio2+0x264>)
  401a90:	4593      	cmp	fp, r2
  401a92:	dc26      	bgt.n	401ae2 <__ieee754_rem_pio2+0x6a>
  401a94:	2900      	cmp	r1, #0
  401a96:	a386      	add	r3, pc, #536	; (adr r3, 401cb0 <__ieee754_rem_pio2+0x238>)
  401a98:	e9d3 2300 	ldrd	r2, r3, [r3]
  401a9c:	f340 81a8 	ble.w	401df0 <__ieee754_rem_pio2+0x378>
  401aa0:	f001 f90c 	bl	402cbc <__aeabi_dsub>
  401aa4:	4b8e      	ldr	r3, [pc, #568]	; (401ce0 <__ieee754_rem_pio2+0x268>)
  401aa6:	459b      	cmp	fp, r3
  401aa8:	4604      	mov	r4, r0
  401aaa:	460d      	mov	r5, r1
  401aac:	f000 8084 	beq.w	401bb8 <__ieee754_rem_pio2+0x140>
  401ab0:	a381      	add	r3, pc, #516	; (adr r3, 401cb8 <__ieee754_rem_pio2+0x240>)
  401ab2:	e9d3 2300 	ldrd	r2, r3, [r3]
  401ab6:	f001 f901 	bl	402cbc <__aeabi_dsub>
  401aba:	4602      	mov	r2, r0
  401abc:	460b      	mov	r3, r1
  401abe:	e9ca 2300 	strd	r2, r3, [sl]
  401ac2:	4620      	mov	r0, r4
  401ac4:	4629      	mov	r1, r5
  401ac6:	f001 f8f9 	bl	402cbc <__aeabi_dsub>
  401aca:	a37b      	add	r3, pc, #492	; (adr r3, 401cb8 <__ieee754_rem_pio2+0x240>)
  401acc:	e9d3 2300 	ldrd	r2, r3, [r3]
  401ad0:	f001 f8f4 	bl	402cbc <__aeabi_dsub>
  401ad4:	2501      	movs	r5, #1
  401ad6:	e9ca 0102 	strd	r0, r1, [sl, #8]
  401ada:	4628      	mov	r0, r5
  401adc:	b00f      	add	sp, #60	; 0x3c
  401ade:	e8bd 8ff0 	ldmia.w	sp!, {r4, r5, r6, r7, r8, r9, sl, fp, pc}
  401ae2:	4a80      	ldr	r2, [pc, #512]	; (401ce4 <__ieee754_rem_pio2+0x26c>)
  401ae4:	4593      	cmp	fp, r2
  401ae6:	f340 8084 	ble.w	401bf2 <__ieee754_rem_pio2+0x17a>
  401aea:	4a7f      	ldr	r2, [pc, #508]	; (401ce8 <__ieee754_rem_pio2+0x270>)
  401aec:	4593      	cmp	fp, r2
  401aee:	dc59      	bgt.n	401ba4 <__ieee754_rem_pio2+0x12c>
  401af0:	ea4f 552b 	mov.w	r5, fp, asr #20
  401af4:	f2a5 4516 	subw	r5, r5, #1046	; 0x416
  401af8:	ebab 5705 	sub.w	r7, fp, r5, lsl #20
  401afc:	4639      	mov	r1, r7
  401afe:	4606      	mov	r6, r0
  401b00:	f001 fd2a 	bl	403558 <__aeabi_d2iz>
  401b04:	f001 fa28 	bl	402f58 <__aeabi_i2d>
  401b08:	4680      	mov	r8, r0
  401b0a:	4689      	mov	r9, r1
  401b0c:	4602      	mov	r2, r0
  401b0e:	460b      	mov	r3, r1
  401b10:	4630      	mov	r0, r6
  401b12:	4639      	mov	r1, r7
  401b14:	e9cd 8908 	strd	r8, r9, [sp, #32]
  401b18:	f001 f8d0 	bl	402cbc <__aeabi_dsub>
  401b1c:	2200      	movs	r2, #0
  401b1e:	4b73      	ldr	r3, [pc, #460]	; (401cec <__ieee754_rem_pio2+0x274>)
  401b20:	f001 fa80 	bl	403024 <__aeabi_dmul>
  401b24:	460f      	mov	r7, r1
  401b26:	4606      	mov	r6, r0
  401b28:	f001 fd16 	bl	403558 <__aeabi_d2iz>
  401b2c:	f001 fa14 	bl	402f58 <__aeabi_i2d>
  401b30:	4602      	mov	r2, r0
  401b32:	460b      	mov	r3, r1
  401b34:	4680      	mov	r8, r0
  401b36:	4689      	mov	r9, r1
  401b38:	4630      	mov	r0, r6
  401b3a:	4639      	mov	r1, r7
  401b3c:	e9cd 890a 	strd	r8, r9, [sp, #40]	; 0x28
  401b40:	f001 f8bc 	bl	402cbc <__aeabi_dsub>
  401b44:	2200      	movs	r2, #0
  401b46:	4b69      	ldr	r3, [pc, #420]	; (401cec <__ieee754_rem_pio2+0x274>)
  401b48:	f001 fa6c 	bl	403024 <__aeabi_dmul>
  401b4c:	2200      	movs	r2, #0
  401b4e:	2300      	movs	r3, #0
  401b50:	e9cd 010c 	strd	r0, r1, [sp, #48]	; 0x30
  401b54:	f001 fcce 	bl	4034f4 <__aeabi_dcmpeq>
  401b58:	2800      	cmp	r0, #0
  401b5a:	f000 8175 	beq.w	401e48 <__ieee754_rem_pio2+0x3d0>
  401b5e:	2300      	movs	r3, #0
  401b60:	4640      	mov	r0, r8
  401b62:	4649      	mov	r1, r9
  401b64:	2200      	movs	r2, #0
  401b66:	f001 fcc5 	bl	4034f4 <__aeabi_dcmpeq>
  401b6a:	2800      	cmp	r0, #0
  401b6c:	bf14      	ite	ne
  401b6e:	2301      	movne	r3, #1
  401b70:	2302      	moveq	r3, #2
  401b72:	2202      	movs	r2, #2
  401b74:	495e      	ldr	r1, [pc, #376]	; (401cf0 <__ieee754_rem_pio2+0x278>)
  401b76:	9200      	str	r2, [sp, #0]
  401b78:	9101      	str	r1, [sp, #4]
  401b7a:	462a      	mov	r2, r5
  401b7c:	a808      	add	r0, sp, #32
  401b7e:	4651      	mov	r1, sl
  401b80:	f000 fac2 	bl	402108 <__kernel_rem_pio2>
  401b84:	2c00      	cmp	r4, #0
  401b86:	f2c0 8151 	blt.w	401e2c <__ieee754_rem_pio2+0x3b4>
  401b8a:	4605      	mov	r5, r0
  401b8c:	e006      	b.n	401b9c <__ieee754_rem_pio2+0x124>
  401b8e:	e9c2 0100 	strd	r0, r1, [r2]
  401b92:	2500      	movs	r5, #0
  401b94:	2400      	movs	r4, #0
  401b96:	e9c2 4502 	strd	r4, r5, [r2, #8]
  401b9a:	2500      	movs	r5, #0
  401b9c:	4628      	mov	r0, r5
  401b9e:	b00f      	add	sp, #60	; 0x3c
  401ba0:	e8bd 8ff0 	ldmia.w	sp!, {r4, r5, r6, r7, r8, r9, sl, fp, pc}
  401ba4:	4602      	mov	r2, r0
  401ba6:	460b      	mov	r3, r1
  401ba8:	f001 f888 	bl	402cbc <__aeabi_dsub>
  401bac:	2500      	movs	r5, #0
  401bae:	e9ca 0102 	strd	r0, r1, [sl, #8]
  401bb2:	e9ca 0100 	strd	r0, r1, [sl]
  401bb6:	e7f1      	b.n	401b9c <__ieee754_rem_pio2+0x124>
  401bb8:	a341      	add	r3, pc, #260	; (adr r3, 401cc0 <__ieee754_rem_pio2+0x248>)
  401bba:	e9d3 2300 	ldrd	r2, r3, [r3]
  401bbe:	f001 f87d 	bl	402cbc <__aeabi_dsub>
  401bc2:	a341      	add	r3, pc, #260	; (adr r3, 401cc8 <__ieee754_rem_pio2+0x250>)
  401bc4:	e9d3 2300 	ldrd	r2, r3, [r3]
  401bc8:	460d      	mov	r5, r1
  401bca:	4604      	mov	r4, r0
  401bcc:	f001 f876 	bl	402cbc <__aeabi_dsub>
  401bd0:	4602      	mov	r2, r0
  401bd2:	460b      	mov	r3, r1
  401bd4:	e9ca 2300 	strd	r2, r3, [sl]
  401bd8:	4629      	mov	r1, r5
  401bda:	4620      	mov	r0, r4
  401bdc:	f001 f86e 	bl	402cbc <__aeabi_dsub>
  401be0:	a339      	add	r3, pc, #228	; (adr r3, 401cc8 <__ieee754_rem_pio2+0x250>)
  401be2:	e9d3 2300 	ldrd	r2, r3, [r3]
  401be6:	f001 f869 	bl	402cbc <__aeabi_dsub>
  401bea:	2501      	movs	r5, #1
  401bec:	e9ca 0102 	strd	r0, r1, [sl, #8]
  401bf0:	e7d4      	b.n	401b9c <__ieee754_rem_pio2+0x124>
  401bf2:	f000 ff43 	bl	402a7c <fabs>
  401bf6:	a336      	add	r3, pc, #216	; (adr r3, 401cd0 <__ieee754_rem_pio2+0x258>)
  401bf8:	e9d3 2300 	ldrd	r2, r3, [r3]
  401bfc:	4606      	mov	r6, r0
  401bfe:	460f      	mov	r7, r1
  401c00:	f001 fa10 	bl	403024 <__aeabi_dmul>
  401c04:	2200      	movs	r2, #0
  401c06:	4b3b      	ldr	r3, [pc, #236]	; (401cf4 <__ieee754_rem_pio2+0x27c>)
  401c08:	f001 f85a 	bl	402cc0 <__adddf3>
  401c0c:	f001 fca4 	bl	403558 <__aeabi_d2iz>
  401c10:	4605      	mov	r5, r0
  401c12:	f001 f9a1 	bl	402f58 <__aeabi_i2d>
  401c16:	a326      	add	r3, pc, #152	; (adr r3, 401cb0 <__ieee754_rem_pio2+0x238>)
  401c18:	e9d3 2300 	ldrd	r2, r3, [r3]
  401c1c:	e9cd 0104 	strd	r0, r1, [sp, #16]
  401c20:	f001 fa00 	bl	403024 <__aeabi_dmul>
  401c24:	4602      	mov	r2, r0
  401c26:	460b      	mov	r3, r1
  401c28:	4630      	mov	r0, r6
  401c2a:	4639      	mov	r1, r7
  401c2c:	f001 f846 	bl	402cbc <__aeabi_dsub>
  401c30:	a321      	add	r3, pc, #132	; (adr r3, 401cb8 <__ieee754_rem_pio2+0x240>)
  401c32:	e9d3 2300 	ldrd	r2, r3, [r3]
  401c36:	4680      	mov	r8, r0
  401c38:	4689      	mov	r9, r1
  401c3a:	e9dd 0104 	ldrd	r0, r1, [sp, #16]
  401c3e:	f001 f9f1 	bl	403024 <__aeabi_dmul>
  401c42:	2d1f      	cmp	r5, #31
  401c44:	e9cd 0102 	strd	r0, r1, [sp, #8]
  401c48:	4640      	mov	r0, r8
  401c4a:	4649      	mov	r1, r9
  401c4c:	dc56      	bgt.n	401cfc <__ieee754_rem_pio2+0x284>
  401c4e:	4b2a      	ldr	r3, [pc, #168]	; (401cf8 <__ieee754_rem_pio2+0x280>)
  401c50:	1e6a      	subs	r2, r5, #1
  401c52:	f853 3022 	ldr.w	r3, [r3, r2, lsl #2]
  401c56:	455b      	cmp	r3, fp
  401c58:	d050      	beq.n	401cfc <__ieee754_rem_pio2+0x284>
  401c5a:	e9dd 2302 	ldrd	r2, r3, [sp, #8]
  401c5e:	f001 f82d 	bl	402cbc <__aeabi_dsub>
  401c62:	4602      	mov	r2, r0
  401c64:	460b      	mov	r3, r1
  401c66:	e9ca 2300 	strd	r2, r3, [sl]
  401c6a:	4607      	mov	r7, r0
  401c6c:	460e      	mov	r6, r1
  401c6e:	463a      	mov	r2, r7
  401c70:	4633      	mov	r3, r6
  401c72:	4640      	mov	r0, r8
  401c74:	4649      	mov	r1, r9
  401c76:	f001 f821 	bl	402cbc <__aeabi_dsub>
  401c7a:	e9dd 2302 	ldrd	r2, r3, [sp, #8]
  401c7e:	f001 f81d 	bl	402cbc <__aeabi_dsub>
  401c82:	2c00      	cmp	r4, #0
  401c84:	4602      	mov	r2, r0
  401c86:	460b      	mov	r3, r1
  401c88:	e9ca 2302 	strd	r2, r3, [sl, #8]
  401c8c:	da86      	bge.n	401b9c <__ieee754_rem_pio2+0x124>
  401c8e:	f106 4600 	add.w	r6, r6, #2147483648	; 0x80000000
  401c92:	f101 4100 	add.w	r1, r1, #2147483648	; 0x80000000
  401c96:	f8ca 7000 	str.w	r7, [sl]
  401c9a:	f8ca 6004 	str.w	r6, [sl, #4]
  401c9e:	f8ca 100c 	str.w	r1, [sl, #12]
  401ca2:	f8ca 0008 	str.w	r0, [sl, #8]
  401ca6:	426d      	negs	r5, r5
  401ca8:	e778      	b.n	401b9c <__ieee754_rem_pio2+0x124>
  401caa:	bf00      	nop
  401cac:	f3af 8000 	nop.w
  401cb0:	54400000 	.word	0x54400000
  401cb4:	3ff921fb 	.word	0x3ff921fb
  401cb8:	1a626331 	.word	0x1a626331
  401cbc:	3dd0b461 	.word	0x3dd0b461
  401cc0:	1a600000 	.word	0x1a600000
  401cc4:	3dd0b461 	.word	0x3dd0b461
  401cc8:	2e037073 	.word	0x2e037073
  401ccc:	3ba3198a 	.word	0x3ba3198a
  401cd0:	6dc9c883 	.word	0x6dc9c883
  401cd4:	3fe45f30 	.word	0x3fe45f30
  401cd8:	3fe921fb 	.word	0x3fe921fb
  401cdc:	4002d97b 	.word	0x4002d97b
  401ce0:	3ff921fb 	.word	0x3ff921fb
  401ce4:	413921fb 	.word	0x413921fb
  401ce8:	7fefffff 	.word	0x7fefffff
  401cec:	41700000 	.word	0x41700000
  401cf0:	0041f790 	.word	0x0041f790
  401cf4:	3fe00000 	.word	0x3fe00000
  401cf8:	0041f710 	.word	0x0041f710
  401cfc:	e9dd 2302 	ldrd	r2, r3, [sp, #8]
  401d00:	f000 ffdc 	bl	402cbc <__aeabi_dsub>
  401d04:	460e      	mov	r6, r1
  401d06:	ea4f 5b2b 	mov.w	fp, fp, asr #20
  401d0a:	f3c6 530a 	ubfx	r3, r6, #20, #11
  401d0e:	ebc3 030b 	rsb	r3, r3, fp
  401d12:	2b10      	cmp	r3, #16
  401d14:	4607      	mov	r7, r0
  401d16:	e9ca 0100 	strd	r0, r1, [sl]
  401d1a:	dda8      	ble.n	401c6e <__ieee754_rem_pio2+0x1f6>
  401d1c:	a35c      	add	r3, pc, #368	; (adr r3, 401e90 <__ieee754_rem_pio2+0x418>)
  401d1e:	e9d3 2300 	ldrd	r2, r3, [r3]
  401d22:	e9dd 0104 	ldrd	r0, r1, [sp, #16]
  401d26:	f001 f97d 	bl	403024 <__aeabi_dmul>
  401d2a:	4606      	mov	r6, r0
  401d2c:	460f      	mov	r7, r1
  401d2e:	4632      	mov	r2, r6
  401d30:	463b      	mov	r3, r7
  401d32:	4640      	mov	r0, r8
  401d34:	4649      	mov	r1, r9
  401d36:	f000 ffc1 	bl	402cbc <__aeabi_dsub>
  401d3a:	e9cd 0106 	strd	r0, r1, [sp, #24]
  401d3e:	e9dd 2306 	ldrd	r2, r3, [sp, #24]
  401d42:	4640      	mov	r0, r8
  401d44:	4649      	mov	r1, r9
  401d46:	f000 ffb9 	bl	402cbc <__aeabi_dsub>
  401d4a:	4632      	mov	r2, r6
  401d4c:	463b      	mov	r3, r7
  401d4e:	f000 ffb5 	bl	402cbc <__aeabi_dsub>
  401d52:	a351      	add	r3, pc, #324	; (adr r3, 401e98 <__ieee754_rem_pio2+0x420>)
  401d54:	e9d3 2300 	ldrd	r2, r3, [r3]
  401d58:	4606      	mov	r6, r0
  401d5a:	460f      	mov	r7, r1
  401d5c:	e9dd 0104 	ldrd	r0, r1, [sp, #16]
  401d60:	f001 f960 	bl	403024 <__aeabi_dmul>
  401d64:	4632      	mov	r2, r6
  401d66:	463b      	mov	r3, r7
  401d68:	f000 ffa8 	bl	402cbc <__aeabi_dsub>
  401d6c:	e9cd 0102 	strd	r0, r1, [sp, #8]
  401d70:	e9dd 2302 	ldrd	r2, r3, [sp, #8]
  401d74:	e9dd 0106 	ldrd	r0, r1, [sp, #24]
  401d78:	f000 ffa0 	bl	402cbc <__aeabi_dsub>
  401d7c:	460e      	mov	r6, r1
  401d7e:	f3c1 510a 	ubfx	r1, r1, #20, #11
  401d82:	ebc1 0b0b 	rsb	fp, r1, fp
  401d86:	4602      	mov	r2, r0
  401d88:	4633      	mov	r3, r6
  401d8a:	f1bb 0f31 	cmp.w	fp, #49	; 0x31
  401d8e:	4607      	mov	r7, r0
  401d90:	e9ca 2300 	strd	r2, r3, [sl]
  401d94:	dd78      	ble.n	401e88 <__ieee754_rem_pio2+0x410>
  401d96:	a342      	add	r3, pc, #264	; (adr r3, 401ea0 <__ieee754_rem_pio2+0x428>)
  401d98:	e9d3 2300 	ldrd	r2, r3, [r3]
  401d9c:	e9dd 0104 	ldrd	r0, r1, [sp, #16]
  401da0:	f001 f940 	bl	403024 <__aeabi_dmul>
  401da4:	4606      	mov	r6, r0
  401da6:	460f      	mov	r7, r1
  401da8:	4632      	mov	r2, r6
  401daa:	463b      	mov	r3, r7
  401dac:	e9dd 0106 	ldrd	r0, r1, [sp, #24]
  401db0:	f000 ff84 	bl	402cbc <__aeabi_dsub>
  401db4:	4680      	mov	r8, r0
  401db6:	4689      	mov	r9, r1
  401db8:	4642      	mov	r2, r8
  401dba:	464b      	mov	r3, r9
  401dbc:	e9dd 0106 	ldrd	r0, r1, [sp, #24]
  401dc0:	f000 ff7c 	bl	402cbc <__aeabi_dsub>
  401dc4:	4632      	mov	r2, r6
  401dc6:	463b      	mov	r3, r7
  401dc8:	f000 ff78 	bl	402cbc <__aeabi_dsub>
  401dcc:	a336      	add	r3, pc, #216	; (adr r3, 401ea8 <__ieee754_rem_pio2+0x430>)
  401dce:	e9d3 2300 	ldrd	r2, r3, [r3]
  401dd2:	4606      	mov	r6, r0
  401dd4:	460f      	mov	r7, r1
  401dd6:	e9dd 0104 	ldrd	r0, r1, [sp, #16]
  401dda:	f001 f923 	bl	403024 <__aeabi_dmul>
  401dde:	4632      	mov	r2, r6
  401de0:	463b      	mov	r3, r7
  401de2:	f000 ff6b 	bl	402cbc <__aeabi_dsub>
  401de6:	e9cd 0102 	strd	r0, r1, [sp, #8]
  401dea:	4640      	mov	r0, r8
  401dec:	4649      	mov	r1, r9
  401dee:	e734      	b.n	401c5a <__ieee754_rem_pio2+0x1e2>
  401df0:	f000 ff66 	bl	402cc0 <__adddf3>
  401df4:	4b30      	ldr	r3, [pc, #192]	; (401eb8 <__ieee754_rem_pio2+0x440>)
  401df6:	459b      	cmp	fp, r3
  401df8:	4604      	mov	r4, r0
  401dfa:	460d      	mov	r5, r1
  401dfc:	d026      	beq.n	401e4c <__ieee754_rem_pio2+0x3d4>
  401dfe:	a32c      	add	r3, pc, #176	; (adr r3, 401eb0 <__ieee754_rem_pio2+0x438>)
  401e00:	e9d3 2300 	ldrd	r2, r3, [r3]
  401e04:	f000 ff5c 	bl	402cc0 <__adddf3>
  401e08:	4602      	mov	r2, r0
  401e0a:	460b      	mov	r3, r1
  401e0c:	e9ca 2300 	strd	r2, r3, [sl]
  401e10:	4629      	mov	r1, r5
  401e12:	4620      	mov	r0, r4
  401e14:	f000 ff52 	bl	402cbc <__aeabi_dsub>
  401e18:	a325      	add	r3, pc, #148	; (adr r3, 401eb0 <__ieee754_rem_pio2+0x438>)
  401e1a:	e9d3 2300 	ldrd	r2, r3, [r3]
  401e1e:	f000 ff4f 	bl	402cc0 <__adddf3>
  401e22:	f04f 35ff 	mov.w	r5, #4294967295
  401e26:	e9ca 0102 	strd	r0, r1, [sl, #8]
  401e2a:	e6b7      	b.n	401b9c <__ieee754_rem_pio2+0x124>
  401e2c:	f8da 2004 	ldr.w	r2, [sl, #4]
  401e30:	f8da 300c 	ldr.w	r3, [sl, #12]
  401e34:	f102 4200 	add.w	r2, r2, #2147483648	; 0x80000000
  401e38:	f103 4300 	add.w	r3, r3, #2147483648	; 0x80000000
  401e3c:	4245      	negs	r5, r0
  401e3e:	f8ca 2004 	str.w	r2, [sl, #4]
  401e42:	f8ca 300c 	str.w	r3, [sl, #12]
  401e46:	e6a9      	b.n	401b9c <__ieee754_rem_pio2+0x124>
  401e48:	2303      	movs	r3, #3
  401e4a:	e692      	b.n	401b72 <__ieee754_rem_pio2+0xfa>
  401e4c:	a310      	add	r3, pc, #64	; (adr r3, 401e90 <__ieee754_rem_pio2+0x418>)
  401e4e:	e9d3 2300 	ldrd	r2, r3, [r3]
  401e52:	f000 ff35 	bl	402cc0 <__adddf3>
  401e56:	a310      	add	r3, pc, #64	; (adr r3, 401e98 <__ieee754_rem_pio2+0x420>)
  401e58:	e9d3 2300 	ldrd	r2, r3, [r3]
  401e5c:	460d      	mov	r5, r1
  401e5e:	4604      	mov	r4, r0
  401e60:	f000 ff2e 	bl	402cc0 <__adddf3>
  401e64:	4602      	mov	r2, r0
  401e66:	460b      	mov	r3, r1
  401e68:	e9ca 2300 	strd	r2, r3, [sl]
  401e6c:	4629      	mov	r1, r5
  401e6e:	4620      	mov	r0, r4
  401e70:	f000 ff24 	bl	402cbc <__aeabi_dsub>
  401e74:	a308      	add	r3, pc, #32	; (adr r3, 401e98 <__ieee754_rem_pio2+0x420>)
  401e76:	e9d3 2300 	ldrd	r2, r3, [r3]
  401e7a:	f000 ff21 	bl	402cc0 <__adddf3>
  401e7e:	f04f 35ff 	mov.w	r5, #4294967295
  401e82:	e9ca 0102 	strd	r0, r1, [sl, #8]
  401e86:	e689      	b.n	401b9c <__ieee754_rem_pio2+0x124>
  401e88:	e9dd 8906 	ldrd	r8, r9, [sp, #24]
  401e8c:	e6ef      	b.n	401c6e <__ieee754_rem_pio2+0x1f6>
  401e8e:	bf00      	nop
  401e90:	1a600000 	.word	0x1a600000
  401e94:	3dd0b461 	.word	0x3dd0b461
  401e98:	2e037073 	.word	0x2e037073
  401e9c:	3ba3198a 	.word	0x3ba3198a
  401ea0:	2e000000 	.word	0x2e000000
  401ea4:	3ba3198a 	.word	0x3ba3198a
  401ea8:	252049c1 	.word	0x252049c1
  401eac:	397b839a 	.word	0x397b839a
  401eb0:	1a626331 	.word	0x1a626331
  401eb4:	3dd0b461 	.word	0x3dd0b461
  401eb8:	3ff921fb 	.word	0x3ff921fb
  401ebc:	00000000 	.word	0x00000000

00401ec0 <__kernel_cos>:
  401ec0:	e92d 4ff0 	stmdb	sp!, {r4, r5, r6, r7, r8, r9, sl, fp, lr}
  401ec4:	f021 4700 	bic.w	r7, r1, #2147483648	; 0x80000000
  401ec8:	f1b7 5f79 	cmp.w	r7, #1044381696	; 0x3e400000
  401ecc:	b085      	sub	sp, #20
  401ece:	460c      	mov	r4, r1
  401ed0:	4692      	mov	sl, r2
  401ed2:	469b      	mov	fp, r3
  401ed4:	4605      	mov	r5, r0
  401ed6:	da6b      	bge.n	401fb0 <__kernel_cos+0xf0>
  401ed8:	f001 fb3e 	bl	403558 <__aeabi_d2iz>
  401edc:	2800      	cmp	r0, #0
  401ede:	f000 80e8 	beq.w	4020b2 <__kernel_cos+0x1f2>
  401ee2:	462a      	mov	r2, r5
  401ee4:	4623      	mov	r3, r4
  401ee6:	4628      	mov	r0, r5
  401ee8:	4621      	mov	r1, r4
  401eea:	f001 f89b 	bl	403024 <__aeabi_dmul>
  401eee:	a374      	add	r3, pc, #464	; (adr r3, 4020c0 <__kernel_cos+0x200>)
  401ef0:	e9d3 2300 	ldrd	r2, r3, [r3]
  401ef4:	4680      	mov	r8, r0
  401ef6:	4689      	mov	r9, r1
  401ef8:	f001 f894 	bl	403024 <__aeabi_dmul>
  401efc:	a372      	add	r3, pc, #456	; (adr r3, 4020c8 <__kernel_cos+0x208>)
  401efe:	e9d3 2300 	ldrd	r2, r3, [r3]
  401f02:	f000 fedd 	bl	402cc0 <__adddf3>
  401f06:	4642      	mov	r2, r8
  401f08:	464b      	mov	r3, r9
  401f0a:	f001 f88b 	bl	403024 <__aeabi_dmul>
  401f0e:	a370      	add	r3, pc, #448	; (adr r3, 4020d0 <__kernel_cos+0x210>)
  401f10:	e9d3 2300 	ldrd	r2, r3, [r3]
  401f14:	f000 fed2 	bl	402cbc <__aeabi_dsub>
  401f18:	4642      	mov	r2, r8
  401f1a:	464b      	mov	r3, r9
  401f1c:	f001 f882 	bl	403024 <__aeabi_dmul>
  401f20:	a36d      	add	r3, pc, #436	; (adr r3, 4020d8 <__kernel_cos+0x218>)
  401f22:	e9d3 2300 	ldrd	r2, r3, [r3]
  401f26:	f000 fecb 	bl	402cc0 <__adddf3>
  401f2a:	4642      	mov	r2, r8
  401f2c:	464b      	mov	r3, r9
  401f2e:	f001 f879 	bl	403024 <__aeabi_dmul>
  401f32:	a36b      	add	r3, pc, #428	; (adr r3, 4020e0 <__kernel_cos+0x220>)
  401f34:	e9d3 2300 	ldrd	r2, r3, [r3]
  401f38:	f000 fec0 	bl	402cbc <__aeabi_dsub>
  401f3c:	4642      	mov	r2, r8
  401f3e:	464b      	mov	r3, r9
  401f40:	f001 f870 	bl	403024 <__aeabi_dmul>
  401f44:	a368      	add	r3, pc, #416	; (adr r3, 4020e8 <__kernel_cos+0x228>)
  401f46:	e9d3 2300 	ldrd	r2, r3, [r3]
  401f4a:	f000 feb9 	bl	402cc0 <__adddf3>
  401f4e:	4642      	mov	r2, r8
  401f50:	464b      	mov	r3, r9
  401f52:	f001 f867 	bl	403024 <__aeabi_dmul>
  401f56:	e9cd 0100 	strd	r0, r1, [sp]
  401f5a:	4640      	mov	r0, r8
  401f5c:	4649      	mov	r1, r9
  401f5e:	2200      	movs	r2, #0
  401f60:	4b63      	ldr	r3, [pc, #396]	; (4020f0 <__kernel_cos+0x230>)
  401f62:	f001 f85f 	bl	403024 <__aeabi_dmul>
  401f66:	e9dd 2300 	ldrd	r2, r3, [sp]
  401f6a:	4606      	mov	r6, r0
  401f6c:	460f      	mov	r7, r1
  401f6e:	4640      	mov	r0, r8
  401f70:	4649      	mov	r1, r9
  401f72:	f001 f857 	bl	403024 <__aeabi_dmul>
  401f76:	4652      	mov	r2, sl
  401f78:	4680      	mov	r8, r0
  401f7a:	4689      	mov	r9, r1
  401f7c:	465b      	mov	r3, fp
  401f7e:	4628      	mov	r0, r5
  401f80:	4621      	mov	r1, r4
  401f82:	f001 f84f 	bl	403024 <__aeabi_dmul>
  401f86:	4602      	mov	r2, r0
  401f88:	460b      	mov	r3, r1
  401f8a:	4640      	mov	r0, r8
  401f8c:	4649      	mov	r1, r9
  401f8e:	f000 fe95 	bl	402cbc <__aeabi_dsub>
  401f92:	4602      	mov	r2, r0
  401f94:	460b      	mov	r3, r1
  401f96:	4630      	mov	r0, r6
  401f98:	4639      	mov	r1, r7
  401f9a:	f000 fe8f 	bl	402cbc <__aeabi_dsub>
  401f9e:	4602      	mov	r2, r0
  401fa0:	460b      	mov	r3, r1
  401fa2:	2000      	movs	r0, #0
  401fa4:	4953      	ldr	r1, [pc, #332]	; (4020f4 <__kernel_cos+0x234>)
  401fa6:	f000 fe89 	bl	402cbc <__aeabi_dsub>
  401faa:	b005      	add	sp, #20
  401fac:	e8bd 8ff0 	ldmia.w	sp!, {r4, r5, r6, r7, r8, r9, sl, fp, pc}
  401fb0:	4602      	mov	r2, r0
  401fb2:	460b      	mov	r3, r1
  401fb4:	f001 f836 	bl	403024 <__aeabi_dmul>
  401fb8:	a341      	add	r3, pc, #260	; (adr r3, 4020c0 <__kernel_cos+0x200>)
  401fba:	e9d3 2300 	ldrd	r2, r3, [r3]
  401fbe:	4680      	mov	r8, r0
  401fc0:	4689      	mov	r9, r1
  401fc2:	f001 f82f 	bl	403024 <__aeabi_dmul>
  401fc6:	a340      	add	r3, pc, #256	; (adr r3, 4020c8 <__kernel_cos+0x208>)
  401fc8:	e9d3 2300 	ldrd	r2, r3, [r3]
  401fcc:	f000 fe78 	bl	402cc0 <__adddf3>
  401fd0:	4642      	mov	r2, r8
  401fd2:	464b      	mov	r3, r9
  401fd4:	f001 f826 	bl	403024 <__aeabi_dmul>
  401fd8:	a33d      	add	r3, pc, #244	; (adr r3, 4020d0 <__kernel_cos+0x210>)
  401fda:	e9d3 2300 	ldrd	r2, r3, [r3]
  401fde:	f000 fe6d 	bl	402cbc <__aeabi_dsub>
  401fe2:	4642      	mov	r2, r8
  401fe4:	464b      	mov	r3, r9
  401fe6:	f001 f81d 	bl	403024 <__aeabi_dmul>
  401fea:	a33b      	add	r3, pc, #236	; (adr r3, 4020d8 <__kernel_cos+0x218>)
  401fec:	e9d3 2300 	ldrd	r2, r3, [r3]
  401ff0:	f000 fe66 	bl	402cc0 <__adddf3>
  401ff4:	4642      	mov	r2, r8
  401ff6:	464b      	mov	r3, r9
  401ff8:	f001 f814 	bl	403024 <__aeabi_dmul>
  401ffc:	a338      	add	r3, pc, #224	; (adr r3, 4020e0 <__kernel_cos+0x220>)
  401ffe:	e9d3 2300 	ldrd	r2, r3, [r3]
  402002:	f000 fe5b 	bl	402cbc <__aeabi_dsub>
  402006:	4642      	mov	r2, r8
  402008:	464b      	mov	r3, r9
  40200a:	f001 f80b 	bl	403024 <__aeabi_dmul>
  40200e:	a336      	add	r3, pc, #216	; (adr r3, 4020e8 <__kernel_cos+0x228>)
  402010:	e9d3 2300 	ldrd	r2, r3, [r3]
  402014:	f000 fe54 	bl	402cc0 <__adddf3>
  402018:	464b      	mov	r3, r9
  40201a:	4642      	mov	r2, r8
  40201c:	f001 f802 	bl	403024 <__aeabi_dmul>
  402020:	4b35      	ldr	r3, [pc, #212]	; (4020f8 <__kernel_cos+0x238>)
  402022:	429f      	cmp	r7, r3
  402024:	e9cd 0100 	strd	r0, r1, [sp]
  402028:	dd97      	ble.n	401f5a <__kernel_cos+0x9a>
  40202a:	4b34      	ldr	r3, [pc, #208]	; (4020fc <__kernel_cos+0x23c>)
  40202c:	429f      	cmp	r7, r3
  40202e:	f04f 0200 	mov.w	r2, #0
  402032:	dc38      	bgt.n	4020a6 <__kernel_cos+0x1e6>
  402034:	f5a7 1300 	sub.w	r3, r7, #2097152	; 0x200000
  402038:	2000      	movs	r0, #0
  40203a:	492e      	ldr	r1, [pc, #184]	; (4020f4 <__kernel_cos+0x234>)
  40203c:	4616      	mov	r6, r2
  40203e:	461f      	mov	r7, r3
  402040:	f000 fe3c 	bl	402cbc <__aeabi_dsub>
  402044:	e9cd 0102 	strd	r0, r1, [sp, #8]
  402048:	4640      	mov	r0, r8
  40204a:	4649      	mov	r1, r9
  40204c:	2200      	movs	r2, #0
  40204e:	4b28      	ldr	r3, [pc, #160]	; (4020f0 <__kernel_cos+0x230>)
  402050:	f000 ffe8 	bl	403024 <__aeabi_dmul>
  402054:	4632      	mov	r2, r6
  402056:	463b      	mov	r3, r7
  402058:	f000 fe30 	bl	402cbc <__aeabi_dsub>
  40205c:	e9dd 2300 	ldrd	r2, r3, [sp]
  402060:	4606      	mov	r6, r0
  402062:	460f      	mov	r7, r1
  402064:	4640      	mov	r0, r8
  402066:	4649      	mov	r1, r9
  402068:	f000 ffdc 	bl	403024 <__aeabi_dmul>
  40206c:	4652      	mov	r2, sl
  40206e:	4680      	mov	r8, r0
  402070:	4689      	mov	r9, r1
  402072:	465b      	mov	r3, fp
  402074:	4628      	mov	r0, r5
  402076:	4621      	mov	r1, r4
  402078:	f000 ffd4 	bl	403024 <__aeabi_dmul>
  40207c:	4602      	mov	r2, r0
  40207e:	460b      	mov	r3, r1
  402080:	4640      	mov	r0, r8
  402082:	4649      	mov	r1, r9
  402084:	f000 fe1a 	bl	402cbc <__aeabi_dsub>
  402088:	4602      	mov	r2, r0
  40208a:	460b      	mov	r3, r1
  40208c:	4630      	mov	r0, r6
  40208e:	4639      	mov	r1, r7
  402090:	f000 fe14 	bl	402cbc <__aeabi_dsub>
  402094:	4602      	mov	r2, r0
  402096:	460b      	mov	r3, r1
  402098:	e9dd 0102 	ldrd	r0, r1, [sp, #8]
  40209c:	f000 fe0e 	bl	402cbc <__aeabi_dsub>
  4020a0:	b005      	add	sp, #20
  4020a2:	e8bd 8ff0 	ldmia.w	sp!, {r4, r5, r6, r7, r8, r9, sl, fp, pc}
  4020a6:	4b16      	ldr	r3, [pc, #88]	; (402100 <__kernel_cos+0x240>)
  4020a8:	4f16      	ldr	r7, [pc, #88]	; (402104 <__kernel_cos+0x244>)
  4020aa:	e9cd 2302 	strd	r2, r3, [sp, #8]
  4020ae:	2600      	movs	r6, #0
  4020b0:	e7ca      	b.n	402048 <__kernel_cos+0x188>
  4020b2:	4910      	ldr	r1, [pc, #64]	; (4020f4 <__kernel_cos+0x234>)
  4020b4:	2000      	movs	r0, #0
  4020b6:	b005      	add	sp, #20
  4020b8:	e8bd 8ff0 	ldmia.w	sp!, {r4, r5, r6, r7, r8, r9, sl, fp, pc}
  4020bc:	f3af 8000 	nop.w
  4020c0:	be8838d4 	.word	0xbe8838d4
  4020c4:	bda8fae9 	.word	0xbda8fae9
  4020c8:	bdb4b1c4 	.word	0xbdb4b1c4
  4020cc:	3e21ee9e 	.word	0x3e21ee9e
  4020d0:	809c52ad 	.word	0x809c52ad
  4020d4:	3e927e4f 	.word	0x3e927e4f
  4020d8:	19cb1590 	.word	0x19cb1590
  4020dc:	3efa01a0 	.word	0x3efa01a0
  4020e0:	16c15177 	.word	0x16c15177
  4020e4:	3f56c16c 	.word	0x3f56c16c
  4020e8:	5555554c 	.word	0x5555554c
  4020ec:	3fa55555 	.word	0x3fa55555
  4020f0:	3fe00000 	.word	0x3fe00000
  4020f4:	3ff00000 	.word	0x3ff00000
  4020f8:	3fd33332 	.word	0x3fd33332
  4020fc:	3fe90000 	.word	0x3fe90000
  402100:	3fe70000 	.word	0x3fe70000
  402104:	3fd20000 	.word	0x3fd20000

00402108 <__kernel_rem_pio2>:
  402108:	e92d 4ff0 	stmdb	sp!, {r4, r5, r6, r7, r8, r9, sl, fp, lr}
  40210c:	f5ad 7d1d 	sub.w	sp, sp, #628	; 0x274
  402110:	4c7b      	ldr	r4, [pc, #492]	; (402300 <__kernel_rem_pio2+0x1f8>)
  402112:	9ea6      	ldr	r6, [sp, #664]	; 0x298
  402114:	4d7b      	ldr	r5, [pc, #492]	; (402304 <__kernel_rem_pio2+0x1fc>)
  402116:	f854 4026 	ldr.w	r4, [r4, r6, lsl #2]
  40211a:	9409      	str	r4, [sp, #36]	; 0x24
  40211c:	4626      	mov	r6, r4
  40211e:	1ed4      	subs	r4, r2, #3
  402120:	fb85 7504 	smull	r7, r5, r5, r4
  402124:	17e4      	asrs	r4, r4, #31
  402126:	ebc4 04a5 	rsb	r4, r4, r5, asr #2
  40212a:	ea24 74e4 	bic.w	r4, r4, r4, asr #31
  40212e:	461d      	mov	r5, r3
  402130:	930c      	str	r3, [sp, #48]	; 0x30
  402132:	43e3      	mvns	r3, r4
  402134:	eb03 0343 	add.w	r3, r3, r3, lsl #1
  402138:	3d01      	subs	r5, #1
  40213a:	eb02 03c3 	add.w	r3, r2, r3, lsl #3
  40213e:	9308      	str	r3, [sp, #32]
  402140:	462b      	mov	r3, r5
  402142:	940d      	str	r4, [sp, #52]	; 0x34
  402144:	9503      	str	r5, [sp, #12]
  402146:	1b65      	subs	r5, r4, r5
  402148:	199c      	adds	r4, r3, r6
  40214a:	9004      	str	r0, [sp, #16]
  40214c:	910a      	str	r1, [sp, #40]	; 0x28
  40214e:	d416      	bmi.n	40217e <__kernel_rem_pio2+0x76>
  402150:	442c      	add	r4, r5
  402152:	3401      	adds	r4, #1
  402154:	ae22      	add	r6, sp, #136	; 0x88
  402156:	9fa7      	ldr	r7, [sp, #668]	; 0x29c
  402158:	e008      	b.n	40216c <__kernel_rem_pio2+0x64>
  40215a:	f857 0025 	ldr.w	r0, [r7, r5, lsl #2]
  40215e:	f000 fefb 	bl	402f58 <__aeabi_i2d>
  402162:	3501      	adds	r5, #1
  402164:	42a5      	cmp	r5, r4
  402166:	e9e6 0102 	strd	r0, r1, [r6, #8]!
  40216a:	d008      	beq.n	40217e <__kernel_rem_pio2+0x76>
  40216c:	2d00      	cmp	r5, #0
  40216e:	daf4      	bge.n	40215a <__kernel_rem_pio2+0x52>
  402170:	3501      	adds	r5, #1
  402172:	2000      	movs	r0, #0
  402174:	2100      	movs	r1, #0
  402176:	42a5      	cmp	r5, r4
  402178:	e9e6 0102 	strd	r0, r1, [r6, #8]!
  40217c:	d1f6      	bne.n	40216c <__kernel_rem_pio2+0x64>
  40217e:	9b09      	ldr	r3, [sp, #36]	; 0x24
  402180:	2b00      	cmp	r3, #0
  402182:	db31      	blt.n	4021e8 <__kernel_rem_pio2+0xe0>
  402184:	9a09      	ldr	r2, [sp, #36]	; 0x24
  402186:	9b0c      	ldr	r3, [sp, #48]	; 0x30
  402188:	a974      	add	r1, sp, #464	; 0x1d0
  40218a:	eb01 0bc2 	add.w	fp, r1, r2, lsl #3
  40218e:	ebc3 7343 	rsb	r3, r3, r3, lsl #29
  402192:	9a03      	ldr	r2, [sp, #12]
  402194:	a924      	add	r1, sp, #144	; 0x90
  402196:	00db      	lsls	r3, r3, #3
  402198:	eb01 08c2 	add.w	r8, r1, r2, lsl #3
  40219c:	9300      	str	r3, [sp, #0]
  40219e:	f50d 79e4 	add.w	r9, sp, #456	; 0x1c8
  4021a2:	9b03      	ldr	r3, [sp, #12]
  4021a4:	2b00      	cmp	r3, #0
  4021a6:	f2c0 8199 	blt.w	4024dc <__kernel_rem_pio2+0x3d4>
  4021aa:	9b04      	ldr	r3, [sp, #16]
  4021ac:	f1a3 0a08 	sub.w	sl, r3, #8
  4021b0:	9b00      	ldr	r3, [sp, #0]
  4021b2:	4644      	mov	r4, r8
  4021b4:	eb08 0503 	add.w	r5, r8, r3
  4021b8:	2600      	movs	r6, #0
  4021ba:	2700      	movs	r7, #0
  4021bc:	e9fa 2302 	ldrd	r2, r3, [sl, #8]!
  4021c0:	e874 0102 	ldrd	r0, r1, [r4], #-8
  4021c4:	f000 ff2e 	bl	403024 <__aeabi_dmul>
  4021c8:	4602      	mov	r2, r0
  4021ca:	460b      	mov	r3, r1
  4021cc:	4630      	mov	r0, r6
  4021ce:	4639      	mov	r1, r7
  4021d0:	f000 fd76 	bl	402cc0 <__adddf3>
  4021d4:	42ac      	cmp	r4, r5
  4021d6:	4606      	mov	r6, r0
  4021d8:	460f      	mov	r7, r1
  4021da:	d1ef      	bne.n	4021bc <__kernel_rem_pio2+0xb4>
  4021dc:	e9e9 6702 	strd	r6, r7, [r9, #8]!
  4021e0:	45d9      	cmp	r9, fp
  4021e2:	f108 0808 	add.w	r8, r8, #8
  4021e6:	d1dc      	bne.n	4021a2 <__kernel_rem_pio2+0x9a>
  4021e8:	9909      	ldr	r1, [sp, #36]	; 0x24
  4021ea:	f101 4380 	add.w	r3, r1, #1073741824	; 0x40000000
  4021ee:	3b01      	subs	r3, #1
  4021f0:	009b      	lsls	r3, r3, #2
  4021f2:	1d1a      	adds	r2, r3, #4
  4021f4:	a810      	add	r0, sp, #64	; 0x40
  4021f6:	4402      	add	r2, r0
  4021f8:	4403      	add	r3, r0
  4021fa:	920f      	str	r2, [sp, #60]	; 0x3c
  4021fc:	930e      	str	r3, [sp, #56]	; 0x38
  4021fe:	468b      	mov	fp, r1
  402200:	ea4f 03cb 	mov.w	r3, fp, lsl #3
  402204:	a99c      	add	r1, sp, #624	; 0x270
  402206:	461a      	mov	r2, r3
  402208:	9306      	str	r3, [sp, #24]
  40220a:	f1bb 0f00 	cmp.w	fp, #0
  40220e:	440b      	add	r3, r1
  402210:	e953 4528 	ldrd	r4, r5, [r3, #-160]	; 0xa0
  402214:	dd28      	ble.n	402268 <__kernel_rem_pio2+0x160>
  402216:	f50d 7ae8 	add.w	sl, sp, #464	; 0x1d0
  40221a:	eb0a 0602 	add.w	r6, sl, r2
  40221e:	af0f      	add	r7, sp, #60	; 0x3c
  402220:	2200      	movs	r2, #0
  402222:	4b39      	ldr	r3, [pc, #228]	; (402308 <__kernel_rem_pio2+0x200>)
  402224:	4620      	mov	r0, r4
  402226:	4629      	mov	r1, r5
  402228:	f000 fefc 	bl	403024 <__aeabi_dmul>
  40222c:	f001 f994 	bl	403558 <__aeabi_d2iz>
  402230:	f000 fe92 	bl	402f58 <__aeabi_i2d>
  402234:	2200      	movs	r2, #0
  402236:	4b35      	ldr	r3, [pc, #212]	; (40230c <__kernel_rem_pio2+0x204>)
  402238:	4680      	mov	r8, r0
  40223a:	4689      	mov	r9, r1
  40223c:	f000 fef2 	bl	403024 <__aeabi_dmul>
  402240:	4602      	mov	r2, r0
  402242:	460b      	mov	r3, r1
  402244:	4620      	mov	r0, r4
  402246:	4629      	mov	r1, r5
  402248:	f000 fd38 	bl	402cbc <__aeabi_dsub>
  40224c:	f001 f984 	bl	403558 <__aeabi_d2iz>
  402250:	e976 2302 	ldrd	r2, r3, [r6, #-8]!
  402254:	f847 0f04 	str.w	r0, [r7, #4]!
  402258:	4649      	mov	r1, r9
  40225a:	4640      	mov	r0, r8
  40225c:	f000 fd30 	bl	402cc0 <__adddf3>
  402260:	4556      	cmp	r6, sl
  402262:	4604      	mov	r4, r0
  402264:	460d      	mov	r5, r1
  402266:	d1db      	bne.n	402220 <__kernel_rem_pio2+0x118>
  402268:	f8dd 9020 	ldr.w	r9, [sp, #32]
  40226c:	4620      	mov	r0, r4
  40226e:	4629      	mov	r1, r5
  402270:	464a      	mov	r2, r9
  402272:	f000 fc95 	bl	402ba0 <scalbn>
  402276:	2200      	movs	r2, #0
  402278:	f04f 537f 	mov.w	r3, #1069547520	; 0x3fc00000
  40227c:	4604      	mov	r4, r0
  40227e:	460d      	mov	r5, r1
  402280:	f000 fed0 	bl	403024 <__aeabi_dmul>
  402284:	f000 fc00 	bl	402a88 <floor>
  402288:	2200      	movs	r2, #0
  40228a:	4b21      	ldr	r3, [pc, #132]	; (402310 <__kernel_rem_pio2+0x208>)
  40228c:	f000 feca 	bl	403024 <__aeabi_dmul>
  402290:	4602      	mov	r2, r0
  402292:	460b      	mov	r3, r1
  402294:	4620      	mov	r0, r4
  402296:	4629      	mov	r1, r5
  402298:	f000 fd10 	bl	402cbc <__aeabi_dsub>
  40229c:	4604      	mov	r4, r0
  40229e:	460d      	mov	r5, r1
  4022a0:	f001 f95a 	bl	403558 <__aeabi_d2iz>
  4022a4:	4680      	mov	r8, r0
  4022a6:	f000 fe57 	bl	402f58 <__aeabi_i2d>
  4022aa:	4602      	mov	r2, r0
  4022ac:	460b      	mov	r3, r1
  4022ae:	4620      	mov	r0, r4
  4022b0:	4629      	mov	r1, r5
  4022b2:	f000 fd03 	bl	402cbc <__aeabi_dsub>
  4022b6:	464c      	mov	r4, r9
  4022b8:	2c00      	cmp	r4, #0
  4022ba:	4606      	mov	r6, r0
  4022bc:	460f      	mov	r7, r1
  4022be:	f340 80f3 	ble.w	4024a8 <__kernel_rem_pio2+0x3a0>
  4022c2:	f10b 31ff 	add.w	r1, fp, #4294967295
  4022c6:	ab10      	add	r3, sp, #64	; 0x40
  4022c8:	f1c9 0218 	rsb	r2, r9, #24
  4022cc:	f853 3021 	ldr.w	r3, [r3, r1, lsl #2]
  4022d0:	fa43 f002 	asr.w	r0, r3, r2
  4022d4:	fa00 f502 	lsl.w	r5, r0, r2
  4022d8:	aa10      	add	r2, sp, #64	; 0x40
  4022da:	1b5d      	subs	r5, r3, r5
  4022dc:	f1c9 0317 	rsb	r3, r9, #23
  4022e0:	f842 5021 	str.w	r5, [r2, r1, lsl #2]
  4022e4:	4480      	add	r8, r0
  4022e6:	411d      	asrs	r5, r3
  4022e8:	2d00      	cmp	r5, #0
  4022ea:	dd3e      	ble.n	40236a <__kernel_rem_pio2+0x262>
  4022ec:	f1bb 0f00 	cmp.w	fp, #0
  4022f0:	f108 0801 	add.w	r8, r8, #1
  4022f4:	f340 828a 	ble.w	40280c <__kernel_rem_pio2+0x704>
  4022f8:	2200      	movs	r2, #0
  4022fa:	4614      	mov	r4, r2
  4022fc:	a90f      	add	r1, sp, #60	; 0x3c
  4022fe:	e011      	b.n	402324 <__kernel_rem_pio2+0x21c>
  402300:	0041f898 	.word	0x0041f898
  402304:	2aaaaaab 	.word	0x2aaaaaab
  402308:	3e700000 	.word	0x3e700000
  40230c:	41700000 	.word	0x41700000
  402310:	40200000 	.word	0x40200000
  402314:	f1c3 7080 	rsb	r0, r3, #16777216	; 0x1000000
  402318:	b10b      	cbz	r3, 40231e <__kernel_rem_pio2+0x216>
  40231a:	6008      	str	r0, [r1, #0]
  40231c:	2401      	movs	r4, #1
  40231e:	3201      	adds	r2, #1
  402320:	4593      	cmp	fp, r2
  402322:	dd0d      	ble.n	402340 <__kernel_rem_pio2+0x238>
  402324:	f851 3f04 	ldr.w	r3, [r1, #4]!
  402328:	2c00      	cmp	r4, #0
  40232a:	d0f3      	beq.n	402314 <__kernel_rem_pio2+0x20c>
  40232c:	f1c3 13ff 	rsb	r3, r3, #16711935	; 0xff00ff
  402330:	3201      	adds	r2, #1
  402332:	f503 437f 	add.w	r3, r3, #65280	; 0xff00
  402336:	4593      	cmp	fp, r2
  402338:	600b      	str	r3, [r1, #0]
  40233a:	f04f 0401 	mov.w	r4, #1
  40233e:	dcf1      	bgt.n	402324 <__kernel_rem_pio2+0x21c>
  402340:	9b08      	ldr	r3, [sp, #32]
  402342:	2b00      	cmp	r3, #0
  402344:	dd0e      	ble.n	402364 <__kernel_rem_pio2+0x25c>
  402346:	2b01      	cmp	r3, #1
  402348:	f000 80b6 	beq.w	4024b8 <__kernel_rem_pio2+0x3b0>
  40234c:	2b02      	cmp	r3, #2
  40234e:	d109      	bne.n	402364 <__kernel_rem_pio2+0x25c>
  402350:	f10b 32ff 	add.w	r2, fp, #4294967295
  402354:	ab10      	add	r3, sp, #64	; 0x40
  402356:	a910      	add	r1, sp, #64	; 0x40
  402358:	f853 3022 	ldr.w	r3, [r3, r2, lsl #2]
  40235c:	f3c3 0315 	ubfx	r3, r3, #0, #22
  402360:	f841 3022 	str.w	r3, [r1, r2, lsl #2]
  402364:	2d02      	cmp	r5, #2
  402366:	f000 8086 	beq.w	402476 <__kernel_rem_pio2+0x36e>
  40236a:	4630      	mov	r0, r6
  40236c:	4639      	mov	r1, r7
  40236e:	2200      	movs	r2, #0
  402370:	2300      	movs	r3, #0
  402372:	f001 f8bf 	bl	4034f4 <__aeabi_dcmpeq>
  402376:	2800      	cmp	r0, #0
  402378:	f000 80cc 	beq.w	402514 <__kernel_rem_pio2+0x40c>
  40237c:	9b09      	ldr	r3, [sp, #36]	; 0x24
  40237e:	f10b 3aff 	add.w	sl, fp, #4294967295
  402382:	4553      	cmp	r3, sl
  402384:	dc0d      	bgt.n	4023a2 <__kernel_rem_pio2+0x29a>
  402386:	ab10      	add	r3, sp, #64	; 0x40
  402388:	980f      	ldr	r0, [sp, #60]	; 0x3c
  40238a:	eb03 038b 	add.w	r3, r3, fp, lsl #2
  40238e:	2200      	movs	r2, #0
  402390:	f853 1d04 	ldr.w	r1, [r3, #-4]!
  402394:	4283      	cmp	r3, r0
  402396:	ea42 0201 	orr.w	r2, r2, r1
  40239a:	d1f9      	bne.n	402390 <__kernel_rem_pio2+0x288>
  40239c:	2a00      	cmp	r2, #0
  40239e:	f040 821b 	bne.w	4027d8 <__kernel_rem_pio2+0x6d0>
  4023a2:	9b09      	ldr	r3, [sp, #36]	; 0x24
  4023a4:	aa10      	add	r2, sp, #64	; 0x40
  4023a6:	3b01      	subs	r3, #1
  4023a8:	f852 3023 	ldr.w	r3, [r2, r3, lsl #2]
  4023ac:	2b00      	cmp	r3, #0
  4023ae:	f040 822b 	bne.w	402808 <__kernel_rem_pio2+0x700>
  4023b2:	9a0e      	ldr	r2, [sp, #56]	; 0x38
  4023b4:	2301      	movs	r3, #1
  4023b6:	f852 1d04 	ldr.w	r1, [r2, #-4]!
  4023ba:	3301      	adds	r3, #1
  4023bc:	2900      	cmp	r1, #0
  4023be:	d0fa      	beq.n	4023b6 <__kernel_rem_pio2+0x2ae>
  4023c0:	445b      	add	r3, fp
  4023c2:	461a      	mov	r2, r3
  4023c4:	930b      	str	r3, [sp, #44]	; 0x2c
  4023c6:	f10b 0301 	add.w	r3, fp, #1
  4023ca:	4293      	cmp	r3, r2
  4023cc:	dc4d      	bgt.n	40246a <__kernel_rem_pio2+0x362>
  4023ce:	9a0d      	ldr	r2, [sp, #52]	; 0x34
  4023d0:	eb03 0902 	add.w	r9, r3, r2
  4023d4:	9a0b      	ldr	r2, [sp, #44]	; 0x2c
  4023d6:	9b0c      	ldr	r3, [sp, #48]	; 0x30
  4023d8:	f109 4980 	add.w	r9, r9, #1073741824	; 0x40000000
  4023dc:	445b      	add	r3, fp
  4023de:	ebcb 0b02 	rsb	fp, fp, r2
  4023e2:	9aa7      	ldr	r2, [sp, #668]	; 0x29c
  4023e4:	f109 39ff 	add.w	r9, r9, #4294967295
  4023e8:	eb02 0289 	add.w	r2, r2, r9, lsl #2
  4023ec:	9200      	str	r2, [sp, #0]
  4023ee:	ea4f 02cb 	mov.w	r2, fp, lsl #3
  4023f2:	00db      	lsls	r3, r3, #3
  4023f4:	9205      	str	r2, [sp, #20]
  4023f6:	aa24      	add	r2, sp, #144	; 0x90
  4023f8:	eb02 0b03 	add.w	fp, r2, r3
  4023fc:	9307      	str	r3, [sp, #28]
  4023fe:	9b06      	ldr	r3, [sp, #24]
  402400:	aa74      	add	r2, sp, #464	; 0x1d0
  402402:	eb02 0a03 	add.w	sl, r2, r3
  402406:	f04f 0800 	mov.w	r8, #0
  40240a:	9b00      	ldr	r3, [sp, #0]
  40240c:	f853 0f04 	ldr.w	r0, [r3, #4]!
  402410:	9300      	str	r3, [sp, #0]
  402412:	f000 fda1 	bl	402f58 <__aeabi_i2d>
  402416:	9b03      	ldr	r3, [sp, #12]
  402418:	2b00      	cmp	r3, #0
  40241a:	e8eb 0102 	strd	r0, r1, [fp], #8
  40241e:	db27      	blt.n	402470 <__kernel_rem_pio2+0x368>
  402420:	9b07      	ldr	r3, [sp, #28]
  402422:	eb03 0408 	add.w	r4, r3, r8
  402426:	9b06      	ldr	r3, [sp, #24]
  402428:	eb08 0503 	add.w	r5, r8, r3
  40242c:	ab24      	add	r3, sp, #144	; 0x90
  40242e:	441c      	add	r4, r3
  402430:	441d      	add	r5, r3
  402432:	9b04      	ldr	r3, [sp, #16]
  402434:	2600      	movs	r6, #0
  402436:	f1a3 0908 	sub.w	r9, r3, #8
  40243a:	2700      	movs	r7, #0
  40243c:	e9f9 2302 	ldrd	r2, r3, [r9, #8]!
  402440:	e874 0102 	ldrd	r0, r1, [r4], #-8
  402444:	f000 fdee 	bl	403024 <__aeabi_dmul>
  402448:	4602      	mov	r2, r0
  40244a:	460b      	mov	r3, r1
  40244c:	4630      	mov	r0, r6
  40244e:	4639      	mov	r1, r7
  402450:	f000 fc36 	bl	402cc0 <__adddf3>
  402454:	42ac      	cmp	r4, r5
  402456:	4606      	mov	r6, r0
  402458:	460f      	mov	r7, r1
  40245a:	d1ef      	bne.n	40243c <__kernel_rem_pio2+0x334>
  40245c:	9b05      	ldr	r3, [sp, #20]
  40245e:	f108 0808 	add.w	r8, r8, #8
  402462:	4598      	cmp	r8, r3
  402464:	e9ea 6702 	strd	r6, r7, [sl, #8]!
  402468:	d1cf      	bne.n	40240a <__kernel_rem_pio2+0x302>
  40246a:	f8dd b02c 	ldr.w	fp, [sp, #44]	; 0x2c
  40246e:	e6c7      	b.n	402200 <__kernel_rem_pio2+0xf8>
  402470:	2600      	movs	r6, #0
  402472:	2700      	movs	r7, #0
  402474:	e7f2      	b.n	40245c <__kernel_rem_pio2+0x354>
  402476:	4632      	mov	r2, r6
  402478:	463b      	mov	r3, r7
  40247a:	2000      	movs	r0, #0
  40247c:	49c0      	ldr	r1, [pc, #768]	; (402780 <__kernel_rem_pio2+0x678>)
  40247e:	f000 fc1d 	bl	402cbc <__aeabi_dsub>
  402482:	4606      	mov	r6, r0
  402484:	460f      	mov	r7, r1
  402486:	2c00      	cmp	r4, #0
  402488:	f43f af6f 	beq.w	40236a <__kernel_rem_pio2+0x262>
  40248c:	9a08      	ldr	r2, [sp, #32]
  40248e:	49bc      	ldr	r1, [pc, #752]	; (402780 <__kernel_rem_pio2+0x678>)
  402490:	2000      	movs	r0, #0
  402492:	f000 fb85 	bl	402ba0 <scalbn>
  402496:	4602      	mov	r2, r0
  402498:	460b      	mov	r3, r1
  40249a:	4630      	mov	r0, r6
  40249c:	4639      	mov	r1, r7
  40249e:	f000 fc0d 	bl	402cbc <__aeabi_dsub>
  4024a2:	4606      	mov	r6, r0
  4024a4:	460f      	mov	r7, r1
  4024a6:	e760      	b.n	40236a <__kernel_rem_pio2+0x262>
  4024a8:	d111      	bne.n	4024ce <__kernel_rem_pio2+0x3c6>
  4024aa:	f10b 33ff 	add.w	r3, fp, #4294967295
  4024ae:	aa10      	add	r2, sp, #64	; 0x40
  4024b0:	f852 5023 	ldr.w	r5, [r2, r3, lsl #2]
  4024b4:	15ed      	asrs	r5, r5, #23
  4024b6:	e717      	b.n	4022e8 <__kernel_rem_pio2+0x1e0>
  4024b8:	f10b 32ff 	add.w	r2, fp, #4294967295
  4024bc:	ab10      	add	r3, sp, #64	; 0x40
  4024be:	a910      	add	r1, sp, #64	; 0x40
  4024c0:	f853 3022 	ldr.w	r3, [r3, r2, lsl #2]
  4024c4:	f3c3 0316 	ubfx	r3, r3, #0, #23
  4024c8:	f841 3022 	str.w	r3, [r1, r2, lsl #2]
  4024cc:	e74a      	b.n	402364 <__kernel_rem_pio2+0x25c>
  4024ce:	2200      	movs	r2, #0
  4024d0:	4bac      	ldr	r3, [pc, #688]	; (402784 <__kernel_rem_pio2+0x67c>)
  4024d2:	f001 f82d 	bl	403530 <__aeabi_dcmpge>
  4024d6:	b958      	cbnz	r0, 4024f0 <__kernel_rem_pio2+0x3e8>
  4024d8:	4605      	mov	r5, r0
  4024da:	e746      	b.n	40236a <__kernel_rem_pio2+0x262>
  4024dc:	2600      	movs	r6, #0
  4024de:	2700      	movs	r7, #0
  4024e0:	e9e9 6702 	strd	r6, r7, [r9, #8]!
  4024e4:	45d9      	cmp	r9, fp
  4024e6:	f108 0808 	add.w	r8, r8, #8
  4024ea:	f47f ae5a 	bne.w	4021a2 <__kernel_rem_pio2+0x9a>
  4024ee:	e67b      	b.n	4021e8 <__kernel_rem_pio2+0xe0>
  4024f0:	f1bb 0f00 	cmp.w	fp, #0
  4024f4:	f108 0801 	add.w	r8, r8, #1
  4024f8:	bfc8      	it	gt
  4024fa:	2502      	movgt	r5, #2
  4024fc:	f73f aefc 	bgt.w	4022f8 <__kernel_rem_pio2+0x1f0>
  402500:	4632      	mov	r2, r6
  402502:	463b      	mov	r3, r7
  402504:	2000      	movs	r0, #0
  402506:	499e      	ldr	r1, [pc, #632]	; (402780 <__kernel_rem_pio2+0x678>)
  402508:	f000 fbd8 	bl	402cbc <__aeabi_dsub>
  40250c:	2502      	movs	r5, #2
  40250e:	4606      	mov	r6, r0
  402510:	460f      	mov	r7, r1
  402512:	e72a      	b.n	40236a <__kernel_rem_pio2+0x262>
  402514:	9b08      	ldr	r3, [sp, #32]
  402516:	9503      	str	r5, [sp, #12]
  402518:	425a      	negs	r2, r3
  40251a:	4630      	mov	r0, r6
  40251c:	4639      	mov	r1, r7
  40251e:	f8cd 8014 	str.w	r8, [sp, #20]
  402522:	f000 fb3d 	bl	402ba0 <scalbn>
  402526:	2200      	movs	r2, #0
  402528:	4b97      	ldr	r3, [pc, #604]	; (402788 <__kernel_rem_pio2+0x680>)
  40252a:	4604      	mov	r4, r0
  40252c:	460d      	mov	r5, r1
  40252e:	f000 ffff 	bl	403530 <__aeabi_dcmpge>
  402532:	2800      	cmp	r0, #0
  402534:	f000 81e3 	beq.w	4028fe <__kernel_rem_pio2+0x7f6>
  402538:	2200      	movs	r2, #0
  40253a:	4b94      	ldr	r3, [pc, #592]	; (40278c <__kernel_rem_pio2+0x684>)
  40253c:	4620      	mov	r0, r4
  40253e:	4629      	mov	r1, r5
  402540:	f000 fd70 	bl	403024 <__aeabi_dmul>
  402544:	f001 f808 	bl	403558 <__aeabi_d2iz>
  402548:	4606      	mov	r6, r0
  40254a:	f000 fd05 	bl	402f58 <__aeabi_i2d>
  40254e:	2200      	movs	r2, #0
  402550:	4b8d      	ldr	r3, [pc, #564]	; (402788 <__kernel_rem_pio2+0x680>)
  402552:	f000 fd67 	bl	403024 <__aeabi_dmul>
  402556:	460b      	mov	r3, r1
  402558:	4602      	mov	r2, r0
  40255a:	4629      	mov	r1, r5
  40255c:	4620      	mov	r0, r4
  40255e:	f000 fbad 	bl	402cbc <__aeabi_dsub>
  402562:	f000 fff9 	bl	403558 <__aeabi_d2iz>
  402566:	9b08      	ldr	r3, [sp, #32]
  402568:	3318      	adds	r3, #24
  40256a:	f10b 0a01 	add.w	sl, fp, #1
  40256e:	9308      	str	r3, [sp, #32]
  402570:	ab10      	add	r3, sp, #64	; 0x40
  402572:	f843 002b 	str.w	r0, [r3, fp, lsl #2]
  402576:	f843 602a 	str.w	r6, [r3, sl, lsl #2]
  40257a:	9a08      	ldr	r2, [sp, #32]
  40257c:	4980      	ldr	r1, [pc, #512]	; (402780 <__kernel_rem_pio2+0x678>)
  40257e:	2000      	movs	r0, #0
  402580:	f000 fb0e 	bl	402ba0 <scalbn>
  402584:	f1ba 0f00 	cmp.w	sl, #0
  402588:	4604      	mov	r4, r0
  40258a:	460d      	mov	r5, r1
  40258c:	f2c0 80cd 	blt.w	40272a <__kernel_rem_pio2+0x622>
  402590:	f10a 0301 	add.w	r3, sl, #1
  402594:	ea4f 08c3 	mov.w	r8, r3, lsl #3
  402598:	af74      	add	r7, sp, #464	; 0x1d0
  40259a:	aa10      	add	r2, sp, #64	; 0x40
  40259c:	9300      	str	r3, [sp, #0]
  40259e:	eb02 0983 	add.w	r9, r2, r3, lsl #2
  4025a2:	eb07 0608 	add.w	r6, r7, r8
  4025a6:	f859 0d04 	ldr.w	r0, [r9, #-4]!
  4025aa:	f000 fcd5 	bl	402f58 <__aeabi_i2d>
  4025ae:	4622      	mov	r2, r4
  4025b0:	462b      	mov	r3, r5
  4025b2:	f000 fd37 	bl	403024 <__aeabi_dmul>
  4025b6:	2200      	movs	r2, #0
  4025b8:	e966 0102 	strd	r0, r1, [r6, #-8]!
  4025bc:	4b73      	ldr	r3, [pc, #460]	; (40278c <__kernel_rem_pio2+0x684>)
  4025be:	4620      	mov	r0, r4
  4025c0:	4629      	mov	r1, r5
  4025c2:	f000 fd2f 	bl	403024 <__aeabi_dmul>
  4025c6:	42be      	cmp	r6, r7
  4025c8:	4604      	mov	r4, r0
  4025ca:	460d      	mov	r5, r1
  4025cc:	d1eb      	bne.n	4025a6 <__kernel_rem_pio2+0x49e>
  4025ce:	f1a8 0808 	sub.w	r8, r8, #8
  4025d2:	eb06 0308 	add.w	r3, r6, r8
  4025d6:	f50d 7998 	add.w	r9, sp, #304	; 0x130
  4025da:	f8cd a018 	str.w	sl, [sp, #24]
  4025de:	f8dd a024 	ldr.w	sl, [sp, #36]	; 0x24
  4025e2:	f8cd 9010 	str.w	r9, [sp, #16]
  4025e6:	f04f 0800 	mov.w	r8, #0
  4025ea:	469b      	mov	fp, r3
  4025ec:	f1ba 0f00 	cmp.w	sl, #0
  4025f0:	f2c0 8098 	blt.w	402724 <__kernel_rem_pio2+0x61c>
  4025f4:	f1b8 0f00 	cmp.w	r8, #0
  4025f8:	f2c0 8094 	blt.w	402724 <__kernel_rem_pio2+0x61c>
  4025fc:	f8df 9190 	ldr.w	r9, [pc, #400]	; 402790 <__kernel_rem_pio2+0x688>
  402600:	465d      	mov	r5, fp
  402602:	2600      	movs	r6, #0
  402604:	2700      	movs	r7, #0
  402606:	2400      	movs	r4, #0
  402608:	e001      	b.n	40260e <__kernel_rem_pio2+0x506>
  40260a:	4544      	cmp	r4, r8
  40260c:	dc10      	bgt.n	402630 <__kernel_rem_pio2+0x528>
  40260e:	e9f9 2302 	ldrd	r2, r3, [r9, #8]!
  402612:	e8f5 0102 	ldrd	r0, r1, [r5], #8
  402616:	f000 fd05 	bl	403024 <__aeabi_dmul>
  40261a:	4602      	mov	r2, r0
  40261c:	460b      	mov	r3, r1
  40261e:	4630      	mov	r0, r6
  402620:	4639      	mov	r1, r7
  402622:	f000 fb4d 	bl	402cc0 <__adddf3>
  402626:	3401      	adds	r4, #1
  402628:	45a2      	cmp	sl, r4
  40262a:	4606      	mov	r6, r0
  40262c:	460f      	mov	r7, r1
  40262e:	daec      	bge.n	40260a <__kernel_rem_pio2+0x502>
  402630:	9b04      	ldr	r3, [sp, #16]
  402632:	eb03 03c8 	add.w	r3, r3, r8, lsl #3
  402636:	e9c3 6700 	strd	r6, r7, [r3]
  40263a:	9b00      	ldr	r3, [sp, #0]
  40263c:	f108 0801 	add.w	r8, r8, #1
  402640:	4598      	cmp	r8, r3
  402642:	f1ab 0b08 	sub.w	fp, fp, #8
  402646:	d1d1      	bne.n	4025ec <__kernel_rem_pio2+0x4e4>
  402648:	9ba6      	ldr	r3, [sp, #664]	; 0x298
  40264a:	f8dd a018 	ldr.w	sl, [sp, #24]
  40264e:	f8dd 9010 	ldr.w	r9, [sp, #16]
  402652:	2b03      	cmp	r3, #3
  402654:	d83d      	bhi.n	4026d2 <__kernel_rem_pio2+0x5ca>
  402656:	e8df f013 	tbh	[pc, r3, lsl #1]
  40265a:	0043      	.short	0x0043
  40265c:	00040004 	.word	0x00040004
  402660:	00db      	.short	0x00db
  402662:	9b00      	ldr	r3, [sp, #0]
  402664:	2400      	movs	r4, #0
  402666:	eb09 06c3 	add.w	r6, r9, r3, lsl #3
  40266a:	4625      	mov	r5, r4
  40266c:	4620      	mov	r0, r4
  40266e:	4629      	mov	r1, r5
  402670:	e976 2302 	ldrd	r2, r3, [r6, #-8]!
  402674:	f000 fb24 	bl	402cc0 <__adddf3>
  402678:	454e      	cmp	r6, r9
  40267a:	4604      	mov	r4, r0
  40267c:	460d      	mov	r5, r1
  40267e:	d1f5      	bne.n	40266c <__kernel_rem_pio2+0x564>
  402680:	9b03      	ldr	r3, [sp, #12]
  402682:	2b00      	cmp	r3, #0
  402684:	f000 808e 	beq.w	4027a4 <__kernel_rem_pio2+0x69c>
  402688:	980a      	ldr	r0, [sp, #40]	; 0x28
  40268a:	462b      	mov	r3, r5
  40268c:	f105 4500 	add.w	r5, r5, #2147483648	; 0x80000000
  402690:	4622      	mov	r2, r4
  402692:	e880 0030 	stmia.w	r0, {r4, r5}
  402696:	e9d9 0100 	ldrd	r0, r1, [r9]
  40269a:	f000 fb0f 	bl	402cbc <__aeabi_dsub>
  40269e:	f1ba 0f00 	cmp.w	sl, #0
  4026a2:	4602      	mov	r2, r0
  4026a4:	460b      	mov	r3, r1
  4026a6:	dd0d      	ble.n	4026c4 <__kernel_rem_pio2+0x5bc>
  4026a8:	2401      	movs	r4, #1
  4026aa:	4610      	mov	r0, r2
  4026ac:	4619      	mov	r1, r3
  4026ae:	e9f9 2302 	ldrd	r2, r3, [r9, #8]!
  4026b2:	f000 fb05 	bl	402cc0 <__adddf3>
  4026b6:	3401      	adds	r4, #1
  4026b8:	45a2      	cmp	sl, r4
  4026ba:	4602      	mov	r2, r0
  4026bc:	460b      	mov	r3, r1
  4026be:	daf4      	bge.n	4026aa <__kernel_rem_pio2+0x5a2>
  4026c0:	9903      	ldr	r1, [sp, #12]
  4026c2:	b109      	cbz	r1, 4026c8 <__kernel_rem_pio2+0x5c0>
  4026c4:	f103 4300 	add.w	r3, r3, #2147483648	; 0x80000000
  4026c8:	4619      	mov	r1, r3
  4026ca:	9b0a      	ldr	r3, [sp, #40]	; 0x28
  4026cc:	4610      	mov	r0, r2
  4026ce:	e9c3 0102 	strd	r0, r1, [r3, #8]
  4026d2:	9b05      	ldr	r3, [sp, #20]
  4026d4:	f003 0007 	and.w	r0, r3, #7
  4026d8:	f50d 7d1d 	add.w	sp, sp, #628	; 0x274
  4026dc:	e8bd 8ff0 	ldmia.w	sp!, {r4, r5, r6, r7, r8, r9, sl, fp, pc}
  4026e0:	9b00      	ldr	r3, [sp, #0]
  4026e2:	2200      	movs	r2, #0
  4026e4:	eb09 09c3 	add.w	r9, r9, r3, lsl #3
  4026e8:	4613      	mov	r3, r2
  4026ea:	4610      	mov	r0, r2
  4026ec:	4619      	mov	r1, r3
  4026ee:	e979 2302 	ldrd	r2, r3, [r9, #-8]!
  4026f2:	f000 fae5 	bl	402cc0 <__adddf3>
  4026f6:	f10a 3aff 	add.w	sl, sl, #4294967295
  4026fa:	f1ba 3fff 	cmp.w	sl, #4294967295
  4026fe:	4602      	mov	r2, r0
  402700:	460b      	mov	r3, r1
  402702:	d1f2      	bne.n	4026ea <__kernel_rem_pio2+0x5e2>
  402704:	9903      	ldr	r1, [sp, #12]
  402706:	b109      	cbz	r1, 40270c <__kernel_rem_pio2+0x604>
  402708:	f103 4300 	add.w	r3, r3, #2147483648	; 0x80000000
  40270c:	4619      	mov	r1, r3
  40270e:	9b0a      	ldr	r3, [sp, #40]	; 0x28
  402710:	4610      	mov	r0, r2
  402712:	e9c3 0100 	strd	r0, r1, [r3]
  402716:	9b05      	ldr	r3, [sp, #20]
  402718:	f003 0007 	and.w	r0, r3, #7
  40271c:	f50d 7d1d 	add.w	sp, sp, #628	; 0x274
  402720:	e8bd 8ff0 	ldmia.w	sp!, {r4, r5, r6, r7, r8, r9, sl, fp, pc}
  402724:	2600      	movs	r6, #0
  402726:	2700      	movs	r7, #0
  402728:	e782      	b.n	402630 <__kernel_rem_pio2+0x528>
  40272a:	9ba6      	ldr	r3, [sp, #664]	; 0x298
  40272c:	2b03      	cmp	r3, #3
  40272e:	d8d0      	bhi.n	4026d2 <__kernel_rem_pio2+0x5ca>
  402730:	e8df f003 	tbb	[pc, r3]
  402734:	0230304f 	.word	0x0230304f
  402738:	f50d 7998 	add.w	r9, sp, #304	; 0x130
  40273c:	9b03      	ldr	r3, [sp, #12]
  40273e:	2700      	movs	r7, #0
  402740:	463e      	mov	r6, r7
  402742:	2b00      	cmp	r3, #0
  402744:	f000 80c7 	beq.w	4028d6 <__kernel_rem_pio2+0x7ce>
  402748:	f8d9 300c 	ldr.w	r3, [r9, #12]
  40274c:	9d0a      	ldr	r5, [sp, #40]	; 0x28
  40274e:	f8d9 0004 	ldr.w	r0, [r9, #4]
  402752:	f8d9 2000 	ldr.w	r2, [r9]
  402756:	f8d9 1008 	ldr.w	r1, [r9, #8]
  40275a:	612f      	str	r7, [r5, #16]
  40275c:	f103 4300 	add.w	r3, r3, #2147483648	; 0x80000000
  402760:	60eb      	str	r3, [r5, #12]
  402762:	9b05      	ldr	r3, [sp, #20]
  402764:	602a      	str	r2, [r5, #0]
  402766:	f100 4000 	add.w	r0, r0, #2147483648	; 0x80000000
  40276a:	f106 4600 	add.w	r6, r6, #2147483648	; 0x80000000
  40276e:	6068      	str	r0, [r5, #4]
  402770:	f003 0007 	and.w	r0, r3, #7
  402774:	616e      	str	r6, [r5, #20]
  402776:	60a9      	str	r1, [r5, #8]
  402778:	f50d 7d1d 	add.w	sp, sp, #628	; 0x274
  40277c:	e8bd 8ff0 	ldmia.w	sp!, {r4, r5, r6, r7, r8, r9, sl, fp, pc}
  402780:	3ff00000 	.word	0x3ff00000
  402784:	3fe00000 	.word	0x3fe00000
  402788:	41700000 	.word	0x41700000
  40278c:	3e700000 	.word	0x3e700000
  402790:	0041f8a0 	.word	0x0041f8a0
  402794:	9b03      	ldr	r3, [sp, #12]
  402796:	2400      	movs	r4, #0
  402798:	4625      	mov	r5, r4
  40279a:	f50d 7998 	add.w	r9, sp, #304	; 0x130
  40279e:	2b00      	cmp	r3, #0
  4027a0:	f47f af72 	bne.w	402688 <__kernel_rem_pio2+0x580>
  4027a4:	4620      	mov	r0, r4
  4027a6:	4622      	mov	r2, r4
  4027a8:	9c0a      	ldr	r4, [sp, #40]	; 0x28
  4027aa:	4629      	mov	r1, r5
  4027ac:	462b      	mov	r3, r5
  4027ae:	e9c4 0100 	strd	r0, r1, [r4]
  4027b2:	e9d9 0100 	ldrd	r0, r1, [r9]
  4027b6:	f000 fa81 	bl	402cbc <__aeabi_dsub>
  4027ba:	f1ba 0f00 	cmp.w	sl, #0
  4027be:	4602      	mov	r2, r0
  4027c0:	460b      	mov	r3, r1
  4027c2:	f73f af71 	bgt.w	4026a8 <__kernel_rem_pio2+0x5a0>
  4027c6:	4619      	mov	r1, r3
  4027c8:	9b0a      	ldr	r3, [sp, #40]	; 0x28
  4027ca:	4610      	mov	r0, r2
  4027cc:	e9c3 0102 	strd	r0, r1, [r3, #8]
  4027d0:	e77f      	b.n	4026d2 <__kernel_rem_pio2+0x5ca>
  4027d2:	2200      	movs	r2, #0
  4027d4:	4613      	mov	r3, r2
  4027d6:	e795      	b.n	402704 <__kernel_rem_pio2+0x5fc>
  4027d8:	ab10      	add	r3, sp, #64	; 0x40
  4027da:	9a08      	ldr	r2, [sp, #32]
  4027dc:	f853 302a 	ldr.w	r3, [r3, sl, lsl #2]
  4027e0:	9503      	str	r5, [sp, #12]
  4027e2:	3a18      	subs	r2, #24
  4027e4:	f8cd 8014 	str.w	r8, [sp, #20]
  4027e8:	9208      	str	r2, [sp, #32]
  4027ea:	2b00      	cmp	r3, #0
  4027ec:	f47f aec5 	bne.w	40257a <__kernel_rem_pio2+0x472>
  4027f0:	ab10      	add	r3, sp, #64	; 0x40
  4027f2:	eb03 038a 	add.w	r3, r3, sl, lsl #2
  4027f6:	f853 1d04 	ldr.w	r1, [r3, #-4]!
  4027fa:	f10a 3aff 	add.w	sl, sl, #4294967295
  4027fe:	3a18      	subs	r2, #24
  402800:	2900      	cmp	r1, #0
  402802:	d0f8      	beq.n	4027f6 <__kernel_rem_pio2+0x6ee>
  402804:	9208      	str	r2, [sp, #32]
  402806:	e6b8      	b.n	40257a <__kernel_rem_pio2+0x472>
  402808:	2301      	movs	r3, #1
  40280a:	e5d9      	b.n	4023c0 <__kernel_rem_pio2+0x2b8>
  40280c:	2400      	movs	r4, #0
  40280e:	e597      	b.n	402340 <__kernel_rem_pio2+0x238>
  402810:	f1ba 0f00 	cmp.w	sl, #0
  402814:	dd92      	ble.n	40273c <__kernel_rem_pio2+0x634>
  402816:	ea4f 08ca 	mov.w	r8, sl, lsl #3
  40281a:	eb09 0b08 	add.w	fp, r9, r8
  40281e:	e9db 6700 	ldrd	r6, r7, [fp]
  402822:	e97b 2302 	ldrd	r2, r3, [fp, #-8]!
  402826:	4630      	mov	r0, r6
  402828:	4639      	mov	r1, r7
  40282a:	e9cd 2300 	strd	r2, r3, [sp]
  40282e:	f000 fa47 	bl	402cc0 <__adddf3>
  402832:	4604      	mov	r4, r0
  402834:	460d      	mov	r5, r1
  402836:	4622      	mov	r2, r4
  402838:	462b      	mov	r3, r5
  40283a:	e9dd 0100 	ldrd	r0, r1, [sp]
  40283e:	f000 fa3d 	bl	402cbc <__aeabi_dsub>
  402842:	4602      	mov	r2, r0
  402844:	460b      	mov	r3, r1
  402846:	4630      	mov	r0, r6
  402848:	4639      	mov	r1, r7
  40284a:	f000 fa39 	bl	402cc0 <__adddf3>
  40284e:	45cb      	cmp	fp, r9
  402850:	4626      	mov	r6, r4
  402852:	462f      	mov	r7, r5
  402854:	e9cb 0102 	strd	r0, r1, [fp, #8]
  402858:	e9cb 4500 	strd	r4, r5, [fp]
  40285c:	d1e1      	bne.n	402822 <__kernel_rem_pio2+0x71a>
  40285e:	f1ba 0f01 	cmp.w	sl, #1
  402862:	f77f af6b 	ble.w	40273c <__kernel_rem_pio2+0x634>
  402866:	eb09 0a08 	add.w	sl, r9, r8
  40286a:	e9da 6700 	ldrd	r6, r7, [sl]
  40286e:	f50d 7b9c 	add.w	fp, sp, #312	; 0x138
  402872:	e97a 2302 	ldrd	r2, r3, [sl, #-8]!
  402876:	4610      	mov	r0, r2
  402878:	4619      	mov	r1, r3
  40287a:	4632      	mov	r2, r6
  40287c:	463b      	mov	r3, r7
  40287e:	e9cd 0100 	strd	r0, r1, [sp]
  402882:	f000 fa1d 	bl	402cc0 <__adddf3>
  402886:	4604      	mov	r4, r0
  402888:	460d      	mov	r5, r1
  40288a:	4622      	mov	r2, r4
  40288c:	462b      	mov	r3, r5
  40288e:	e9dd 0100 	ldrd	r0, r1, [sp]
  402892:	f000 fa13 	bl	402cbc <__aeabi_dsub>
  402896:	4632      	mov	r2, r6
  402898:	463b      	mov	r3, r7
  40289a:	f000 fa11 	bl	402cc0 <__adddf3>
  40289e:	45da      	cmp	sl, fp
  4028a0:	4626      	mov	r6, r4
  4028a2:	462f      	mov	r7, r5
  4028a4:	e9ca 0102 	strd	r0, r1, [sl, #8]
  4028a8:	e9ca 4500 	strd	r4, r5, [sl]
  4028ac:	d1e1      	bne.n	402872 <__kernel_rem_pio2+0x76a>
  4028ae:	f108 0408 	add.w	r4, r8, #8
  4028b2:	2700      	movs	r7, #0
  4028b4:	444c      	add	r4, r9
  4028b6:	463e      	mov	r6, r7
  4028b8:	ad50      	add	r5, sp, #320	; 0x140
  4028ba:	4638      	mov	r0, r7
  4028bc:	4631      	mov	r1, r6
  4028be:	e974 2302 	ldrd	r2, r3, [r4, #-8]!
  4028c2:	f000 f9fd 	bl	402cc0 <__adddf3>
  4028c6:	42ac      	cmp	r4, r5
  4028c8:	4607      	mov	r7, r0
  4028ca:	460e      	mov	r6, r1
  4028cc:	d1f5      	bne.n	4028ba <__kernel_rem_pio2+0x7b2>
  4028ce:	9b03      	ldr	r3, [sp, #12]
  4028d0:	2b00      	cmp	r3, #0
  4028d2:	f47f af39 	bne.w	402748 <__kernel_rem_pio2+0x640>
  4028d6:	e9d9 2300 	ldrd	r2, r3, [r9]
  4028da:	463c      	mov	r4, r7
  4028dc:	9f0a      	ldr	r7, [sp, #40]	; 0x28
  4028de:	e9d9 0102 	ldrd	r0, r1, [r9, #8]
  4028e2:	e9c7 2300 	strd	r2, r3, [r7]
  4028e6:	9b05      	ldr	r3, [sp, #20]
  4028e8:	4635      	mov	r5, r6
  4028ea:	e9c7 0102 	strd	r0, r1, [r7, #8]
  4028ee:	f003 0007 	and.w	r0, r3, #7
  4028f2:	e9c7 4504 	strd	r4, r5, [r7, #16]
  4028f6:	f50d 7d1d 	add.w	sp, sp, #628	; 0x274
  4028fa:	e8bd 8ff0 	ldmia.w	sp!, {r4, r5, r6, r7, r8, r9, sl, fp, pc}
  4028fe:	4620      	mov	r0, r4
  402900:	4629      	mov	r1, r5
  402902:	f000 fe29 	bl	403558 <__aeabi_d2iz>
  402906:	ab10      	add	r3, sp, #64	; 0x40
  402908:	46da      	mov	sl, fp
  40290a:	f843 002b 	str.w	r0, [r3, fp, lsl #2]
  40290e:	e634      	b.n	40257a <__kernel_rem_pio2+0x472>

00402910 <__kernel_sin>:
  402910:	e92d 4ff0 	stmdb	sp!, {r4, r5, r6, r7, r8, r9, sl, fp, lr}
  402914:	f021 4600 	bic.w	r6, r1, #2147483648	; 0x80000000
  402918:	f1b6 5f79 	cmp.w	r6, #1044381696	; 0x3e400000
  40291c:	b085      	sub	sp, #20
  40291e:	460c      	mov	r4, r1
  402920:	4690      	mov	r8, r2
  402922:	4699      	mov	r9, r3
  402924:	4605      	mov	r5, r0
  402926:	da04      	bge.n	402932 <__kernel_sin+0x22>
  402928:	f000 fe16 	bl	403558 <__aeabi_d2iz>
  40292c:	2800      	cmp	r0, #0
  40292e:	f000 8083 	beq.w	402a38 <__kernel_sin+0x128>
  402932:	462a      	mov	r2, r5
  402934:	4623      	mov	r3, r4
  402936:	4628      	mov	r0, r5
  402938:	4621      	mov	r1, r4
  40293a:	f000 fb73 	bl	403024 <__aeabi_dmul>
  40293e:	462a      	mov	r2, r5
  402940:	4623      	mov	r3, r4
  402942:	4606      	mov	r6, r0
  402944:	460f      	mov	r7, r1
  402946:	f000 fb6d 	bl	403024 <__aeabi_dmul>
  40294a:	a33f      	add	r3, pc, #252	; (adr r3, 402a48 <__kernel_sin+0x138>)
  40294c:	e9d3 2300 	ldrd	r2, r3, [r3]
  402950:	4682      	mov	sl, r0
  402952:	468b      	mov	fp, r1
  402954:	4630      	mov	r0, r6
  402956:	4639      	mov	r1, r7
  402958:	f000 fb64 	bl	403024 <__aeabi_dmul>
  40295c:	a33c      	add	r3, pc, #240	; (adr r3, 402a50 <__kernel_sin+0x140>)
  40295e:	e9d3 2300 	ldrd	r2, r3, [r3]
  402962:	f000 f9ab 	bl	402cbc <__aeabi_dsub>
  402966:	4632      	mov	r2, r6
  402968:	463b      	mov	r3, r7
  40296a:	f000 fb5b 	bl	403024 <__aeabi_dmul>
  40296e:	a33a      	add	r3, pc, #232	; (adr r3, 402a58 <__kernel_sin+0x148>)
  402970:	e9d3 2300 	ldrd	r2, r3, [r3]
  402974:	f000 f9a4 	bl	402cc0 <__adddf3>
  402978:	4632      	mov	r2, r6
  40297a:	463b      	mov	r3, r7
  40297c:	f000 fb52 	bl	403024 <__aeabi_dmul>
  402980:	a337      	add	r3, pc, #220	; (adr r3, 402a60 <__kernel_sin+0x150>)
  402982:	e9d3 2300 	ldrd	r2, r3, [r3]
  402986:	f000 f999 	bl	402cbc <__aeabi_dsub>
  40298a:	4632      	mov	r2, r6
  40298c:	463b      	mov	r3, r7
  40298e:	f000 fb49 	bl	403024 <__aeabi_dmul>
  402992:	a335      	add	r3, pc, #212	; (adr r3, 402a68 <__kernel_sin+0x158>)
  402994:	e9d3 2300 	ldrd	r2, r3, [r3]
  402998:	f000 f992 	bl	402cc0 <__adddf3>
  40299c:	9b0e      	ldr	r3, [sp, #56]	; 0x38
  40299e:	e9cd 0100 	strd	r0, r1, [sp]
  4029a2:	b39b      	cbz	r3, 402a0c <__kernel_sin+0xfc>
  4029a4:	4640      	mov	r0, r8
  4029a6:	4649      	mov	r1, r9
  4029a8:	2200      	movs	r2, #0
  4029aa:	4b33      	ldr	r3, [pc, #204]	; (402a78 <__kernel_sin+0x168>)
  4029ac:	f000 fb3a 	bl	403024 <__aeabi_dmul>
  4029b0:	e9dd 2300 	ldrd	r2, r3, [sp]
  4029b4:	e9cd 0102 	strd	r0, r1, [sp, #8]
  4029b8:	4650      	mov	r0, sl
  4029ba:	4659      	mov	r1, fp
  4029bc:	f000 fb32 	bl	403024 <__aeabi_dmul>
  4029c0:	4602      	mov	r2, r0
  4029c2:	460b      	mov	r3, r1
  4029c4:	e9dd 0102 	ldrd	r0, r1, [sp, #8]
  4029c8:	f000 f978 	bl	402cbc <__aeabi_dsub>
  4029cc:	4632      	mov	r2, r6
  4029ce:	463b      	mov	r3, r7
  4029d0:	f000 fb28 	bl	403024 <__aeabi_dmul>
  4029d4:	4642      	mov	r2, r8
  4029d6:	464b      	mov	r3, r9
  4029d8:	f000 f970 	bl	402cbc <__aeabi_dsub>
  4029dc:	a324      	add	r3, pc, #144	; (adr r3, 402a70 <__kernel_sin+0x160>)
  4029de:	e9d3 2300 	ldrd	r2, r3, [r3]
  4029e2:	4606      	mov	r6, r0
  4029e4:	460f      	mov	r7, r1
  4029e6:	4650      	mov	r0, sl
  4029e8:	4659      	mov	r1, fp
  4029ea:	f000 fb1b 	bl	403024 <__aeabi_dmul>
  4029ee:	4602      	mov	r2, r0
  4029f0:	460b      	mov	r3, r1
  4029f2:	4630      	mov	r0, r6
  4029f4:	4639      	mov	r1, r7
  4029f6:	f000 f963 	bl	402cc0 <__adddf3>
  4029fa:	4602      	mov	r2, r0
  4029fc:	460b      	mov	r3, r1
  4029fe:	4628      	mov	r0, r5
  402a00:	4621      	mov	r1, r4
  402a02:	f000 f95b 	bl	402cbc <__aeabi_dsub>
  402a06:	b005      	add	sp, #20
  402a08:	e8bd 8ff0 	ldmia.w	sp!, {r4, r5, r6, r7, r8, r9, sl, fp, pc}
  402a0c:	e9dd 2300 	ldrd	r2, r3, [sp]
  402a10:	4630      	mov	r0, r6
  402a12:	4639      	mov	r1, r7
  402a14:	f000 fb06 	bl	403024 <__aeabi_dmul>
  402a18:	a315      	add	r3, pc, #84	; (adr r3, 402a70 <__kernel_sin+0x160>)
  402a1a:	e9d3 2300 	ldrd	r2, r3, [r3]
  402a1e:	f000 f94d 	bl	402cbc <__aeabi_dsub>
  402a22:	4652      	mov	r2, sl
  402a24:	465b      	mov	r3, fp
  402a26:	f000 fafd 	bl	403024 <__aeabi_dmul>
  402a2a:	462a      	mov	r2, r5
  402a2c:	4623      	mov	r3, r4
  402a2e:	f000 f947 	bl	402cc0 <__adddf3>
  402a32:	b005      	add	sp, #20
  402a34:	e8bd 8ff0 	ldmia.w	sp!, {r4, r5, r6, r7, r8, r9, sl, fp, pc}
  402a38:	4628      	mov	r0, r5
  402a3a:	4621      	mov	r1, r4
  402a3c:	b005      	add	sp, #20
  402a3e:	e8bd 8ff0 	ldmia.w	sp!, {r4, r5, r6, r7, r8, r9, sl, fp, pc}
  402a42:	bf00      	nop
  402a44:	f3af 8000 	nop.w
  402a48:	5acfd57c 	.word	0x5acfd57c
  402a4c:	3de5d93a 	.word	0x3de5d93a
  402a50:	8a2b9ceb 	.word	0x8a2b9ceb
  402a54:	3e5ae5e6 	.word	0x3e5ae5e6
  402a58:	57b1fe7d 	.word	0x57b1fe7d
  402a5c:	3ec71de3 	.word	0x3ec71de3
  402a60:	19c161d5 	.word	0x19c161d5
  402a64:	3f2a01a0 	.word	0x3f2a01a0
  402a68:	1110f8a6 	.word	0x1110f8a6
  402a6c:	3f811111 	.word	0x3f811111
  402a70:	55555549 	.word	0x55555549
  402a74:	3fc55555 	.word	0x3fc55555
  402a78:	3fe00000 	.word	0x3fe00000

00402a7c <fabs>:
  402a7c:	f021 4100 	bic.w	r1, r1, #2147483648	; 0x80000000
  402a80:	4770      	bx	lr
  402a82:	bf00      	nop
  402a84:	0000      	movs	r0, r0
	...

00402a88 <floor>:
  402a88:	e92d 47f0 	stmdb	sp!, {r4, r5, r6, r7, r8, r9, sl, lr}
  402a8c:	f3c1 580a 	ubfx	r8, r1, #20, #11
  402a90:	f2a8 36ff 	subw	r6, r8, #1023	; 0x3ff
  402a94:	2e13      	cmp	r6, #19
  402a96:	460b      	mov	r3, r1
  402a98:	460d      	mov	r5, r1
  402a9a:	4604      	mov	r4, r0
  402a9c:	4602      	mov	r2, r0
  402a9e:	4689      	mov	r9, r1
  402aa0:	4607      	mov	r7, r0
  402aa2:	dc1d      	bgt.n	402ae0 <floor+0x58>
  402aa4:	2e00      	cmp	r6, #0
  402aa6:	db40      	blt.n	402b2a <floor+0xa2>
  402aa8:	f8df 80f0 	ldr.w	r8, [pc, #240]	; 402b9c <floor+0x114>
  402aac:	fa48 f806 	asr.w	r8, r8, r6
  402ab0:	ea08 0e01 	and.w	lr, r8, r1
  402ab4:	ea5e 0202 	orrs.w	r2, lr, r2
  402ab8:	d017      	beq.n	402aea <floor+0x62>
  402aba:	a335      	add	r3, pc, #212	; (adr r3, 402b90 <floor+0x108>)
  402abc:	e9d3 2300 	ldrd	r2, r3, [r3]
  402ac0:	f000 f8fe 	bl	402cc0 <__adddf3>
  402ac4:	2200      	movs	r2, #0
  402ac6:	2300      	movs	r3, #0
  402ac8:	f000 fd3c 	bl	403544 <__aeabi_dcmpgt>
  402acc:	b120      	cbz	r0, 402ad8 <floor+0x50>
  402ace:	2d00      	cmp	r5, #0
  402ad0:	db40      	blt.n	402b54 <floor+0xcc>
  402ad2:	ea29 0508 	bic.w	r5, r9, r8
  402ad6:	2700      	movs	r7, #0
  402ad8:	4638      	mov	r0, r7
  402ada:	4629      	mov	r1, r5
  402adc:	e8bd 87f0 	ldmia.w	sp!, {r4, r5, r6, r7, r8, r9, sl, pc}
  402ae0:	2e33      	cmp	r6, #51	; 0x33
  402ae2:	dd06      	ble.n	402af2 <floor+0x6a>
  402ae4:	f5b6 6f80 	cmp.w	r6, #1024	; 0x400
  402ae8:	d02f      	beq.n	402b4a <floor+0xc2>
  402aea:	4620      	mov	r0, r4
  402aec:	4619      	mov	r1, r3
  402aee:	e8bd 87f0 	ldmia.w	sp!, {r4, r5, r6, r7, r8, r9, sl, pc}
  402af2:	f2a8 4213 	subw	r2, r8, #1043	; 0x413
  402af6:	f04f 3aff 	mov.w	sl, #4294967295
  402afa:	fa2a fa02 	lsr.w	sl, sl, r2
  402afe:	ea1a 0f00 	tst.w	sl, r0
  402b02:	d0f2      	beq.n	402aea <floor+0x62>
  402b04:	a322      	add	r3, pc, #136	; (adr r3, 402b90 <floor+0x108>)
  402b06:	e9d3 2300 	ldrd	r2, r3, [r3]
  402b0a:	f000 f8d9 	bl	402cc0 <__adddf3>
  402b0e:	2200      	movs	r2, #0
  402b10:	2300      	movs	r3, #0
  402b12:	f000 fd17 	bl	403544 <__aeabi_dcmpgt>
  402b16:	2800      	cmp	r0, #0
  402b18:	d0de      	beq.n	402ad8 <floor+0x50>
  402b1a:	2d00      	cmp	r5, #0
  402b1c:	db1f      	blt.n	402b5e <floor+0xd6>
  402b1e:	464d      	mov	r5, r9
  402b20:	ea27 070a 	bic.w	r7, r7, sl
  402b24:	4638      	mov	r0, r7
  402b26:	4629      	mov	r1, r5
  402b28:	e7d8      	b.n	402adc <floor+0x54>
  402b2a:	a319      	add	r3, pc, #100	; (adr r3, 402b90 <floor+0x108>)
  402b2c:	e9d3 2300 	ldrd	r2, r3, [r3]
  402b30:	f000 f8c6 	bl	402cc0 <__adddf3>
  402b34:	2200      	movs	r2, #0
  402b36:	2300      	movs	r3, #0
  402b38:	f000 fd04 	bl	403544 <__aeabi_dcmpgt>
  402b3c:	2800      	cmp	r0, #0
  402b3e:	d0cb      	beq.n	402ad8 <floor+0x50>
  402b40:	2d00      	cmp	r5, #0
  402b42:	db1a      	blt.n	402b7a <floor+0xf2>
  402b44:	2700      	movs	r7, #0
  402b46:	463d      	mov	r5, r7
  402b48:	e7c6      	b.n	402ad8 <floor+0x50>
  402b4a:	4602      	mov	r2, r0
  402b4c:	460b      	mov	r3, r1
  402b4e:	f000 f8b7 	bl	402cc0 <__adddf3>
  402b52:	e7cc      	b.n	402aee <floor+0x66>
  402b54:	f44f 1380 	mov.w	r3, #1048576	; 0x100000
  402b58:	4133      	asrs	r3, r6
  402b5a:	4499      	add	r9, r3
  402b5c:	e7b9      	b.n	402ad2 <floor+0x4a>
  402b5e:	2e14      	cmp	r6, #20
  402b60:	d008      	beq.n	402b74 <floor+0xec>
  402b62:	f5c8 6886 	rsb	r8, r8, #1072	; 0x430
  402b66:	f108 0803 	add.w	r8, r8, #3
  402b6a:	2301      	movs	r3, #1
  402b6c:	fa03 f308 	lsl.w	r3, r3, r8
  402b70:	191f      	adds	r7, r3, r4
  402b72:	d3d4      	bcc.n	402b1e <floor+0x96>
  402b74:	f109 0901 	add.w	r9, r9, #1
  402b78:	e7d1      	b.n	402b1e <floor+0x96>
  402b7a:	f025 4200 	bic.w	r2, r5, #2147483648	; 0x80000000
  402b7e:	4b06      	ldr	r3, [pc, #24]	; (402b98 <floor+0x110>)
  402b80:	4322      	orrs	r2, r4
  402b82:	bf18      	it	ne
  402b84:	461d      	movne	r5, r3
  402b86:	2700      	movs	r7, #0
  402b88:	e7a6      	b.n	402ad8 <floor+0x50>
  402b8a:	bf00      	nop
  402b8c:	f3af 8000 	nop.w
  402b90:	8800759c 	.word	0x8800759c
  402b94:	7e37e43c 	.word	0x7e37e43c
  402b98:	bff00000 	.word	0xbff00000
  402b9c:	000fffff 	.word	0x000fffff

00402ba0 <scalbn>:
  402ba0:	b5f8      	push	{r3, r4, r5, r6, r7, lr}
  402ba2:	f3c1 560a 	ubfx	r6, r1, #20, #11
  402ba6:	4604      	mov	r4, r0
  402ba8:	460d      	mov	r5, r1
  402baa:	460b      	mov	r3, r1
  402bac:	4617      	mov	r7, r2
  402bae:	bb16      	cbnz	r6, 402bf6 <scalbn+0x56>
  402bb0:	f021 4300 	bic.w	r3, r1, #2147483648	; 0x80000000
  402bb4:	4303      	orrs	r3, r0
  402bb6:	d032      	beq.n	402c1e <scalbn+0x7e>
  402bb8:	2200      	movs	r2, #0
  402bba:	4b37      	ldr	r3, [pc, #220]	; (402c98 <scalbn+0xf8>)
  402bbc:	f000 fa32 	bl	403024 <__aeabi_dmul>
  402bc0:	4a36      	ldr	r2, [pc, #216]	; (402c9c <scalbn+0xfc>)
  402bc2:	4297      	cmp	r7, r2
  402bc4:	4604      	mov	r4, r0
  402bc6:	460d      	mov	r5, r1
  402bc8:	460b      	mov	r3, r1
  402bca:	db37      	blt.n	402c3c <scalbn+0x9c>
  402bcc:	f3c1 560a 	ubfx	r6, r1, #20, #11
  402bd0:	3e36      	subs	r6, #54	; 0x36
  402bd2:	443e      	add	r6, r7
  402bd4:	f240 72fe 	movw	r2, #2046	; 0x7fe
  402bd8:	4296      	cmp	r6, r2
  402bda:	dd15      	ble.n	402c08 <scalbn+0x68>
  402bdc:	4622      	mov	r2, r4
  402bde:	462b      	mov	r3, r5
  402be0:	a129      	add	r1, pc, #164	; (adr r1, 402c88 <scalbn+0xe8>)
  402be2:	e9d1 0100 	ldrd	r0, r1, [r1]
  402be6:	f000 f85d 	bl	402ca4 <copysign>
  402bea:	a327      	add	r3, pc, #156	; (adr r3, 402c88 <scalbn+0xe8>)
  402bec:	e9d3 2300 	ldrd	r2, r3, [r3]
  402bf0:	f000 fa18 	bl	403024 <__aeabi_dmul>
  402bf4:	bdf8      	pop	{r3, r4, r5, r6, r7, pc}
  402bf6:	f240 72ff 	movw	r2, #2047	; 0x7ff
  402bfa:	4296      	cmp	r6, r2
  402bfc:	d024      	beq.n	402c48 <scalbn+0xa8>
  402bfe:	443e      	add	r6, r7
  402c00:	f240 72fe 	movw	r2, #2046	; 0x7fe
  402c04:	4296      	cmp	r6, r2
  402c06:	dce9      	bgt.n	402bdc <scalbn+0x3c>
  402c08:	2e00      	cmp	r6, #0
  402c0a:	dd09      	ble.n	402c20 <scalbn+0x80>
  402c0c:	f023 43ff 	bic.w	r3, r3, #2139095040	; 0x7f800000
  402c10:	f423 03e0 	bic.w	r3, r3, #7340032	; 0x700000
  402c14:	ea43 5506 	orr.w	r5, r3, r6, lsl #20
  402c18:	4620      	mov	r0, r4
  402c1a:	4629      	mov	r1, r5
  402c1c:	bdf8      	pop	{r3, r4, r5, r6, r7, pc}
  402c1e:	bdf8      	pop	{r3, r4, r5, r6, r7, pc}
  402c20:	f116 0f35 	cmn.w	r6, #53	; 0x35
  402c24:	da15      	bge.n	402c52 <scalbn+0xb2>
  402c26:	f24c 3350 	movw	r3, #50000	; 0xc350
  402c2a:	429f      	cmp	r7, r3
  402c2c:	4622      	mov	r2, r4
  402c2e:	462b      	mov	r3, r5
  402c30:	dc1d      	bgt.n	402c6e <scalbn+0xce>
  402c32:	a117      	add	r1, pc, #92	; (adr r1, 402c90 <scalbn+0xf0>)
  402c34:	e9d1 0100 	ldrd	r0, r1, [r1]
  402c38:	f000 f834 	bl	402ca4 <copysign>
  402c3c:	a314      	add	r3, pc, #80	; (adr r3, 402c90 <scalbn+0xf0>)
  402c3e:	e9d3 2300 	ldrd	r2, r3, [r3]
  402c42:	f000 f9ef 	bl	403024 <__aeabi_dmul>
  402c46:	bdf8      	pop	{r3, r4, r5, r6, r7, pc}
  402c48:	4602      	mov	r2, r0
  402c4a:	460b      	mov	r3, r1
  402c4c:	f000 f838 	bl	402cc0 <__adddf3>
  402c50:	bdf8      	pop	{r3, r4, r5, r6, r7, pc}
  402c52:	f023 43ff 	bic.w	r3, r3, #2139095040	; 0x7f800000
  402c56:	f423 03e0 	bic.w	r3, r3, #7340032	; 0x700000
  402c5a:	3636      	adds	r6, #54	; 0x36
  402c5c:	ea43 5506 	orr.w	r5, r3, r6, lsl #20
  402c60:	4620      	mov	r0, r4
  402c62:	4629      	mov	r1, r5
  402c64:	2200      	movs	r2, #0
  402c66:	4b0e      	ldr	r3, [pc, #56]	; (402ca0 <scalbn+0x100>)
  402c68:	f000 f9dc 	bl	403024 <__aeabi_dmul>
  402c6c:	bdf8      	pop	{r3, r4, r5, r6, r7, pc}
  402c6e:	a106      	add	r1, pc, #24	; (adr r1, 402c88 <scalbn+0xe8>)
  402c70:	e9d1 0100 	ldrd	r0, r1, [r1]
  402c74:	f000 f816 	bl	402ca4 <copysign>
  402c78:	a303      	add	r3, pc, #12	; (adr r3, 402c88 <scalbn+0xe8>)
  402c7a:	e9d3 2300 	ldrd	r2, r3, [r3]
  402c7e:	f000 f9d1 	bl	403024 <__aeabi_dmul>
  402c82:	bdf8      	pop	{r3, r4, r5, r6, r7, pc}
  402c84:	f3af 8000 	nop.w
  402c88:	8800759c 	.word	0x8800759c
  402c8c:	7e37e43c 	.word	0x7e37e43c
  402c90:	c2f8f359 	.word	0xc2f8f359
  402c94:	01a56e1f 	.word	0x01a56e1f
  402c98:	43500000 	.word	0x43500000
  402c9c:	ffff3cb0 	.word	0xffff3cb0
  402ca0:	3c900000 	.word	0x3c900000

00402ca4 <copysign>:
  402ca4:	f003 4300 	and.w	r3, r3, #2147483648	; 0x80000000
  402ca8:	f021 4200 	bic.w	r2, r1, #2147483648	; 0x80000000
  402cac:	ea43 0102 	orr.w	r1, r3, r2
  402cb0:	4770      	bx	lr
  402cb2:	bf00      	nop

00402cb4 <__aeabi_drsub>:
  402cb4:	f081 4100 	eor.w	r1, r1, #2147483648	; 0x80000000
  402cb8:	e002      	b.n	402cc0 <__adddf3>
  402cba:	bf00      	nop

00402cbc <__aeabi_dsub>:
  402cbc:	f083 4300 	eor.w	r3, r3, #2147483648	; 0x80000000

00402cc0 <__adddf3>:
  402cc0:	b530      	push	{r4, r5, lr}
  402cc2:	ea4f 0441 	mov.w	r4, r1, lsl #1
  402cc6:	ea4f 0543 	mov.w	r5, r3, lsl #1
  402cca:	ea94 0f05 	teq	r4, r5
  402cce:	bf08      	it	eq
  402cd0:	ea90 0f02 	teqeq	r0, r2
  402cd4:	bf1f      	itttt	ne
  402cd6:	ea54 0c00 	orrsne.w	ip, r4, r0
  402cda:	ea55 0c02 	orrsne.w	ip, r5, r2
  402cde:	ea7f 5c64 	mvnsne.w	ip, r4, asr #21
  402ce2:	ea7f 5c65 	mvnsne.w	ip, r5, asr #21
  402ce6:	f000 80e2 	beq.w	402eae <__adddf3+0x1ee>
  402cea:	ea4f 5454 	mov.w	r4, r4, lsr #21
  402cee:	ebd4 5555 	rsbs	r5, r4, r5, lsr #21
  402cf2:	bfb8      	it	lt
  402cf4:	426d      	neglt	r5, r5
  402cf6:	dd0c      	ble.n	402d12 <__adddf3+0x52>
  402cf8:	442c      	add	r4, r5
  402cfa:	ea80 0202 	eor.w	r2, r0, r2
  402cfe:	ea81 0303 	eor.w	r3, r1, r3
  402d02:	ea82 0000 	eor.w	r0, r2, r0
  402d06:	ea83 0101 	eor.w	r1, r3, r1
  402d0a:	ea80 0202 	eor.w	r2, r0, r2
  402d0e:	ea81 0303 	eor.w	r3, r1, r3
  402d12:	2d36      	cmp	r5, #54	; 0x36
  402d14:	bf88      	it	hi
  402d16:	bd30      	pophi	{r4, r5, pc}
  402d18:	f011 4f00 	tst.w	r1, #2147483648	; 0x80000000
  402d1c:	ea4f 3101 	mov.w	r1, r1, lsl #12
  402d20:	f44f 1c80 	mov.w	ip, #1048576	; 0x100000
  402d24:	ea4c 3111 	orr.w	r1, ip, r1, lsr #12
  402d28:	d002      	beq.n	402d30 <__adddf3+0x70>
  402d2a:	4240      	negs	r0, r0
  402d2c:	eb61 0141 	sbc.w	r1, r1, r1, lsl #1
  402d30:	f013 4f00 	tst.w	r3, #2147483648	; 0x80000000
  402d34:	ea4f 3303 	mov.w	r3, r3, lsl #12
  402d38:	ea4c 3313 	orr.w	r3, ip, r3, lsr #12
  402d3c:	d002      	beq.n	402d44 <__adddf3+0x84>
  402d3e:	4252      	negs	r2, r2
  402d40:	eb63 0343 	sbc.w	r3, r3, r3, lsl #1
  402d44:	ea94 0f05 	teq	r4, r5
  402d48:	f000 80a7 	beq.w	402e9a <__adddf3+0x1da>
  402d4c:	f1a4 0401 	sub.w	r4, r4, #1
  402d50:	f1d5 0e20 	rsbs	lr, r5, #32
  402d54:	db0d      	blt.n	402d72 <__adddf3+0xb2>
  402d56:	fa02 fc0e 	lsl.w	ip, r2, lr
  402d5a:	fa22 f205 	lsr.w	r2, r2, r5
  402d5e:	1880      	adds	r0, r0, r2
  402d60:	f141 0100 	adc.w	r1, r1, #0
  402d64:	fa03 f20e 	lsl.w	r2, r3, lr
  402d68:	1880      	adds	r0, r0, r2
  402d6a:	fa43 f305 	asr.w	r3, r3, r5
  402d6e:	4159      	adcs	r1, r3
  402d70:	e00e      	b.n	402d90 <__adddf3+0xd0>
  402d72:	f1a5 0520 	sub.w	r5, r5, #32
  402d76:	f10e 0e20 	add.w	lr, lr, #32
  402d7a:	2a01      	cmp	r2, #1
  402d7c:	fa03 fc0e 	lsl.w	ip, r3, lr
  402d80:	bf28      	it	cs
  402d82:	f04c 0c02 	orrcs.w	ip, ip, #2
  402d86:	fa43 f305 	asr.w	r3, r3, r5
  402d8a:	18c0      	adds	r0, r0, r3
  402d8c:	eb51 71e3 	adcs.w	r1, r1, r3, asr #31
  402d90:	f001 4500 	and.w	r5, r1, #2147483648	; 0x80000000
  402d94:	d507      	bpl.n	402da6 <__adddf3+0xe6>
  402d96:	f04f 0e00 	mov.w	lr, #0
  402d9a:	f1dc 0c00 	rsbs	ip, ip, #0
  402d9e:	eb7e 0000 	sbcs.w	r0, lr, r0
  402da2:	eb6e 0101 	sbc.w	r1, lr, r1
  402da6:	f5b1 1f80 	cmp.w	r1, #1048576	; 0x100000
  402daa:	d31b      	bcc.n	402de4 <__adddf3+0x124>
  402dac:	f5b1 1f00 	cmp.w	r1, #2097152	; 0x200000
  402db0:	d30c      	bcc.n	402dcc <__adddf3+0x10c>
  402db2:	0849      	lsrs	r1, r1, #1
  402db4:	ea5f 0030 	movs.w	r0, r0, rrx
  402db8:	ea4f 0c3c 	mov.w	ip, ip, rrx
  402dbc:	f104 0401 	add.w	r4, r4, #1
  402dc0:	ea4f 5244 	mov.w	r2, r4, lsl #21
  402dc4:	f512 0f80 	cmn.w	r2, #4194304	; 0x400000
  402dc8:	f080 809a 	bcs.w	402f00 <__adddf3+0x240>
  402dcc:	f1bc 4f00 	cmp.w	ip, #2147483648	; 0x80000000
  402dd0:	bf08      	it	eq
  402dd2:	ea5f 0c50 	movseq.w	ip, r0, lsr #1
  402dd6:	f150 0000 	adcs.w	r0, r0, #0
  402dda:	eb41 5104 	adc.w	r1, r1, r4, lsl #20
  402dde:	ea41 0105 	orr.w	r1, r1, r5
  402de2:	bd30      	pop	{r4, r5, pc}
  402de4:	ea5f 0c4c 	movs.w	ip, ip, lsl #1
  402de8:	4140      	adcs	r0, r0
  402dea:	eb41 0101 	adc.w	r1, r1, r1
  402dee:	f411 1f80 	tst.w	r1, #1048576	; 0x100000
  402df2:	f1a4 0401 	sub.w	r4, r4, #1
  402df6:	d1e9      	bne.n	402dcc <__adddf3+0x10c>
  402df8:	f091 0f00 	teq	r1, #0
  402dfc:	bf04      	itt	eq
  402dfe:	4601      	moveq	r1, r0
  402e00:	2000      	moveq	r0, #0
  402e02:	fab1 f381 	clz	r3, r1
  402e06:	bf08      	it	eq
  402e08:	3320      	addeq	r3, #32
  402e0a:	f1a3 030b 	sub.w	r3, r3, #11
  402e0e:	f1b3 0220 	subs.w	r2, r3, #32
  402e12:	da0c      	bge.n	402e2e <__adddf3+0x16e>
  402e14:	320c      	adds	r2, #12
  402e16:	dd08      	ble.n	402e2a <__adddf3+0x16a>
  402e18:	f102 0c14 	add.w	ip, r2, #20
  402e1c:	f1c2 020c 	rsb	r2, r2, #12
  402e20:	fa01 f00c 	lsl.w	r0, r1, ip
  402e24:	fa21 f102 	lsr.w	r1, r1, r2
  402e28:	e00c      	b.n	402e44 <__adddf3+0x184>
  402e2a:	f102 0214 	add.w	r2, r2, #20
  402e2e:	bfd8      	it	le
  402e30:	f1c2 0c20 	rsble	ip, r2, #32
  402e34:	fa01 f102 	lsl.w	r1, r1, r2
  402e38:	fa20 fc0c 	lsr.w	ip, r0, ip
  402e3c:	bfdc      	itt	le
  402e3e:	ea41 010c 	orrle.w	r1, r1, ip
  402e42:	4090      	lslle	r0, r2
  402e44:	1ae4      	subs	r4, r4, r3
  402e46:	bfa2      	ittt	ge
  402e48:	eb01 5104 	addge.w	r1, r1, r4, lsl #20
  402e4c:	4329      	orrge	r1, r5
  402e4e:	bd30      	popge	{r4, r5, pc}
  402e50:	ea6f 0404 	mvn.w	r4, r4
  402e54:	3c1f      	subs	r4, #31
  402e56:	da1c      	bge.n	402e92 <__adddf3+0x1d2>
  402e58:	340c      	adds	r4, #12
  402e5a:	dc0e      	bgt.n	402e7a <__adddf3+0x1ba>
  402e5c:	f104 0414 	add.w	r4, r4, #20
  402e60:	f1c4 0220 	rsb	r2, r4, #32
  402e64:	fa20 f004 	lsr.w	r0, r0, r4
  402e68:	fa01 f302 	lsl.w	r3, r1, r2
  402e6c:	ea40 0003 	orr.w	r0, r0, r3
  402e70:	fa21 f304 	lsr.w	r3, r1, r4
  402e74:	ea45 0103 	orr.w	r1, r5, r3
  402e78:	bd30      	pop	{r4, r5, pc}
  402e7a:	f1c4 040c 	rsb	r4, r4, #12
  402e7e:	f1c4 0220 	rsb	r2, r4, #32
  402e82:	fa20 f002 	lsr.w	r0, r0, r2
  402e86:	fa01 f304 	lsl.w	r3, r1, r4
  402e8a:	ea40 0003 	orr.w	r0, r0, r3
  402e8e:	4629      	mov	r1, r5
  402e90:	bd30      	pop	{r4, r5, pc}
  402e92:	fa21 f004 	lsr.w	r0, r1, r4
  402e96:	4629      	mov	r1, r5
  402e98:	bd30      	pop	{r4, r5, pc}
  402e9a:	f094 0f00 	teq	r4, #0
  402e9e:	f483 1380 	eor.w	r3, r3, #1048576	; 0x100000
  402ea2:	bf06      	itte	eq
  402ea4:	f481 1180 	eoreq.w	r1, r1, #1048576	; 0x100000
  402ea8:	3401      	addeq	r4, #1
  402eaa:	3d01      	subne	r5, #1
  402eac:	e74e      	b.n	402d4c <__adddf3+0x8c>
  402eae:	ea7f 5c64 	mvns.w	ip, r4, asr #21
  402eb2:	bf18      	it	ne
  402eb4:	ea7f 5c65 	mvnsne.w	ip, r5, asr #21
  402eb8:	d029      	beq.n	402f0e <__adddf3+0x24e>
  402eba:	ea94 0f05 	teq	r4, r5
  402ebe:	bf08      	it	eq
  402ec0:	ea90 0f02 	teqeq	r0, r2
  402ec4:	d005      	beq.n	402ed2 <__adddf3+0x212>
  402ec6:	ea54 0c00 	orrs.w	ip, r4, r0
  402eca:	bf04      	itt	eq
  402ecc:	4619      	moveq	r1, r3
  402ece:	4610      	moveq	r0, r2
  402ed0:	bd30      	pop	{r4, r5, pc}
  402ed2:	ea91 0f03 	teq	r1, r3
  402ed6:	bf1e      	ittt	ne
  402ed8:	2100      	movne	r1, #0
  402eda:	2000      	movne	r0, #0
  402edc:	bd30      	popne	{r4, r5, pc}
  402ede:	ea5f 5c54 	movs.w	ip, r4, lsr #21
  402ee2:	d105      	bne.n	402ef0 <__adddf3+0x230>
  402ee4:	0040      	lsls	r0, r0, #1
  402ee6:	4149      	adcs	r1, r1
  402ee8:	bf28      	it	cs
  402eea:	f041 4100 	orrcs.w	r1, r1, #2147483648	; 0x80000000
  402eee:	bd30      	pop	{r4, r5, pc}
  402ef0:	f514 0480 	adds.w	r4, r4, #4194304	; 0x400000
  402ef4:	bf3c      	itt	cc
  402ef6:	f501 1180 	addcc.w	r1, r1, #1048576	; 0x100000
  402efa:	bd30      	popcc	{r4, r5, pc}
  402efc:	f001 4500 	and.w	r5, r1, #2147483648	; 0x80000000
  402f00:	f045 41fe 	orr.w	r1, r5, #2130706432	; 0x7f000000
  402f04:	f441 0170 	orr.w	r1, r1, #15728640	; 0xf00000
  402f08:	f04f 0000 	mov.w	r0, #0
  402f0c:	bd30      	pop	{r4, r5, pc}
  402f0e:	ea7f 5c64 	mvns.w	ip, r4, asr #21
  402f12:	bf1a      	itte	ne
  402f14:	4619      	movne	r1, r3
  402f16:	4610      	movne	r0, r2
  402f18:	ea7f 5c65 	mvnseq.w	ip, r5, asr #21
  402f1c:	bf1c      	itt	ne
  402f1e:	460b      	movne	r3, r1
  402f20:	4602      	movne	r2, r0
  402f22:	ea50 3401 	orrs.w	r4, r0, r1, lsl #12
  402f26:	bf06      	itte	eq
  402f28:	ea52 3503 	orrseq.w	r5, r2, r3, lsl #12
  402f2c:	ea91 0f03 	teqeq	r1, r3
  402f30:	f441 2100 	orrne.w	r1, r1, #524288	; 0x80000
  402f34:	bd30      	pop	{r4, r5, pc}
  402f36:	bf00      	nop

00402f38 <__aeabi_ui2d>:
  402f38:	f090 0f00 	teq	r0, #0
  402f3c:	bf04      	itt	eq
  402f3e:	2100      	moveq	r1, #0
  402f40:	4770      	bxeq	lr
  402f42:	b530      	push	{r4, r5, lr}
  402f44:	f44f 6480 	mov.w	r4, #1024	; 0x400
  402f48:	f104 0432 	add.w	r4, r4, #50	; 0x32
  402f4c:	f04f 0500 	mov.w	r5, #0
  402f50:	f04f 0100 	mov.w	r1, #0
  402f54:	e750      	b.n	402df8 <__adddf3+0x138>
  402f56:	bf00      	nop

00402f58 <__aeabi_i2d>:
  402f58:	f090 0f00 	teq	r0, #0
  402f5c:	bf04      	itt	eq
  402f5e:	2100      	moveq	r1, #0
  402f60:	4770      	bxeq	lr
  402f62:	b530      	push	{r4, r5, lr}
  402f64:	f44f 6480 	mov.w	r4, #1024	; 0x400
  402f68:	f104 0432 	add.w	r4, r4, #50	; 0x32
  402f6c:	f010 4500 	ands.w	r5, r0, #2147483648	; 0x80000000
  402f70:	bf48      	it	mi
  402f72:	4240      	negmi	r0, r0
  402f74:	f04f 0100 	mov.w	r1, #0
  402f78:	e73e      	b.n	402df8 <__adddf3+0x138>
  402f7a:	bf00      	nop

00402f7c <__aeabi_f2d>:
  402f7c:	0042      	lsls	r2, r0, #1
  402f7e:	ea4f 01e2 	mov.w	r1, r2, asr #3
  402f82:	ea4f 0131 	mov.w	r1, r1, rrx
  402f86:	ea4f 7002 	mov.w	r0, r2, lsl #28
  402f8a:	bf1f      	itttt	ne
  402f8c:	f012 437f 	andsne.w	r3, r2, #4278190080	; 0xff000000
  402f90:	f093 4f7f 	teqne	r3, #4278190080	; 0xff000000
  402f94:	f081 5160 	eorne.w	r1, r1, #939524096	; 0x38000000
  402f98:	4770      	bxne	lr
  402f9a:	f092 0f00 	teq	r2, #0
  402f9e:	bf14      	ite	ne
  402fa0:	f093 4f7f 	teqne	r3, #4278190080	; 0xff000000
  402fa4:	4770      	bxeq	lr
  402fa6:	b530      	push	{r4, r5, lr}
  402fa8:	f44f 7460 	mov.w	r4, #896	; 0x380
  402fac:	f001 4500 	and.w	r5, r1, #2147483648	; 0x80000000
  402fb0:	f021 4100 	bic.w	r1, r1, #2147483648	; 0x80000000
  402fb4:	e720      	b.n	402df8 <__adddf3+0x138>
  402fb6:	bf00      	nop

00402fb8 <__aeabi_ul2d>:
  402fb8:	ea50 0201 	orrs.w	r2, r0, r1
  402fbc:	bf08      	it	eq
  402fbe:	4770      	bxeq	lr
  402fc0:	b530      	push	{r4, r5, lr}
  402fc2:	f04f 0500 	mov.w	r5, #0
  402fc6:	e00a      	b.n	402fde <__aeabi_l2d+0x16>

00402fc8 <__aeabi_l2d>:
  402fc8:	ea50 0201 	orrs.w	r2, r0, r1
  402fcc:	bf08      	it	eq
  402fce:	4770      	bxeq	lr
  402fd0:	b530      	push	{r4, r5, lr}
  402fd2:	f011 4500 	ands.w	r5, r1, #2147483648	; 0x80000000
  402fd6:	d502      	bpl.n	402fde <__aeabi_l2d+0x16>
  402fd8:	4240      	negs	r0, r0
  402fda:	eb61 0141 	sbc.w	r1, r1, r1, lsl #1
  402fde:	f44f 6480 	mov.w	r4, #1024	; 0x400
  402fe2:	f104 0432 	add.w	r4, r4, #50	; 0x32
  402fe6:	ea5f 5c91 	movs.w	ip, r1, lsr #22
  402fea:	f43f aedc 	beq.w	402da6 <__adddf3+0xe6>
  402fee:	f04f 0203 	mov.w	r2, #3
  402ff2:	ea5f 0cdc 	movs.w	ip, ip, lsr #3
  402ff6:	bf18      	it	ne
  402ff8:	3203      	addne	r2, #3
  402ffa:	ea5f 0cdc 	movs.w	ip, ip, lsr #3
  402ffe:	bf18      	it	ne
  403000:	3203      	addne	r2, #3
  403002:	eb02 02dc 	add.w	r2, r2, ip, lsr #3
  403006:	f1c2 0320 	rsb	r3, r2, #32
  40300a:	fa00 fc03 	lsl.w	ip, r0, r3
  40300e:	fa20 f002 	lsr.w	r0, r0, r2
  403012:	fa01 fe03 	lsl.w	lr, r1, r3
  403016:	ea40 000e 	orr.w	r0, r0, lr
  40301a:	fa21 f102 	lsr.w	r1, r1, r2
  40301e:	4414      	add	r4, r2
  403020:	e6c1      	b.n	402da6 <__adddf3+0xe6>
  403022:	bf00      	nop

00403024 <__aeabi_dmul>:
  403024:	b570      	push	{r4, r5, r6, lr}
  403026:	f04f 0cff 	mov.w	ip, #255	; 0xff
  40302a:	f44c 6ce0 	orr.w	ip, ip, #1792	; 0x700
  40302e:	ea1c 5411 	ands.w	r4, ip, r1, lsr #20
  403032:	bf1d      	ittte	ne
  403034:	ea1c 5513 	andsne.w	r5, ip, r3, lsr #20
  403038:	ea94 0f0c 	teqne	r4, ip
  40303c:	ea95 0f0c 	teqne	r5, ip
  403040:	f000 f8de 	bleq	403200 <__aeabi_dmul+0x1dc>
  403044:	442c      	add	r4, r5
  403046:	ea81 0603 	eor.w	r6, r1, r3
  40304a:	ea21 514c 	bic.w	r1, r1, ip, lsl #21
  40304e:	ea23 534c 	bic.w	r3, r3, ip, lsl #21
  403052:	ea50 3501 	orrs.w	r5, r0, r1, lsl #12
  403056:	bf18      	it	ne
  403058:	ea52 3503 	orrsne.w	r5, r2, r3, lsl #12
  40305c:	f441 1180 	orr.w	r1, r1, #1048576	; 0x100000
  403060:	f443 1380 	orr.w	r3, r3, #1048576	; 0x100000
  403064:	d038      	beq.n	4030d8 <__aeabi_dmul+0xb4>
  403066:	fba0 ce02 	umull	ip, lr, r0, r2
  40306a:	f04f 0500 	mov.w	r5, #0
  40306e:	fbe1 e502 	umlal	lr, r5, r1, r2
  403072:	f006 4200 	and.w	r2, r6, #2147483648	; 0x80000000
  403076:	fbe0 e503 	umlal	lr, r5, r0, r3
  40307a:	f04f 0600 	mov.w	r6, #0
  40307e:	fbe1 5603 	umlal	r5, r6, r1, r3
  403082:	f09c 0f00 	teq	ip, #0
  403086:	bf18      	it	ne
  403088:	f04e 0e01 	orrne.w	lr, lr, #1
  40308c:	f1a4 04ff 	sub.w	r4, r4, #255	; 0xff
  403090:	f5b6 7f00 	cmp.w	r6, #512	; 0x200
  403094:	f564 7440 	sbc.w	r4, r4, #768	; 0x300
  403098:	d204      	bcs.n	4030a4 <__aeabi_dmul+0x80>
  40309a:	ea5f 0e4e 	movs.w	lr, lr, lsl #1
  40309e:	416d      	adcs	r5, r5
  4030a0:	eb46 0606 	adc.w	r6, r6, r6
  4030a4:	ea42 21c6 	orr.w	r1, r2, r6, lsl #11
  4030a8:	ea41 5155 	orr.w	r1, r1, r5, lsr #21
  4030ac:	ea4f 20c5 	mov.w	r0, r5, lsl #11
  4030b0:	ea40 505e 	orr.w	r0, r0, lr, lsr #21
  4030b4:	ea4f 2ece 	mov.w	lr, lr, lsl #11
  4030b8:	f1b4 0cfd 	subs.w	ip, r4, #253	; 0xfd
  4030bc:	bf88      	it	hi
  4030be:	f5bc 6fe0 	cmphi.w	ip, #1792	; 0x700
  4030c2:	d81e      	bhi.n	403102 <__aeabi_dmul+0xde>
  4030c4:	f1be 4f00 	cmp.w	lr, #2147483648	; 0x80000000
  4030c8:	bf08      	it	eq
  4030ca:	ea5f 0e50 	movseq.w	lr, r0, lsr #1
  4030ce:	f150 0000 	adcs.w	r0, r0, #0
  4030d2:	eb41 5104 	adc.w	r1, r1, r4, lsl #20
  4030d6:	bd70      	pop	{r4, r5, r6, pc}
  4030d8:	f006 4600 	and.w	r6, r6, #2147483648	; 0x80000000
  4030dc:	ea46 0101 	orr.w	r1, r6, r1
  4030e0:	ea40 0002 	orr.w	r0, r0, r2
  4030e4:	ea81 0103 	eor.w	r1, r1, r3
  4030e8:	ebb4 045c 	subs.w	r4, r4, ip, lsr #1
  4030ec:	bfc2      	ittt	gt
  4030ee:	ebd4 050c 	rsbsgt	r5, r4, ip
  4030f2:	ea41 5104 	orrgt.w	r1, r1, r4, lsl #20
  4030f6:	bd70      	popgt	{r4, r5, r6, pc}
  4030f8:	f441 1180 	orr.w	r1, r1, #1048576	; 0x100000
  4030fc:	f04f 0e00 	mov.w	lr, #0
  403100:	3c01      	subs	r4, #1
  403102:	f300 80ab 	bgt.w	40325c <__aeabi_dmul+0x238>
  403106:	f114 0f36 	cmn.w	r4, #54	; 0x36
  40310a:	bfde      	ittt	le
  40310c:	2000      	movle	r0, #0
  40310e:	f001 4100 	andle.w	r1, r1, #2147483648	; 0x80000000
  403112:	bd70      	pople	{r4, r5, r6, pc}
  403114:	f1c4 0400 	rsb	r4, r4, #0
  403118:	3c20      	subs	r4, #32
  40311a:	da35      	bge.n	403188 <__aeabi_dmul+0x164>
  40311c:	340c      	adds	r4, #12
  40311e:	dc1b      	bgt.n	403158 <__aeabi_dmul+0x134>
  403120:	f104 0414 	add.w	r4, r4, #20
  403124:	f1c4 0520 	rsb	r5, r4, #32
  403128:	fa00 f305 	lsl.w	r3, r0, r5
  40312c:	fa20 f004 	lsr.w	r0, r0, r4
  403130:	fa01 f205 	lsl.w	r2, r1, r5
  403134:	ea40 0002 	orr.w	r0, r0, r2
  403138:	f001 4200 	and.w	r2, r1, #2147483648	; 0x80000000
  40313c:	f021 4100 	bic.w	r1, r1, #2147483648	; 0x80000000
  403140:	eb10 70d3 	adds.w	r0, r0, r3, lsr #31
  403144:	fa21 f604 	lsr.w	r6, r1, r4
  403148:	eb42 0106 	adc.w	r1, r2, r6
  40314c:	ea5e 0e43 	orrs.w	lr, lr, r3, lsl #1
  403150:	bf08      	it	eq
  403152:	ea20 70d3 	biceq.w	r0, r0, r3, lsr #31
  403156:	bd70      	pop	{r4, r5, r6, pc}
  403158:	f1c4 040c 	rsb	r4, r4, #12
  40315c:	f1c4 0520 	rsb	r5, r4, #32
  403160:	fa00 f304 	lsl.w	r3, r0, r4
  403164:	fa20 f005 	lsr.w	r0, r0, r5
  403168:	fa01 f204 	lsl.w	r2, r1, r4
  40316c:	ea40 0002 	orr.w	r0, r0, r2
  403170:	f001 4100 	and.w	r1, r1, #2147483648	; 0x80000000
  403174:	eb10 70d3 	adds.w	r0, r0, r3, lsr #31
  403178:	f141 0100 	adc.w	r1, r1, #0
  40317c:	ea5e 0e43 	orrs.w	lr, lr, r3, lsl #1
  403180:	bf08      	it	eq
  403182:	ea20 70d3 	biceq.w	r0, r0, r3, lsr #31
  403186:	bd70      	pop	{r4, r5, r6, pc}
  403188:	f1c4 0520 	rsb	r5, r4, #32
  40318c:	fa00 f205 	lsl.w	r2, r0, r5
  403190:	ea4e 0e02 	orr.w	lr, lr, r2
  403194:	fa20 f304 	lsr.w	r3, r0, r4
  403198:	fa01 f205 	lsl.w	r2, r1, r5
  40319c:	ea43 0302 	orr.w	r3, r3, r2
  4031a0:	fa21 f004 	lsr.w	r0, r1, r4
  4031a4:	f001 4100 	and.w	r1, r1, #2147483648	; 0x80000000
  4031a8:	fa21 f204 	lsr.w	r2, r1, r4
  4031ac:	ea20 0002 	bic.w	r0, r0, r2
  4031b0:	eb00 70d3 	add.w	r0, r0, r3, lsr #31
  4031b4:	ea5e 0e43 	orrs.w	lr, lr, r3, lsl #1
  4031b8:	bf08      	it	eq
  4031ba:	ea20 70d3 	biceq.w	r0, r0, r3, lsr #31
  4031be:	bd70      	pop	{r4, r5, r6, pc}
  4031c0:	f094 0f00 	teq	r4, #0
  4031c4:	d10f      	bne.n	4031e6 <__aeabi_dmul+0x1c2>
  4031c6:	f001 4600 	and.w	r6, r1, #2147483648	; 0x80000000
  4031ca:	0040      	lsls	r0, r0, #1
  4031cc:	eb41 0101 	adc.w	r1, r1, r1
  4031d0:	f411 1f80 	tst.w	r1, #1048576	; 0x100000
  4031d4:	bf08      	it	eq
  4031d6:	3c01      	subeq	r4, #1
  4031d8:	d0f7      	beq.n	4031ca <__aeabi_dmul+0x1a6>
  4031da:	ea41 0106 	orr.w	r1, r1, r6
  4031de:	f095 0f00 	teq	r5, #0
  4031e2:	bf18      	it	ne
  4031e4:	4770      	bxne	lr
  4031e6:	f003 4600 	and.w	r6, r3, #2147483648	; 0x80000000
  4031ea:	0052      	lsls	r2, r2, #1
  4031ec:	eb43 0303 	adc.w	r3, r3, r3
  4031f0:	f413 1f80 	tst.w	r3, #1048576	; 0x100000
  4031f4:	bf08      	it	eq
  4031f6:	3d01      	subeq	r5, #1
  4031f8:	d0f7      	beq.n	4031ea <__aeabi_dmul+0x1c6>
  4031fa:	ea43 0306 	orr.w	r3, r3, r6
  4031fe:	4770      	bx	lr
  403200:	ea94 0f0c 	teq	r4, ip
  403204:	ea0c 5513 	and.w	r5, ip, r3, lsr #20
  403208:	bf18      	it	ne
  40320a:	ea95 0f0c 	teqne	r5, ip
  40320e:	d00c      	beq.n	40322a <__aeabi_dmul+0x206>
  403210:	ea50 0641 	orrs.w	r6, r0, r1, lsl #1
  403214:	bf18      	it	ne
  403216:	ea52 0643 	orrsne.w	r6, r2, r3, lsl #1
  40321a:	d1d1      	bne.n	4031c0 <__aeabi_dmul+0x19c>
  40321c:	ea81 0103 	eor.w	r1, r1, r3
  403220:	f001 4100 	and.w	r1, r1, #2147483648	; 0x80000000
  403224:	f04f 0000 	mov.w	r0, #0
  403228:	bd70      	pop	{r4, r5, r6, pc}
  40322a:	ea50 0641 	orrs.w	r6, r0, r1, lsl #1
  40322e:	bf06      	itte	eq
  403230:	4610      	moveq	r0, r2
  403232:	4619      	moveq	r1, r3
  403234:	ea52 0643 	orrsne.w	r6, r2, r3, lsl #1
  403238:	d019      	beq.n	40326e <__aeabi_dmul+0x24a>
  40323a:	ea94 0f0c 	teq	r4, ip
  40323e:	d102      	bne.n	403246 <__aeabi_dmul+0x222>
  403240:	ea50 3601 	orrs.w	r6, r0, r1, lsl #12
  403244:	d113      	bne.n	40326e <__aeabi_dmul+0x24a>
  403246:	ea95 0f0c 	teq	r5, ip
  40324a:	d105      	bne.n	403258 <__aeabi_dmul+0x234>
  40324c:	ea52 3603 	orrs.w	r6, r2, r3, lsl #12
  403250:	bf1c      	itt	ne
  403252:	4610      	movne	r0, r2
  403254:	4619      	movne	r1, r3
  403256:	d10a      	bne.n	40326e <__aeabi_dmul+0x24a>
  403258:	ea81 0103 	eor.w	r1, r1, r3
  40325c:	f001 4100 	and.w	r1, r1, #2147483648	; 0x80000000
  403260:	f041 41fe 	orr.w	r1, r1, #2130706432	; 0x7f000000
  403264:	f441 0170 	orr.w	r1, r1, #15728640	; 0xf00000
  403268:	f04f 0000 	mov.w	r0, #0
  40326c:	bd70      	pop	{r4, r5, r6, pc}
  40326e:	f041 41fe 	orr.w	r1, r1, #2130706432	; 0x7f000000
  403272:	f441 0178 	orr.w	r1, r1, #16252928	; 0xf80000
  403276:	bd70      	pop	{r4, r5, r6, pc}

00403278 <__aeabi_ddiv>:
  403278:	b570      	push	{r4, r5, r6, lr}
  40327a:	f04f 0cff 	mov.w	ip, #255	; 0xff
  40327e:	f44c 6ce0 	orr.w	ip, ip, #1792	; 0x700
  403282:	ea1c 5411 	ands.w	r4, ip, r1, lsr #20
  403286:	bf1d      	ittte	ne
  403288:	ea1c 5513 	andsne.w	r5, ip, r3, lsr #20
  40328c:	ea94 0f0c 	teqne	r4, ip
  403290:	ea95 0f0c 	teqne	r5, ip
  403294:	f000 f8a7 	bleq	4033e6 <__aeabi_ddiv+0x16e>
  403298:	eba4 0405 	sub.w	r4, r4, r5
  40329c:	ea81 0e03 	eor.w	lr, r1, r3
  4032a0:	ea52 3503 	orrs.w	r5, r2, r3, lsl #12
  4032a4:	ea4f 3101 	mov.w	r1, r1, lsl #12
  4032a8:	f000 8088 	beq.w	4033bc <__aeabi_ddiv+0x144>
  4032ac:	ea4f 3303 	mov.w	r3, r3, lsl #12
  4032b0:	f04f 5580 	mov.w	r5, #268435456	; 0x10000000
  4032b4:	ea45 1313 	orr.w	r3, r5, r3, lsr #4
  4032b8:	ea43 6312 	orr.w	r3, r3, r2, lsr #24
  4032bc:	ea4f 2202 	mov.w	r2, r2, lsl #8
  4032c0:	ea45 1511 	orr.w	r5, r5, r1, lsr #4
  4032c4:	ea45 6510 	orr.w	r5, r5, r0, lsr #24
  4032c8:	ea4f 2600 	mov.w	r6, r0, lsl #8
  4032cc:	f00e 4100 	and.w	r1, lr, #2147483648	; 0x80000000
  4032d0:	429d      	cmp	r5, r3
  4032d2:	bf08      	it	eq
  4032d4:	4296      	cmpeq	r6, r2
  4032d6:	f144 04fd 	adc.w	r4, r4, #253	; 0xfd
  4032da:	f504 7440 	add.w	r4, r4, #768	; 0x300
  4032de:	d202      	bcs.n	4032e6 <__aeabi_ddiv+0x6e>
  4032e0:	085b      	lsrs	r3, r3, #1
  4032e2:	ea4f 0232 	mov.w	r2, r2, rrx
  4032e6:	1ab6      	subs	r6, r6, r2
  4032e8:	eb65 0503 	sbc.w	r5, r5, r3
  4032ec:	085b      	lsrs	r3, r3, #1
  4032ee:	ea4f 0232 	mov.w	r2, r2, rrx
  4032f2:	f44f 1080 	mov.w	r0, #1048576	; 0x100000
  4032f6:	f44f 2c00 	mov.w	ip, #524288	; 0x80000
  4032fa:	ebb6 0e02 	subs.w	lr, r6, r2
  4032fe:	eb75 0e03 	sbcs.w	lr, r5, r3
  403302:	bf22      	ittt	cs
  403304:	1ab6      	subcs	r6, r6, r2
  403306:	4675      	movcs	r5, lr
  403308:	ea40 000c 	orrcs.w	r0, r0, ip
  40330c:	085b      	lsrs	r3, r3, #1
  40330e:	ea4f 0232 	mov.w	r2, r2, rrx
  403312:	ebb6 0e02 	subs.w	lr, r6, r2
  403316:	eb75 0e03 	sbcs.w	lr, r5, r3
  40331a:	bf22      	ittt	cs
  40331c:	1ab6      	subcs	r6, r6, r2
  40331e:	4675      	movcs	r5, lr
  403320:	ea40 005c 	orrcs.w	r0, r0, ip, lsr #1
  403324:	085b      	lsrs	r3, r3, #1
  403326:	ea4f 0232 	mov.w	r2, r2, rrx
  40332a:	ebb6 0e02 	subs.w	lr, r6, r2
  40332e:	eb75 0e03 	sbcs.w	lr, r5, r3
  403332:	bf22      	ittt	cs
  403334:	1ab6      	subcs	r6, r6, r2
  403336:	4675      	movcs	r5, lr
  403338:	ea40 009c 	orrcs.w	r0, r0, ip, lsr #2
  40333c:	085b      	lsrs	r3, r3, #1
  40333e:	ea4f 0232 	mov.w	r2, r2, rrx
  403342:	ebb6 0e02 	subs.w	lr, r6, r2
  403346:	eb75 0e03 	sbcs.w	lr, r5, r3
  40334a:	bf22      	ittt	cs
  40334c:	1ab6      	subcs	r6, r6, r2
  40334e:	4675      	movcs	r5, lr
  403350:	ea40 00dc 	orrcs.w	r0, r0, ip, lsr #3
  403354:	ea55 0e06 	orrs.w	lr, r5, r6
  403358:	d018      	beq.n	40338c <__aeabi_ddiv+0x114>
  40335a:	ea4f 1505 	mov.w	r5, r5, lsl #4
  40335e:	ea45 7516 	orr.w	r5, r5, r6, lsr #28
  403362:	ea4f 1606 	mov.w	r6, r6, lsl #4
  403366:	ea4f 03c3 	mov.w	r3, r3, lsl #3
  40336a:	ea43 7352 	orr.w	r3, r3, r2, lsr #29
  40336e:	ea4f 02c2 	mov.w	r2, r2, lsl #3
  403372:	ea5f 1c1c 	movs.w	ip, ip, lsr #4
  403376:	d1c0      	bne.n	4032fa <__aeabi_ddiv+0x82>
  403378:	f411 1f80 	tst.w	r1, #1048576	; 0x100000
  40337c:	d10b      	bne.n	403396 <__aeabi_ddiv+0x11e>
  40337e:	ea41 0100 	orr.w	r1, r1, r0
  403382:	f04f 0000 	mov.w	r0, #0
  403386:	f04f 4c00 	mov.w	ip, #2147483648	; 0x80000000
  40338a:	e7b6      	b.n	4032fa <__aeabi_ddiv+0x82>
  40338c:	f411 1f80 	tst.w	r1, #1048576	; 0x100000
  403390:	bf04      	itt	eq
  403392:	4301      	orreq	r1, r0
  403394:	2000      	moveq	r0, #0
  403396:	f1b4 0cfd 	subs.w	ip, r4, #253	; 0xfd
  40339a:	bf88      	it	hi
  40339c:	f5bc 6fe0 	cmphi.w	ip, #1792	; 0x700
  4033a0:	f63f aeaf 	bhi.w	403102 <__aeabi_dmul+0xde>
  4033a4:	ebb5 0c03 	subs.w	ip, r5, r3
  4033a8:	bf04      	itt	eq
  4033aa:	ebb6 0c02 	subseq.w	ip, r6, r2
  4033ae:	ea5f 0c50 	movseq.w	ip, r0, lsr #1
  4033b2:	f150 0000 	adcs.w	r0, r0, #0
  4033b6:	eb41 5104 	adc.w	r1, r1, r4, lsl #20
  4033ba:	bd70      	pop	{r4, r5, r6, pc}
  4033bc:	f00e 4e00 	and.w	lr, lr, #2147483648	; 0x80000000
  4033c0:	ea4e 3111 	orr.w	r1, lr, r1, lsr #12
  4033c4:	eb14 045c 	adds.w	r4, r4, ip, lsr #1
  4033c8:	bfc2      	ittt	gt
  4033ca:	ebd4 050c 	rsbsgt	r5, r4, ip
  4033ce:	ea41 5104 	orrgt.w	r1, r1, r4, lsl #20
  4033d2:	bd70      	popgt	{r4, r5, r6, pc}
  4033d4:	f441 1180 	orr.w	r1, r1, #1048576	; 0x100000
  4033d8:	f04f 0e00 	mov.w	lr, #0
  4033dc:	3c01      	subs	r4, #1
  4033de:	e690      	b.n	403102 <__aeabi_dmul+0xde>
  4033e0:	ea45 0e06 	orr.w	lr, r5, r6
  4033e4:	e68d      	b.n	403102 <__aeabi_dmul+0xde>
  4033e6:	ea0c 5513 	and.w	r5, ip, r3, lsr #20
  4033ea:	ea94 0f0c 	teq	r4, ip
  4033ee:	bf08      	it	eq
  4033f0:	ea95 0f0c 	teqeq	r5, ip
  4033f4:	f43f af3b 	beq.w	40326e <__aeabi_dmul+0x24a>
  4033f8:	ea94 0f0c 	teq	r4, ip
  4033fc:	d10a      	bne.n	403414 <__aeabi_ddiv+0x19c>
  4033fe:	ea50 3401 	orrs.w	r4, r0, r1, lsl #12
  403402:	f47f af34 	bne.w	40326e <__aeabi_dmul+0x24a>
  403406:	ea95 0f0c 	teq	r5, ip
  40340a:	f47f af25 	bne.w	403258 <__aeabi_dmul+0x234>
  40340e:	4610      	mov	r0, r2
  403410:	4619      	mov	r1, r3
  403412:	e72c      	b.n	40326e <__aeabi_dmul+0x24a>
  403414:	ea95 0f0c 	teq	r5, ip
  403418:	d106      	bne.n	403428 <__aeabi_ddiv+0x1b0>
  40341a:	ea52 3503 	orrs.w	r5, r2, r3, lsl #12
  40341e:	f43f aefd 	beq.w	40321c <__aeabi_dmul+0x1f8>
  403422:	4610      	mov	r0, r2
  403424:	4619      	mov	r1, r3
  403426:	e722      	b.n	40326e <__aeabi_dmul+0x24a>
  403428:	ea50 0641 	orrs.w	r6, r0, r1, lsl #1
  40342c:	bf18      	it	ne
  40342e:	ea52 0643 	orrsne.w	r6, r2, r3, lsl #1
  403432:	f47f aec5 	bne.w	4031c0 <__aeabi_dmul+0x19c>
  403436:	ea50 0441 	orrs.w	r4, r0, r1, lsl #1
  40343a:	f47f af0d 	bne.w	403258 <__aeabi_dmul+0x234>
  40343e:	ea52 0543 	orrs.w	r5, r2, r3, lsl #1
  403442:	f47f aeeb 	bne.w	40321c <__aeabi_dmul+0x1f8>
  403446:	e712      	b.n	40326e <__aeabi_dmul+0x24a>

00403448 <__gedf2>:
  403448:	f04f 3cff 	mov.w	ip, #4294967295
  40344c:	e006      	b.n	40345c <__cmpdf2+0x4>
  40344e:	bf00      	nop

00403450 <__ledf2>:
  403450:	f04f 0c01 	mov.w	ip, #1
  403454:	e002      	b.n	40345c <__cmpdf2+0x4>
  403456:	bf00      	nop

00403458 <__cmpdf2>:
  403458:	f04f 0c01 	mov.w	ip, #1
  40345c:	f84d cd04 	str.w	ip, [sp, #-4]!
  403460:	ea4f 0c41 	mov.w	ip, r1, lsl #1
  403464:	ea7f 5c6c 	mvns.w	ip, ip, asr #21
  403468:	ea4f 0c43 	mov.w	ip, r3, lsl #1
  40346c:	bf18      	it	ne
  40346e:	ea7f 5c6c 	mvnsne.w	ip, ip, asr #21
  403472:	d01b      	beq.n	4034ac <__cmpdf2+0x54>
  403474:	b001      	add	sp, #4
  403476:	ea50 0c41 	orrs.w	ip, r0, r1, lsl #1
  40347a:	bf0c      	ite	eq
  40347c:	ea52 0c43 	orrseq.w	ip, r2, r3, lsl #1
  403480:	ea91 0f03 	teqne	r1, r3
  403484:	bf02      	ittt	eq
  403486:	ea90 0f02 	teqeq	r0, r2
  40348a:	2000      	moveq	r0, #0
  40348c:	4770      	bxeq	lr
  40348e:	f110 0f00 	cmn.w	r0, #0
  403492:	ea91 0f03 	teq	r1, r3
  403496:	bf58      	it	pl
  403498:	4299      	cmppl	r1, r3
  40349a:	bf08      	it	eq
  40349c:	4290      	cmpeq	r0, r2
  40349e:	bf2c      	ite	cs
  4034a0:	17d8      	asrcs	r0, r3, #31
  4034a2:	ea6f 70e3 	mvncc.w	r0, r3, asr #31
  4034a6:	f040 0001 	orr.w	r0, r0, #1
  4034aa:	4770      	bx	lr
  4034ac:	ea4f 0c41 	mov.w	ip, r1, lsl #1
  4034b0:	ea7f 5c6c 	mvns.w	ip, ip, asr #21
  4034b4:	d102      	bne.n	4034bc <__cmpdf2+0x64>
  4034b6:	ea50 3c01 	orrs.w	ip, r0, r1, lsl #12
  4034ba:	d107      	bne.n	4034cc <__cmpdf2+0x74>
  4034bc:	ea4f 0c43 	mov.w	ip, r3, lsl #1
  4034c0:	ea7f 5c6c 	mvns.w	ip, ip, asr #21
  4034c4:	d1d6      	bne.n	403474 <__cmpdf2+0x1c>
  4034c6:	ea52 3c03 	orrs.w	ip, r2, r3, lsl #12
  4034ca:	d0d3      	beq.n	403474 <__cmpdf2+0x1c>
  4034cc:	f85d 0b04 	ldr.w	r0, [sp], #4
  4034d0:	4770      	bx	lr
  4034d2:	bf00      	nop

004034d4 <__aeabi_cdrcmple>:
  4034d4:	4684      	mov	ip, r0
  4034d6:	4610      	mov	r0, r2
  4034d8:	4662      	mov	r2, ip
  4034da:	468c      	mov	ip, r1
  4034dc:	4619      	mov	r1, r3
  4034de:	4663      	mov	r3, ip
  4034e0:	e000      	b.n	4034e4 <__aeabi_cdcmpeq>
  4034e2:	bf00      	nop

004034e4 <__aeabi_cdcmpeq>:
  4034e4:	b501      	push	{r0, lr}
  4034e6:	f7ff ffb7 	bl	403458 <__cmpdf2>
  4034ea:	2800      	cmp	r0, #0
  4034ec:	bf48      	it	mi
  4034ee:	f110 0f00 	cmnmi.w	r0, #0
  4034f2:	bd01      	pop	{r0, pc}

004034f4 <__aeabi_dcmpeq>:
  4034f4:	f84d ed08 	str.w	lr, [sp, #-8]!
  4034f8:	f7ff fff4 	bl	4034e4 <__aeabi_cdcmpeq>
  4034fc:	bf0c      	ite	eq
  4034fe:	2001      	moveq	r0, #1
  403500:	2000      	movne	r0, #0
  403502:	f85d fb08 	ldr.w	pc, [sp], #8
  403506:	bf00      	nop

00403508 <__aeabi_dcmplt>:
  403508:	f84d ed08 	str.w	lr, [sp, #-8]!
  40350c:	f7ff ffea 	bl	4034e4 <__aeabi_cdcmpeq>
  403510:	bf34      	ite	cc
  403512:	2001      	movcc	r0, #1
  403514:	2000      	movcs	r0, #0
  403516:	f85d fb08 	ldr.w	pc, [sp], #8
  40351a:	bf00      	nop

0040351c <__aeabi_dcmple>:
  40351c:	f84d ed08 	str.w	lr, [sp, #-8]!
  403520:	f7ff ffe0 	bl	4034e4 <__aeabi_cdcmpeq>
  403524:	bf94      	ite	ls
  403526:	2001      	movls	r0, #1
  403528:	2000      	movhi	r0, #0
  40352a:	f85d fb08 	ldr.w	pc, [sp], #8
  40352e:	bf00      	nop

00403530 <__aeabi_dcmpge>:
  403530:	f84d ed08 	str.w	lr, [sp, #-8]!
  403534:	f7ff ffce 	bl	4034d4 <__aeabi_cdrcmple>
  403538:	bf94      	ite	ls
  40353a:	2001      	movls	r0, #1
  40353c:	2000      	movhi	r0, #0
  40353e:	f85d fb08 	ldr.w	pc, [sp], #8
  403542:	bf00      	nop

00403544 <__aeabi_dcmpgt>:
  403544:	f84d ed08 	str.w	lr, [sp, #-8]!
  403548:	f7ff ffc4 	bl	4034d4 <__aeabi_cdrcmple>
  40354c:	bf34      	ite	cc
  40354e:	2001      	movcc	r0, #1
  403550:	2000      	movcs	r0, #0
  403552:	f85d fb08 	ldr.w	pc, [sp], #8
  403556:	bf00      	nop

00403558 <__aeabi_d2iz>:
  403558:	ea4f 0241 	mov.w	r2, r1, lsl #1
  40355c:	f512 1200 	adds.w	r2, r2, #2097152	; 0x200000
  403560:	d215      	bcs.n	40358e <__aeabi_d2iz+0x36>
  403562:	d511      	bpl.n	403588 <__aeabi_d2iz+0x30>
  403564:	f46f 7378 	mvn.w	r3, #992	; 0x3e0
  403568:	ebb3 5262 	subs.w	r2, r3, r2, asr #21
  40356c:	d912      	bls.n	403594 <__aeabi_d2iz+0x3c>
  40356e:	ea4f 23c1 	mov.w	r3, r1, lsl #11
  403572:	f043 4300 	orr.w	r3, r3, #2147483648	; 0x80000000
  403576:	ea43 5350 	orr.w	r3, r3, r0, lsr #21
  40357a:	f011 4f00 	tst.w	r1, #2147483648	; 0x80000000
  40357e:	fa23 f002 	lsr.w	r0, r3, r2
  403582:	bf18      	it	ne
  403584:	4240      	negne	r0, r0
  403586:	4770      	bx	lr
  403588:	f04f 0000 	mov.w	r0, #0
  40358c:	4770      	bx	lr
  40358e:	ea50 3001 	orrs.w	r0, r0, r1, lsl #12
  403592:	d105      	bne.n	4035a0 <__aeabi_d2iz+0x48>
  403594:	f011 4000 	ands.w	r0, r1, #2147483648	; 0x80000000
  403598:	bf08      	it	eq
  40359a:	f06f 4000 	mvneq.w	r0, #2147483648	; 0x80000000
  40359e:	4770      	bx	lr
  4035a0:	f04f 0000 	mov.w	r0, #0
  4035a4:	4770      	bx	lr
  4035a6:	bf00      	nop

004035a8 <__aeabi_d2uiz>:
  4035a8:	004a      	lsls	r2, r1, #1
  4035aa:	d211      	bcs.n	4035d0 <__aeabi_d2uiz+0x28>
  4035ac:	f512 1200 	adds.w	r2, r2, #2097152	; 0x200000
  4035b0:	d211      	bcs.n	4035d6 <__aeabi_d2uiz+0x2e>
  4035b2:	d50d      	bpl.n	4035d0 <__aeabi_d2uiz+0x28>
  4035b4:	f46f 7378 	mvn.w	r3, #992	; 0x3e0
  4035b8:	ebb3 5262 	subs.w	r2, r3, r2, asr #21
  4035bc:	d40e      	bmi.n	4035dc <__aeabi_d2uiz+0x34>
  4035be:	ea4f 23c1 	mov.w	r3, r1, lsl #11
  4035c2:	f043 4300 	orr.w	r3, r3, #2147483648	; 0x80000000
  4035c6:	ea43 5350 	orr.w	r3, r3, r0, lsr #21
  4035ca:	fa23 f002 	lsr.w	r0, r3, r2
  4035ce:	4770      	bx	lr
  4035d0:	f04f 0000 	mov.w	r0, #0
  4035d4:	4770      	bx	lr
  4035d6:	ea50 3001 	orrs.w	r0, r0, r1, lsl #12
  4035da:	d102      	bne.n	4035e2 <__aeabi_d2uiz+0x3a>
  4035dc:	f04f 30ff 	mov.w	r0, #4294967295
  4035e0:	4770      	bx	lr
  4035e2:	f04f 0000 	mov.w	r0, #0
  4035e6:	4770      	bx	lr

004035e8 <__libc_init_array>:
  4035e8:	b570      	push	{r4, r5, r6, lr}
  4035ea:	4e0f      	ldr	r6, [pc, #60]	; (403628 <__libc_init_array+0x40>)
  4035ec:	4d0f      	ldr	r5, [pc, #60]	; (40362c <__libc_init_array+0x44>)
  4035ee:	1b76      	subs	r6, r6, r5
  4035f0:	10b6      	asrs	r6, r6, #2
  4035f2:	bf18      	it	ne
  4035f4:	2400      	movne	r4, #0
  4035f6:	d005      	beq.n	403604 <__libc_init_array+0x1c>
  4035f8:	3401      	adds	r4, #1
  4035fa:	f855 3b04 	ldr.w	r3, [r5], #4
  4035fe:	4798      	blx	r3
  403600:	42a6      	cmp	r6, r4
  403602:	d1f9      	bne.n	4035f8 <__libc_init_array+0x10>
  403604:	4e0a      	ldr	r6, [pc, #40]	; (403630 <__libc_init_array+0x48>)
  403606:	4d0b      	ldr	r5, [pc, #44]	; (403634 <__libc_init_array+0x4c>)
  403608:	1b76      	subs	r6, r6, r5
  40360a:	f01c fa31 	bl	41fa70 <_init>
  40360e:	10b6      	asrs	r6, r6, #2
  403610:	bf18      	it	ne
  403612:	2400      	movne	r4, #0
  403614:	d006      	beq.n	403624 <__libc_init_array+0x3c>
  403616:	3401      	adds	r4, #1
  403618:	f855 3b04 	ldr.w	r3, [r5], #4
  40361c:	4798      	blx	r3
  40361e:	42a6      	cmp	r6, r4
  403620:	d1f9      	bne.n	403616 <__libc_init_array+0x2e>
  403622:	bd70      	pop	{r4, r5, r6, pc}
  403624:	bd70      	pop	{r4, r5, r6, pc}
  403626:	bf00      	nop
  403628:	0041fa7c 	.word	0x0041fa7c
  40362c:	0041fa7c 	.word	0x0041fa7c
  403630:	0041fa84 	.word	0x0041fa84
  403634:	0041fa7c 	.word	0x0041fa7c

00403638 <memset>:
  403638:	b470      	push	{r4, r5, r6}
  40363a:	0784      	lsls	r4, r0, #30
  40363c:	d046      	beq.n	4036cc <memset+0x94>
  40363e:	1e54      	subs	r4, r2, #1
  403640:	2a00      	cmp	r2, #0
  403642:	d041      	beq.n	4036c8 <memset+0x90>
  403644:	b2cd      	uxtb	r5, r1
  403646:	4603      	mov	r3, r0
  403648:	e002      	b.n	403650 <memset+0x18>
  40364a:	1e62      	subs	r2, r4, #1
  40364c:	b3e4      	cbz	r4, 4036c8 <memset+0x90>
  40364e:	4614      	mov	r4, r2
  403650:	f803 5b01 	strb.w	r5, [r3], #1
  403654:	079a      	lsls	r2, r3, #30
  403656:	d1f8      	bne.n	40364a <memset+0x12>
  403658:	2c03      	cmp	r4, #3
  40365a:	d92e      	bls.n	4036ba <memset+0x82>
  40365c:	b2cd      	uxtb	r5, r1
  40365e:	ea45 2505 	orr.w	r5, r5, r5, lsl #8
  403662:	2c0f      	cmp	r4, #15
  403664:	ea45 4505 	orr.w	r5, r5, r5, lsl #16
  403668:	d919      	bls.n	40369e <memset+0x66>
  40366a:	f103 0210 	add.w	r2, r3, #16
  40366e:	4626      	mov	r6, r4
  403670:	3e10      	subs	r6, #16
  403672:	2e0f      	cmp	r6, #15
  403674:	f842 5c10 	str.w	r5, [r2, #-16]
  403678:	f842 5c0c 	str.w	r5, [r2, #-12]
  40367c:	f842 5c08 	str.w	r5, [r2, #-8]
  403680:	f842 5c04 	str.w	r5, [r2, #-4]
  403684:	f102 0210 	add.w	r2, r2, #16
  403688:	d8f2      	bhi.n	403670 <memset+0x38>
  40368a:	f1a4 0210 	sub.w	r2, r4, #16
  40368e:	f022 020f 	bic.w	r2, r2, #15
  403692:	f004 040f 	and.w	r4, r4, #15
  403696:	3210      	adds	r2, #16
  403698:	2c03      	cmp	r4, #3
  40369a:	4413      	add	r3, r2
  40369c:	d90d      	bls.n	4036ba <memset+0x82>
  40369e:	461e      	mov	r6, r3
  4036a0:	4622      	mov	r2, r4
  4036a2:	3a04      	subs	r2, #4
  4036a4:	2a03      	cmp	r2, #3
  4036a6:	f846 5b04 	str.w	r5, [r6], #4
  4036aa:	d8fa      	bhi.n	4036a2 <memset+0x6a>
  4036ac:	1f22      	subs	r2, r4, #4
  4036ae:	f022 0203 	bic.w	r2, r2, #3
  4036b2:	3204      	adds	r2, #4
  4036b4:	4413      	add	r3, r2
  4036b6:	f004 0403 	and.w	r4, r4, #3
  4036ba:	b12c      	cbz	r4, 4036c8 <memset+0x90>
  4036bc:	b2c9      	uxtb	r1, r1
  4036be:	441c      	add	r4, r3
  4036c0:	f803 1b01 	strb.w	r1, [r3], #1
  4036c4:	42a3      	cmp	r3, r4
  4036c6:	d1fb      	bne.n	4036c0 <memset+0x88>
  4036c8:	bc70      	pop	{r4, r5, r6}
  4036ca:	4770      	bx	lr
  4036cc:	4614      	mov	r4, r2
  4036ce:	4603      	mov	r3, r0
  4036d0:	e7c2      	b.n	403658 <memset+0x20>
  4036d2:	bf00      	nop

004036d4 <snprintf>:
  4036d4:	b40c      	push	{r2, r3}
  4036d6:	b5f0      	push	{r4, r5, r6, r7, lr}
  4036d8:	4b24      	ldr	r3, [pc, #144]	; (40376c <snprintf+0x98>)
  4036da:	2900      	cmp	r1, #0
  4036dc:	b09d      	sub	sp, #116	; 0x74
  4036de:	681d      	ldr	r5, [r3, #0]
  4036e0:	db3e      	blt.n	403760 <snprintf+0x8c>
  4036e2:	f44f 7302 	mov.w	r3, #520	; 0x208
  4036e6:	460c      	mov	r4, r1
  4036e8:	9002      	str	r0, [sp, #8]
  4036ea:	9006      	str	r0, [sp, #24]
  4036ec:	f8ad 3014 	strh.w	r3, [sp, #20]
  4036f0:	ae23      	add	r6, sp, #140	; 0x8c
  4036f2:	d017      	beq.n	403724 <snprintf+0x50>
  4036f4:	1e4c      	subs	r4, r1, #1
  4036f6:	9a22      	ldr	r2, [sp, #136]	; 0x88
  4036f8:	9404      	str	r4, [sp, #16]
  4036fa:	4633      	mov	r3, r6
  4036fc:	f64f 77ff 	movw	r7, #65535	; 0xffff
  403700:	4628      	mov	r0, r5
  403702:	a902      	add	r1, sp, #8
  403704:	9407      	str	r4, [sp, #28]
  403706:	9601      	str	r6, [sp, #4]
  403708:	f8ad 7016 	strh.w	r7, [sp, #22]
  40370c:	f000 f85e 	bl	4037cc <_svfprintf_r>
  403710:	1c42      	adds	r2, r0, #1
  403712:	db22      	blt.n	40375a <snprintf+0x86>
  403714:	9b02      	ldr	r3, [sp, #8]
  403716:	2200      	movs	r2, #0
  403718:	701a      	strb	r2, [r3, #0]
  40371a:	b01d      	add	sp, #116	; 0x74
  40371c:	e8bd 40f0 	ldmia.w	sp!, {r4, r5, r6, r7, lr}
  403720:	b002      	add	sp, #8
  403722:	4770      	bx	lr
  403724:	4633      	mov	r3, r6
  403726:	f64f 77ff 	movw	r7, #65535	; 0xffff
  40372a:	4628      	mov	r0, r5
  40372c:	a902      	add	r1, sp, #8
  40372e:	9a22      	ldr	r2, [sp, #136]	; 0x88
  403730:	9404      	str	r4, [sp, #16]
  403732:	9407      	str	r4, [sp, #28]
  403734:	9601      	str	r6, [sp, #4]
  403736:	f8ad 7016 	strh.w	r7, [sp, #22]
  40373a:	f000 f847 	bl	4037cc <_svfprintf_r>
  40373e:	1c43      	adds	r3, r0, #1
  403740:	db04      	blt.n	40374c <snprintf+0x78>
  403742:	b01d      	add	sp, #116	; 0x74
  403744:	e8bd 40f0 	ldmia.w	sp!, {r4, r5, r6, r7, lr}
  403748:	b002      	add	sp, #8
  40374a:	4770      	bx	lr
  40374c:	238b      	movs	r3, #139	; 0x8b
  40374e:	602b      	str	r3, [r5, #0]
  403750:	b01d      	add	sp, #116	; 0x74
  403752:	e8bd 40f0 	ldmia.w	sp!, {r4, r5, r6, r7, lr}
  403756:	b002      	add	sp, #8
  403758:	4770      	bx	lr
  40375a:	238b      	movs	r3, #139	; 0x8b
  40375c:	602b      	str	r3, [r5, #0]
  40375e:	e7d9      	b.n	403714 <snprintf+0x40>
  403760:	238b      	movs	r3, #139	; 0x8b
  403762:	602b      	str	r3, [r5, #0]
  403764:	f04f 30ff 	mov.w	r0, #4294967295
  403768:	e7eb      	b.n	403742 <snprintf+0x6e>
  40376a:	bf00      	nop
  40376c:	20000438 	.word	0x20000438

00403770 <strlen>:
  403770:	f020 0103 	bic.w	r1, r0, #3
  403774:	f010 0003 	ands.w	r0, r0, #3
  403778:	f1c0 0000 	rsb	r0, r0, #0
  40377c:	f851 3b04 	ldr.w	r3, [r1], #4
  403780:	f100 0c04 	add.w	ip, r0, #4
  403784:	ea4f 0ccc 	mov.w	ip, ip, lsl #3
  403788:	f06f 0200 	mvn.w	r2, #0
  40378c:	bf1c      	itt	ne
  40378e:	fa22 f20c 	lsrne.w	r2, r2, ip
  403792:	4313      	orrne	r3, r2
  403794:	f04f 0c01 	mov.w	ip, #1
  403798:	ea4c 2c0c 	orr.w	ip, ip, ip, lsl #8
  40379c:	ea4c 4c0c 	orr.w	ip, ip, ip, lsl #16
  4037a0:	eba3 020c 	sub.w	r2, r3, ip
  4037a4:	ea22 0203 	bic.w	r2, r2, r3
  4037a8:	ea12 12cc 	ands.w	r2, r2, ip, lsl #7
  4037ac:	bf04      	itt	eq
  4037ae:	f851 3b04 	ldreq.w	r3, [r1], #4
  4037b2:	3004      	addeq	r0, #4
  4037b4:	d0f4      	beq.n	4037a0 <strlen+0x30>
  4037b6:	f1c2 0100 	rsb	r1, r2, #0
  4037ba:	ea02 0201 	and.w	r2, r2, r1
  4037be:	fab2 f282 	clz	r2, r2
  4037c2:	f1c2 021f 	rsb	r2, r2, #31
  4037c6:	eb00 00d2 	add.w	r0, r0, r2, lsr #3
  4037ca:	4770      	bx	lr

004037cc <_svfprintf_r>:
  4037cc:	e92d 4ff0 	stmdb	sp!, {r4, r5, r6, r7, r8, r9, sl, fp, lr}
  4037d0:	b0c1      	sub	sp, #260	; 0x104
  4037d2:	4689      	mov	r9, r1
  4037d4:	920a      	str	r2, [sp, #40]	; 0x28
  4037d6:	930e      	str	r3, [sp, #56]	; 0x38
  4037d8:	9008      	str	r0, [sp, #32]
  4037da:	f002 fb6f 	bl	405ebc <_localeconv_r>
  4037de:	6803      	ldr	r3, [r0, #0]
  4037e0:	9317      	str	r3, [sp, #92]	; 0x5c
  4037e2:	4618      	mov	r0, r3
  4037e4:	f7ff ffc4 	bl	403770 <strlen>
  4037e8:	f8b9 300c 	ldrh.w	r3, [r9, #12]
  4037ec:	9018      	str	r0, [sp, #96]	; 0x60
  4037ee:	061a      	lsls	r2, r3, #24
  4037f0:	d504      	bpl.n	4037fc <_svfprintf_r+0x30>
  4037f2:	f8d9 3010 	ldr.w	r3, [r9, #16]
  4037f6:	2b00      	cmp	r3, #0
  4037f8:	f001 808c 	beq.w	404914 <_svfprintf_r+0x1148>
  4037fc:	2300      	movs	r3, #0
  4037fe:	af30      	add	r7, sp, #192	; 0xc0
  403800:	9313      	str	r3, [sp, #76]	; 0x4c
  403802:	9325      	str	r3, [sp, #148]	; 0x94
  403804:	9324      	str	r3, [sp, #144]	; 0x90
  403806:	9316      	str	r3, [sp, #88]	; 0x58
  403808:	9319      	str	r3, [sp, #100]	; 0x64
  40380a:	930b      	str	r3, [sp, #44]	; 0x2c
  40380c:	9723      	str	r7, [sp, #140]	; 0x8c
  40380e:	9314      	str	r3, [sp, #80]	; 0x50
  403810:	9315      	str	r3, [sp, #84]	; 0x54
  403812:	463c      	mov	r4, r7
  403814:	464e      	mov	r6, r9
  403816:	9d0a      	ldr	r5, [sp, #40]	; 0x28
  403818:	782b      	ldrb	r3, [r5, #0]
  40381a:	2b00      	cmp	r3, #0
  40381c:	f000 80a9 	beq.w	403972 <_svfprintf_r+0x1a6>
  403820:	2b25      	cmp	r3, #37	; 0x25
  403822:	d102      	bne.n	40382a <_svfprintf_r+0x5e>
  403824:	e0a5      	b.n	403972 <_svfprintf_r+0x1a6>
  403826:	2b25      	cmp	r3, #37	; 0x25
  403828:	d003      	beq.n	403832 <_svfprintf_r+0x66>
  40382a:	f815 3f01 	ldrb.w	r3, [r5, #1]!
  40382e:	2b00      	cmp	r3, #0
  403830:	d1f9      	bne.n	403826 <_svfprintf_r+0x5a>
  403832:	9b0a      	ldr	r3, [sp, #40]	; 0x28
  403834:	1aeb      	subs	r3, r5, r3
  403836:	b173      	cbz	r3, 403856 <_svfprintf_r+0x8a>
  403838:	9a24      	ldr	r2, [sp, #144]	; 0x90
  40383a:	9925      	ldr	r1, [sp, #148]	; 0x94
  40383c:	980a      	ldr	r0, [sp, #40]	; 0x28
  40383e:	6020      	str	r0, [r4, #0]
  403840:	3201      	adds	r2, #1
  403842:	4419      	add	r1, r3
  403844:	2a07      	cmp	r2, #7
  403846:	6063      	str	r3, [r4, #4]
  403848:	9125      	str	r1, [sp, #148]	; 0x94
  40384a:	9224      	str	r2, [sp, #144]	; 0x90
  40384c:	dc72      	bgt.n	403934 <_svfprintf_r+0x168>
  40384e:	3408      	adds	r4, #8
  403850:	9a0b      	ldr	r2, [sp, #44]	; 0x2c
  403852:	441a      	add	r2, r3
  403854:	920b      	str	r2, [sp, #44]	; 0x2c
  403856:	782b      	ldrb	r3, [r5, #0]
  403858:	2b00      	cmp	r3, #0
  40385a:	f000 87b5 	beq.w	4047c8 <_svfprintf_r+0xffc>
  40385e:	2300      	movs	r3, #0
  403860:	1c69      	adds	r1, r5, #1
  403862:	786d      	ldrb	r5, [r5, #1]
  403864:	f88d 306f 	strb.w	r3, [sp, #111]	; 0x6f
  403868:	461a      	mov	r2, r3
  40386a:	930c      	str	r3, [sp, #48]	; 0x30
  40386c:	9307      	str	r3, [sp, #28]
  40386e:	f04f 3aff 	mov.w	sl, #4294967295
  403872:	1c4b      	adds	r3, r1, #1
  403874:	f1a5 0120 	sub.w	r1, r5, #32
  403878:	2958      	cmp	r1, #88	; 0x58
  40387a:	f200 83d9 	bhi.w	404030 <_svfprintf_r+0x864>
  40387e:	e8df f011 	tbh	[pc, r1, lsl #1]
  403882:	0270      	.short	0x0270
  403884:	03d703d7 	.word	0x03d703d7
  403888:	03d70374 	.word	0x03d70374
  40388c:	03d703d7 	.word	0x03d703d7
  403890:	03d703d7 	.word	0x03d703d7
  403894:	02f003d7 	.word	0x02f003d7
  403898:	03d7020d 	.word	0x03d7020d
  40389c:	021101f4 	.word	0x021101f4
  4038a0:	037b03d7 	.word	0x037b03d7
  4038a4:	02ba02ba 	.word	0x02ba02ba
  4038a8:	02ba02ba 	.word	0x02ba02ba
  4038ac:	02ba02ba 	.word	0x02ba02ba
  4038b0:	02ba02ba 	.word	0x02ba02ba
  4038b4:	03d702ba 	.word	0x03d702ba
  4038b8:	03d703d7 	.word	0x03d703d7
  4038bc:	03d703d7 	.word	0x03d703d7
  4038c0:	03d703d7 	.word	0x03d703d7
  4038c4:	03d703d7 	.word	0x03d703d7
  4038c8:	02c903d7 	.word	0x02c903d7
  4038cc:	03d7038b 	.word	0x03d7038b
  4038d0:	03d7038b 	.word	0x03d7038b
  4038d4:	03d703d7 	.word	0x03d703d7
  4038d8:	036d03d7 	.word	0x036d03d7
  4038dc:	03d703d7 	.word	0x03d703d7
  4038e0:	03d70305 	.word	0x03d70305
  4038e4:	03d703d7 	.word	0x03d703d7
  4038e8:	03d703d7 	.word	0x03d703d7
  4038ec:	03d70323 	.word	0x03d70323
  4038f0:	033d03d7 	.word	0x033d03d7
  4038f4:	03d703d7 	.word	0x03d703d7
  4038f8:	03d703d7 	.word	0x03d703d7
  4038fc:	03d703d7 	.word	0x03d703d7
  403900:	03d703d7 	.word	0x03d703d7
  403904:	03d703d7 	.word	0x03d703d7
  403908:	022c0358 	.word	0x022c0358
  40390c:	038b038b 	.word	0x038b038b
  403910:	02fe038b 	.word	0x02fe038b
  403914:	03d7022c 	.word	0x03d7022c
  403918:	02e603d7 	.word	0x02e603d7
  40391c:	027e03d7 	.word	0x027e03d7
  403920:	03c001fb 	.word	0x03c001fb
  403924:	03d70277 	.word	0x03d70277
  403928:	03d70292 	.word	0x03d70292
  40392c:	03d7007a 	.word	0x03d7007a
  403930:	024a03d7 	.word	0x024a03d7
  403934:	9808      	ldr	r0, [sp, #32]
  403936:	9307      	str	r3, [sp, #28]
  403938:	4631      	mov	r1, r6
  40393a:	aa23      	add	r2, sp, #140	; 0x8c
  40393c:	f003 fbc8 	bl	4070d0 <__ssprint_r>
  403940:	b950      	cbnz	r0, 403958 <_svfprintf_r+0x18c>
  403942:	463c      	mov	r4, r7
  403944:	9b07      	ldr	r3, [sp, #28]
  403946:	e783      	b.n	403850 <_svfprintf_r+0x84>
  403948:	9808      	ldr	r0, [sp, #32]
  40394a:	4631      	mov	r1, r6
  40394c:	aa23      	add	r2, sp, #140	; 0x8c
  40394e:	f003 fbbf 	bl	4070d0 <__ssprint_r>
  403952:	2800      	cmp	r0, #0
  403954:	f000 8185 	beq.w	403c62 <_svfprintf_r+0x496>
  403958:	46b1      	mov	r9, r6
  40395a:	f8b9 300c 	ldrh.w	r3, [r9, #12]
  40395e:	f013 0f40 	tst.w	r3, #64	; 0x40
  403962:	9b0b      	ldr	r3, [sp, #44]	; 0x2c
  403964:	bf18      	it	ne
  403966:	f04f 33ff 	movne.w	r3, #4294967295
  40396a:	4618      	mov	r0, r3
  40396c:	b041      	add	sp, #260	; 0x104
  40396e:	e8bd 8ff0 	ldmia.w	sp!, {r4, r5, r6, r7, r8, r9, sl, fp, pc}
  403972:	9d0a      	ldr	r5, [sp, #40]	; 0x28
  403974:	e76f      	b.n	403856 <_svfprintf_r+0x8a>
  403976:	930a      	str	r3, [sp, #40]	; 0x28
  403978:	9b07      	ldr	r3, [sp, #28]
  40397a:	0698      	lsls	r0, r3, #26
  40397c:	f140 82ad 	bpl.w	403eda <_svfprintf_r+0x70e>
  403980:	9b0e      	ldr	r3, [sp, #56]	; 0x38
  403982:	f103 0907 	add.w	r9, r3, #7
  403986:	f029 0307 	bic.w	r3, r9, #7
  40398a:	f103 0208 	add.w	r2, r3, #8
  40398e:	e9d3 8900 	ldrd	r8, r9, [r3]
  403992:	920e      	str	r2, [sp, #56]	; 0x38
  403994:	2301      	movs	r3, #1
  403996:	f04f 0c00 	mov.w	ip, #0
  40399a:	f88d c06f 	strb.w	ip, [sp, #111]	; 0x6f
  40399e:	f8cd a044 	str.w	sl, [sp, #68]	; 0x44
  4039a2:	f1ba 0f00 	cmp.w	sl, #0
  4039a6:	db03      	blt.n	4039b0 <_svfprintf_r+0x1e4>
  4039a8:	9a07      	ldr	r2, [sp, #28]
  4039aa:	f022 0280 	bic.w	r2, r2, #128	; 0x80
  4039ae:	9207      	str	r2, [sp, #28]
  4039b0:	ea58 0209 	orrs.w	r2, r8, r9
  4039b4:	f040 834c 	bne.w	404050 <_svfprintf_r+0x884>
  4039b8:	f1ba 0f00 	cmp.w	sl, #0
  4039bc:	f000 8451 	beq.w	404262 <_svfprintf_r+0xa96>
  4039c0:	2b01      	cmp	r3, #1
  4039c2:	f000 834f 	beq.w	404064 <_svfprintf_r+0x898>
  4039c6:	2b02      	cmp	r3, #2
  4039c8:	f000 8490 	beq.w	4042ec <_svfprintf_r+0xb20>
  4039cc:	4639      	mov	r1, r7
  4039ce:	ea4f 02d8 	mov.w	r2, r8, lsr #3
  4039d2:	ea42 7249 	orr.w	r2, r2, r9, lsl #29
  4039d6:	ea4f 00d9 	mov.w	r0, r9, lsr #3
  4039da:	f008 0307 	and.w	r3, r8, #7
  4039de:	4681      	mov	r9, r0
  4039e0:	4690      	mov	r8, r2
  4039e2:	3330      	adds	r3, #48	; 0x30
  4039e4:	ea58 0209 	orrs.w	r2, r8, r9
  4039e8:	f801 3d01 	strb.w	r3, [r1, #-1]!
  4039ec:	d1ef      	bne.n	4039ce <_svfprintf_r+0x202>
  4039ee:	9a07      	ldr	r2, [sp, #28]
  4039f0:	9110      	str	r1, [sp, #64]	; 0x40
  4039f2:	07d2      	lsls	r2, r2, #31
  4039f4:	f100 8544 	bmi.w	404480 <_svfprintf_r+0xcb4>
  4039f8:	1a7b      	subs	r3, r7, r1
  4039fa:	930d      	str	r3, [sp, #52]	; 0x34
  4039fc:	9a0d      	ldr	r2, [sp, #52]	; 0x34
  4039fe:	4592      	cmp	sl, r2
  403a00:	4653      	mov	r3, sl
  403a02:	bfb8      	it	lt
  403a04:	4613      	movlt	r3, r2
  403a06:	9309      	str	r3, [sp, #36]	; 0x24
  403a08:	2300      	movs	r3, #0
  403a0a:	9312      	str	r3, [sp, #72]	; 0x48
  403a0c:	f1bc 0f00 	cmp.w	ip, #0
  403a10:	d002      	beq.n	403a18 <_svfprintf_r+0x24c>
  403a12:	9b09      	ldr	r3, [sp, #36]	; 0x24
  403a14:	3301      	adds	r3, #1
  403a16:	9309      	str	r3, [sp, #36]	; 0x24
  403a18:	9b07      	ldr	r3, [sp, #28]
  403a1a:	f013 0302 	ands.w	r3, r3, #2
  403a1e:	930f      	str	r3, [sp, #60]	; 0x3c
  403a20:	d002      	beq.n	403a28 <_svfprintf_r+0x25c>
  403a22:	9b09      	ldr	r3, [sp, #36]	; 0x24
  403a24:	3302      	adds	r3, #2
  403a26:	9309      	str	r3, [sp, #36]	; 0x24
  403a28:	9b07      	ldr	r3, [sp, #28]
  403a2a:	f013 0984 	ands.w	r9, r3, #132	; 0x84
  403a2e:	f040 830c 	bne.w	40404a <_svfprintf_r+0x87e>
  403a32:	9b0c      	ldr	r3, [sp, #48]	; 0x30
  403a34:	9a09      	ldr	r2, [sp, #36]	; 0x24
  403a36:	ebc2 0803 	rsb	r8, r2, r3
  403a3a:	f1b8 0f00 	cmp.w	r8, #0
  403a3e:	f340 8304 	ble.w	40404a <_svfprintf_r+0x87e>
  403a42:	f1b8 0f10 	cmp.w	r8, #16
  403a46:	9925      	ldr	r1, [sp, #148]	; 0x94
  403a48:	9a24      	ldr	r2, [sp, #144]	; 0x90
  403a4a:	f8df a544 	ldr.w	sl, [pc, #1348]	; 403f90 <_svfprintf_r+0x7c4>
  403a4e:	dd29      	ble.n	403aa4 <_svfprintf_r+0x2d8>
  403a50:	4653      	mov	r3, sl
  403a52:	f04f 0b10 	mov.w	fp, #16
  403a56:	46c2      	mov	sl, r8
  403a58:	46a8      	mov	r8, r5
  403a5a:	461d      	mov	r5, r3
  403a5c:	e006      	b.n	403a6c <_svfprintf_r+0x2a0>
  403a5e:	f1aa 0a10 	sub.w	sl, sl, #16
  403a62:	f1ba 0f10 	cmp.w	sl, #16
  403a66:	f104 0408 	add.w	r4, r4, #8
  403a6a:	dd17      	ble.n	403a9c <_svfprintf_r+0x2d0>
  403a6c:	3201      	adds	r2, #1
  403a6e:	3110      	adds	r1, #16
  403a70:	2a07      	cmp	r2, #7
  403a72:	9125      	str	r1, [sp, #148]	; 0x94
  403a74:	9224      	str	r2, [sp, #144]	; 0x90
  403a76:	e884 0820 	stmia.w	r4, {r5, fp}
  403a7a:	ddf0      	ble.n	403a5e <_svfprintf_r+0x292>
  403a7c:	9808      	ldr	r0, [sp, #32]
  403a7e:	4631      	mov	r1, r6
  403a80:	aa23      	add	r2, sp, #140	; 0x8c
  403a82:	f003 fb25 	bl	4070d0 <__ssprint_r>
  403a86:	2800      	cmp	r0, #0
  403a88:	f47f af66 	bne.w	403958 <_svfprintf_r+0x18c>
  403a8c:	f1aa 0a10 	sub.w	sl, sl, #16
  403a90:	f1ba 0f10 	cmp.w	sl, #16
  403a94:	9925      	ldr	r1, [sp, #148]	; 0x94
  403a96:	9a24      	ldr	r2, [sp, #144]	; 0x90
  403a98:	463c      	mov	r4, r7
  403a9a:	dce7      	bgt.n	403a6c <_svfprintf_r+0x2a0>
  403a9c:	462b      	mov	r3, r5
  403a9e:	4645      	mov	r5, r8
  403aa0:	46d0      	mov	r8, sl
  403aa2:	469a      	mov	sl, r3
  403aa4:	3201      	adds	r2, #1
  403aa6:	eb08 0b01 	add.w	fp, r8, r1
  403aaa:	2a07      	cmp	r2, #7
  403aac:	f8cd b094 	str.w	fp, [sp, #148]	; 0x94
  403ab0:	9224      	str	r2, [sp, #144]	; 0x90
  403ab2:	f8c4 a000 	str.w	sl, [r4]
  403ab6:	f8c4 8004 	str.w	r8, [r4, #4]
  403aba:	f300 847b 	bgt.w	4043b4 <_svfprintf_r+0xbe8>
  403abe:	f89d c06f 	ldrb.w	ip, [sp, #111]	; 0x6f
  403ac2:	3408      	adds	r4, #8
  403ac4:	f1bc 0f00 	cmp.w	ip, #0
  403ac8:	d00f      	beq.n	403aea <_svfprintf_r+0x31e>
  403aca:	9b24      	ldr	r3, [sp, #144]	; 0x90
  403acc:	3301      	adds	r3, #1
  403ace:	f10b 0b01 	add.w	fp, fp, #1
  403ad2:	f10d 016f 	add.w	r1, sp, #111	; 0x6f
  403ad6:	2201      	movs	r2, #1
  403ad8:	2b07      	cmp	r3, #7
  403ada:	f8cd b094 	str.w	fp, [sp, #148]	; 0x94
  403ade:	9324      	str	r3, [sp, #144]	; 0x90
  403ae0:	e884 0006 	stmia.w	r4, {r1, r2}
  403ae4:	f300 83da 	bgt.w	40429c <_svfprintf_r+0xad0>
  403ae8:	3408      	adds	r4, #8
  403aea:	9b0f      	ldr	r3, [sp, #60]	; 0x3c
  403aec:	b173      	cbz	r3, 403b0c <_svfprintf_r+0x340>
  403aee:	9b24      	ldr	r3, [sp, #144]	; 0x90
  403af0:	3301      	adds	r3, #1
  403af2:	f10b 0b02 	add.w	fp, fp, #2
  403af6:	a91c      	add	r1, sp, #112	; 0x70
  403af8:	2202      	movs	r2, #2
  403afa:	2b07      	cmp	r3, #7
  403afc:	f8cd b094 	str.w	fp, [sp, #148]	; 0x94
  403b00:	9324      	str	r3, [sp, #144]	; 0x90
  403b02:	e884 0006 	stmia.w	r4, {r1, r2}
  403b06:	f300 83d5 	bgt.w	4042b4 <_svfprintf_r+0xae8>
  403b0a:	3408      	adds	r4, #8
  403b0c:	f1b9 0f80 	cmp.w	r9, #128	; 0x80
  403b10:	f000 8311 	beq.w	404136 <_svfprintf_r+0x96a>
  403b14:	9b11      	ldr	r3, [sp, #68]	; 0x44
  403b16:	9a0d      	ldr	r2, [sp, #52]	; 0x34
  403b18:	ebc2 0a03 	rsb	sl, r2, r3
  403b1c:	f1ba 0f00 	cmp.w	sl, #0
  403b20:	dd3c      	ble.n	403b9c <_svfprintf_r+0x3d0>
  403b22:	f1ba 0f10 	cmp.w	sl, #16
  403b26:	9a24      	ldr	r2, [sp, #144]	; 0x90
  403b28:	f8df 9468 	ldr.w	r9, [pc, #1128]	; 403f94 <_svfprintf_r+0x7c8>
  403b2c:	dd2b      	ble.n	403b86 <_svfprintf_r+0x3ba>
  403b2e:	4649      	mov	r1, r9
  403b30:	465b      	mov	r3, fp
  403b32:	46a9      	mov	r9, r5
  403b34:	f04f 0810 	mov.w	r8, #16
  403b38:	f8dd b020 	ldr.w	fp, [sp, #32]
  403b3c:	460d      	mov	r5, r1
  403b3e:	e006      	b.n	403b4e <_svfprintf_r+0x382>
  403b40:	f1aa 0a10 	sub.w	sl, sl, #16
  403b44:	f1ba 0f10 	cmp.w	sl, #16
  403b48:	f104 0408 	add.w	r4, r4, #8
  403b4c:	dd17      	ble.n	403b7e <_svfprintf_r+0x3b2>
  403b4e:	3201      	adds	r2, #1
  403b50:	3310      	adds	r3, #16
  403b52:	2a07      	cmp	r2, #7
  403b54:	9325      	str	r3, [sp, #148]	; 0x94
  403b56:	9224      	str	r2, [sp, #144]	; 0x90
  403b58:	e884 0120 	stmia.w	r4, {r5, r8}
  403b5c:	ddf0      	ble.n	403b40 <_svfprintf_r+0x374>
  403b5e:	4658      	mov	r0, fp
  403b60:	4631      	mov	r1, r6
  403b62:	aa23      	add	r2, sp, #140	; 0x8c
  403b64:	f003 fab4 	bl	4070d0 <__ssprint_r>
  403b68:	2800      	cmp	r0, #0
  403b6a:	f47f aef5 	bne.w	403958 <_svfprintf_r+0x18c>
  403b6e:	f1aa 0a10 	sub.w	sl, sl, #16
  403b72:	f1ba 0f10 	cmp.w	sl, #16
  403b76:	9b25      	ldr	r3, [sp, #148]	; 0x94
  403b78:	9a24      	ldr	r2, [sp, #144]	; 0x90
  403b7a:	463c      	mov	r4, r7
  403b7c:	dce7      	bgt.n	403b4e <_svfprintf_r+0x382>
  403b7e:	469b      	mov	fp, r3
  403b80:	462b      	mov	r3, r5
  403b82:	464d      	mov	r5, r9
  403b84:	4699      	mov	r9, r3
  403b86:	3201      	adds	r2, #1
  403b88:	44d3      	add	fp, sl
  403b8a:	2a07      	cmp	r2, #7
  403b8c:	f8cd b094 	str.w	fp, [sp, #148]	; 0x94
  403b90:	9224      	str	r2, [sp, #144]	; 0x90
  403b92:	e884 0600 	stmia.w	r4, {r9, sl}
  403b96:	f300 8375 	bgt.w	404284 <_svfprintf_r+0xab8>
  403b9a:	3408      	adds	r4, #8
  403b9c:	9b07      	ldr	r3, [sp, #28]
  403b9e:	05d9      	lsls	r1, r3, #23
  403ba0:	f100 826c 	bmi.w	40407c <_svfprintf_r+0x8b0>
  403ba4:	9b24      	ldr	r3, [sp, #144]	; 0x90
  403ba6:	990d      	ldr	r1, [sp, #52]	; 0x34
  403ba8:	9a10      	ldr	r2, [sp, #64]	; 0x40
  403baa:	6022      	str	r2, [r4, #0]
  403bac:	3301      	adds	r3, #1
  403bae:	448b      	add	fp, r1
  403bb0:	2b07      	cmp	r3, #7
  403bb2:	f8cd b094 	str.w	fp, [sp, #148]	; 0x94
  403bb6:	6061      	str	r1, [r4, #4]
  403bb8:	9324      	str	r3, [sp, #144]	; 0x90
  403bba:	f300 8346 	bgt.w	40424a <_svfprintf_r+0xa7e>
  403bbe:	3408      	adds	r4, #8
  403bc0:	9b07      	ldr	r3, [sp, #28]
  403bc2:	075a      	lsls	r2, r3, #29
  403bc4:	d541      	bpl.n	403c4a <_svfprintf_r+0x47e>
  403bc6:	9b0c      	ldr	r3, [sp, #48]	; 0x30
  403bc8:	9a09      	ldr	r2, [sp, #36]	; 0x24
  403bca:	1a9d      	subs	r5, r3, r2
  403bcc:	2d00      	cmp	r5, #0
  403bce:	dd3c      	ble.n	403c4a <_svfprintf_r+0x47e>
  403bd0:	2d10      	cmp	r5, #16
  403bd2:	9b24      	ldr	r3, [sp, #144]	; 0x90
  403bd4:	f8df a3b8 	ldr.w	sl, [pc, #952]	; 403f90 <_svfprintf_r+0x7c4>
  403bd8:	dd23      	ble.n	403c22 <_svfprintf_r+0x456>
  403bda:	f04f 0810 	mov.w	r8, #16
  403bde:	465a      	mov	r2, fp
  403be0:	f8dd 9020 	ldr.w	r9, [sp, #32]
  403be4:	e004      	b.n	403bf0 <_svfprintf_r+0x424>
  403be6:	3d10      	subs	r5, #16
  403be8:	2d10      	cmp	r5, #16
  403bea:	f104 0408 	add.w	r4, r4, #8
  403bee:	dd17      	ble.n	403c20 <_svfprintf_r+0x454>
  403bf0:	3301      	adds	r3, #1
  403bf2:	3210      	adds	r2, #16
  403bf4:	2b07      	cmp	r3, #7
  403bf6:	9225      	str	r2, [sp, #148]	; 0x94
  403bf8:	9324      	str	r3, [sp, #144]	; 0x90
  403bfa:	f8c4 a000 	str.w	sl, [r4]
  403bfe:	f8c4 8004 	str.w	r8, [r4, #4]
  403c02:	ddf0      	ble.n	403be6 <_svfprintf_r+0x41a>
  403c04:	4648      	mov	r0, r9
  403c06:	4631      	mov	r1, r6
  403c08:	aa23      	add	r2, sp, #140	; 0x8c
  403c0a:	f003 fa61 	bl	4070d0 <__ssprint_r>
  403c0e:	2800      	cmp	r0, #0
  403c10:	f47f aea2 	bne.w	403958 <_svfprintf_r+0x18c>
  403c14:	3d10      	subs	r5, #16
  403c16:	2d10      	cmp	r5, #16
  403c18:	9a25      	ldr	r2, [sp, #148]	; 0x94
  403c1a:	9b24      	ldr	r3, [sp, #144]	; 0x90
  403c1c:	463c      	mov	r4, r7
  403c1e:	dce7      	bgt.n	403bf0 <_svfprintf_r+0x424>
  403c20:	4693      	mov	fp, r2
  403c22:	3301      	adds	r3, #1
  403c24:	44ab      	add	fp, r5
  403c26:	2b07      	cmp	r3, #7
  403c28:	f8cd b094 	str.w	fp, [sp, #148]	; 0x94
  403c2c:	9324      	str	r3, [sp, #144]	; 0x90
  403c2e:	f8c4 a000 	str.w	sl, [r4]
  403c32:	6065      	str	r5, [r4, #4]
  403c34:	dd09      	ble.n	403c4a <_svfprintf_r+0x47e>
  403c36:	9808      	ldr	r0, [sp, #32]
  403c38:	4631      	mov	r1, r6
  403c3a:	aa23      	add	r2, sp, #140	; 0x8c
  403c3c:	f003 fa48 	bl	4070d0 <__ssprint_r>
  403c40:	2800      	cmp	r0, #0
  403c42:	f47f ae89 	bne.w	403958 <_svfprintf_r+0x18c>
  403c46:	f8dd b094 	ldr.w	fp, [sp, #148]	; 0x94
  403c4a:	9b0b      	ldr	r3, [sp, #44]	; 0x2c
  403c4c:	9a09      	ldr	r2, [sp, #36]	; 0x24
  403c4e:	990c      	ldr	r1, [sp, #48]	; 0x30
  403c50:	428a      	cmp	r2, r1
  403c52:	bfac      	ite	ge
  403c54:	189b      	addge	r3, r3, r2
  403c56:	185b      	addlt	r3, r3, r1
  403c58:	930b      	str	r3, [sp, #44]	; 0x2c
  403c5a:	f1bb 0f00 	cmp.w	fp, #0
  403c5e:	f47f ae73 	bne.w	403948 <_svfprintf_r+0x17c>
  403c62:	2300      	movs	r3, #0
  403c64:	9324      	str	r3, [sp, #144]	; 0x90
  403c66:	463c      	mov	r4, r7
  403c68:	e5d5      	b.n	403816 <_svfprintf_r+0x4a>
  403c6a:	4619      	mov	r1, r3
  403c6c:	9807      	ldr	r0, [sp, #28]
  403c6e:	781d      	ldrb	r5, [r3, #0]
  403c70:	f040 0004 	orr.w	r0, r0, #4
  403c74:	9007      	str	r0, [sp, #28]
  403c76:	e5fc      	b.n	403872 <_svfprintf_r+0xa6>
  403c78:	930a      	str	r3, [sp, #40]	; 0x28
  403c7a:	9b07      	ldr	r3, [sp, #28]
  403c7c:	f013 0320 	ands.w	r3, r3, #32
  403c80:	f000 810e 	beq.w	403ea0 <_svfprintf_r+0x6d4>
  403c84:	9b0e      	ldr	r3, [sp, #56]	; 0x38
  403c86:	f103 0907 	add.w	r9, r3, #7
  403c8a:	f029 0307 	bic.w	r3, r9, #7
  403c8e:	f103 0208 	add.w	r2, r3, #8
  403c92:	e9d3 8900 	ldrd	r8, r9, [r3]
  403c96:	920e      	str	r2, [sp, #56]	; 0x38
  403c98:	2300      	movs	r3, #0
  403c9a:	e67c      	b.n	403996 <_svfprintf_r+0x1ca>
  403c9c:	781d      	ldrb	r5, [r3, #0]
  403c9e:	4619      	mov	r1, r3
  403ca0:	222b      	movs	r2, #43	; 0x2b
  403ca2:	e5e6      	b.n	403872 <_svfprintf_r+0xa6>
  403ca4:	781d      	ldrb	r5, [r3, #0]
  403ca6:	2d2a      	cmp	r5, #42	; 0x2a
  403ca8:	f103 0101 	add.w	r1, r3, #1
  403cac:	f000 87ad 	beq.w	404c0a <_svfprintf_r+0x143e>
  403cb0:	f1a5 0030 	sub.w	r0, r5, #48	; 0x30
  403cb4:	2809      	cmp	r0, #9
  403cb6:	460b      	mov	r3, r1
  403cb8:	f04f 0a00 	mov.w	sl, #0
  403cbc:	f63f adda 	bhi.w	403874 <_svfprintf_r+0xa8>
  403cc0:	f813 5b01 	ldrb.w	r5, [r3], #1
  403cc4:	eb0a 0a8a 	add.w	sl, sl, sl, lsl #2
  403cc8:	eb00 0a4a 	add.w	sl, r0, sl, lsl #1
  403ccc:	f1a5 0030 	sub.w	r0, r5, #48	; 0x30
  403cd0:	2809      	cmp	r0, #9
  403cd2:	d9f5      	bls.n	403cc0 <_svfprintf_r+0x4f4>
  403cd4:	ea4a 7aea 	orr.w	sl, sl, sl, asr #31
  403cd8:	e5cc      	b.n	403874 <_svfprintf_r+0xa8>
  403cda:	930a      	str	r3, [sp, #40]	; 0x28
  403cdc:	9b07      	ldr	r3, [sp, #28]
  403cde:	f88d 206f 	strb.w	r2, [sp, #111]	; 0x6f
  403ce2:	069b      	lsls	r3, r3, #26
  403ce4:	f140 80a1 	bpl.w	403e2a <_svfprintf_r+0x65e>
  403ce8:	9b0e      	ldr	r3, [sp, #56]	; 0x38
  403cea:	f103 0907 	add.w	r9, r3, #7
  403cee:	f029 0907 	bic.w	r9, r9, #7
  403cf2:	e9d9 2300 	ldrd	r2, r3, [r9]
  403cf6:	f109 0108 	add.w	r1, r9, #8
  403cfa:	910e      	str	r1, [sp, #56]	; 0x38
  403cfc:	4690      	mov	r8, r2
  403cfe:	4699      	mov	r9, r3
  403d00:	2a00      	cmp	r2, #0
  403d02:	f173 0300 	sbcs.w	r3, r3, #0
  403d06:	f2c0 840b 	blt.w	404520 <_svfprintf_r+0xd54>
  403d0a:	f89d c06f 	ldrb.w	ip, [sp, #111]	; 0x6f
  403d0e:	f8cd a044 	str.w	sl, [sp, #68]	; 0x44
  403d12:	2301      	movs	r3, #1
  403d14:	e645      	b.n	4039a2 <_svfprintf_r+0x1d6>
  403d16:	930a      	str	r3, [sp, #40]	; 0x28
  403d18:	4b9b      	ldr	r3, [pc, #620]	; (403f88 <_svfprintf_r+0x7bc>)
  403d1a:	9316      	str	r3, [sp, #88]	; 0x58
  403d1c:	9b07      	ldr	r3, [sp, #28]
  403d1e:	f88d 206f 	strb.w	r2, [sp, #111]	; 0x6f
  403d22:	069b      	lsls	r3, r3, #26
  403d24:	f140 80f3 	bpl.w	403f0e <_svfprintf_r+0x742>
  403d28:	9b0e      	ldr	r3, [sp, #56]	; 0x38
  403d2a:	f103 0907 	add.w	r9, r3, #7
  403d2e:	f029 0307 	bic.w	r3, r9, #7
  403d32:	e9d3 8900 	ldrd	r8, r9, [r3]
  403d36:	f103 0208 	add.w	r2, r3, #8
  403d3a:	920e      	str	r2, [sp, #56]	; 0x38
  403d3c:	9b07      	ldr	r3, [sp, #28]
  403d3e:	07d9      	lsls	r1, r3, #31
  403d40:	f140 80f5 	bpl.w	403f2e <_svfprintf_r+0x762>
  403d44:	ea58 0309 	orrs.w	r3, r8, r9
  403d48:	f000 80f1 	beq.w	403f2e <_svfprintf_r+0x762>
  403d4c:	9a07      	ldr	r2, [sp, #28]
  403d4e:	f88d 5071 	strb.w	r5, [sp, #113]	; 0x71
  403d52:	2330      	movs	r3, #48	; 0x30
  403d54:	f042 0202 	orr.w	r2, r2, #2
  403d58:	f88d 3070 	strb.w	r3, [sp, #112]	; 0x70
  403d5c:	9207      	str	r2, [sp, #28]
  403d5e:	2302      	movs	r3, #2
  403d60:	e619      	b.n	403996 <_svfprintf_r+0x1ca>
  403d62:	781d      	ldrb	r5, [r3, #0]
  403d64:	4619      	mov	r1, r3
  403d66:	2a00      	cmp	r2, #0
  403d68:	f47f ad83 	bne.w	403872 <_svfprintf_r+0xa6>
  403d6c:	2220      	movs	r2, #32
  403d6e:	e580      	b.n	403872 <_svfprintf_r+0xa6>
  403d70:	9907      	ldr	r1, [sp, #28]
  403d72:	f041 0120 	orr.w	r1, r1, #32
  403d76:	9107      	str	r1, [sp, #28]
  403d78:	781d      	ldrb	r5, [r3, #0]
  403d7a:	4619      	mov	r1, r3
  403d7c:	e579      	b.n	403872 <_svfprintf_r+0xa6>
  403d7e:	930a      	str	r3, [sp, #40]	; 0x28
  403d80:	9b07      	ldr	r3, [sp, #28]
  403d82:	f88d 206f 	strb.w	r2, [sp, #111]	; 0x6f
  403d86:	069a      	lsls	r2, r3, #26
  403d88:	f140 84a1 	bpl.w	4046ce <_svfprintf_r+0xf02>
  403d8c:	990b      	ldr	r1, [sp, #44]	; 0x2c
  403d8e:	9a0e      	ldr	r2, [sp, #56]	; 0x38
  403d90:	ea4f 79e1 	mov.w	r9, r1, asr #31
  403d94:	6813      	ldr	r3, [r2, #0]
  403d96:	4608      	mov	r0, r1
  403d98:	4688      	mov	r8, r1
  403d9a:	3204      	adds	r2, #4
  403d9c:	4649      	mov	r1, r9
  403d9e:	920e      	str	r2, [sp, #56]	; 0x38
  403da0:	e9c3 0100 	strd	r0, r1, [r3]
  403da4:	e537      	b.n	403816 <_svfprintf_r+0x4a>
  403da6:	9a0e      	ldr	r2, [sp, #56]	; 0x38
  403da8:	930a      	str	r3, [sp, #40]	; 0x28
  403daa:	6813      	ldr	r3, [r2, #0]
  403dac:	9310      	str	r3, [sp, #64]	; 0x40
  403dae:	f04f 0b00 	mov.w	fp, #0
  403db2:	f88d b06f 	strb.w	fp, [sp, #111]	; 0x6f
  403db6:	f102 0904 	add.w	r9, r2, #4
  403dba:	2b00      	cmp	r3, #0
  403dbc:	f000 863b 	beq.w	404a36 <_svfprintf_r+0x126a>
  403dc0:	f1ba 0f00 	cmp.w	sl, #0
  403dc4:	9810      	ldr	r0, [sp, #64]	; 0x40
  403dc6:	f2c0 85e9 	blt.w	40499c <_svfprintf_r+0x11d0>
  403dca:	4659      	mov	r1, fp
  403dcc:	4652      	mov	r2, sl
  403dce:	f002 fb0b 	bl	4063e8 <memchr>
  403dd2:	2800      	cmp	r0, #0
  403dd4:	f000 866c 	beq.w	404ab0 <_svfprintf_r+0x12e4>
  403dd8:	9b10      	ldr	r3, [sp, #64]	; 0x40
  403dda:	f8cd b044 	str.w	fp, [sp, #68]	; 0x44
  403dde:	1ac3      	subs	r3, r0, r3
  403de0:	930d      	str	r3, [sp, #52]	; 0x34
  403de2:	f8cd 9038 	str.w	r9, [sp, #56]	; 0x38
  403de6:	ea23 73e3 	bic.w	r3, r3, r3, asr #31
  403dea:	9309      	str	r3, [sp, #36]	; 0x24
  403dec:	f8cd b048 	str.w	fp, [sp, #72]	; 0x48
  403df0:	f89d c06f 	ldrb.w	ip, [sp, #111]	; 0x6f
  403df4:	e60a      	b.n	403a0c <_svfprintf_r+0x240>
  403df6:	f1a5 0030 	sub.w	r0, r5, #48	; 0x30
  403dfa:	2100      	movs	r1, #0
  403dfc:	f813 5b01 	ldrb.w	r5, [r3], #1
  403e00:	eb01 0181 	add.w	r1, r1, r1, lsl #2
  403e04:	eb00 0141 	add.w	r1, r0, r1, lsl #1
  403e08:	f1a5 0030 	sub.w	r0, r5, #48	; 0x30
  403e0c:	2809      	cmp	r0, #9
  403e0e:	d9f5      	bls.n	403dfc <_svfprintf_r+0x630>
  403e10:	910c      	str	r1, [sp, #48]	; 0x30
  403e12:	e52f      	b.n	403874 <_svfprintf_r+0xa8>
  403e14:	930a      	str	r3, [sp, #40]	; 0x28
  403e16:	9b07      	ldr	r3, [sp, #28]
  403e18:	f88d 206f 	strb.w	r2, [sp, #111]	; 0x6f
  403e1c:	f043 0310 	orr.w	r3, r3, #16
  403e20:	9307      	str	r3, [sp, #28]
  403e22:	9b07      	ldr	r3, [sp, #28]
  403e24:	069b      	lsls	r3, r3, #26
  403e26:	f53f af5f 	bmi.w	403ce8 <_svfprintf_r+0x51c>
  403e2a:	9b07      	ldr	r3, [sp, #28]
  403e2c:	06d8      	lsls	r0, r3, #27
  403e2e:	f100 8368 	bmi.w	404502 <_svfprintf_r+0xd36>
  403e32:	9b07      	ldr	r3, [sp, #28]
  403e34:	0659      	lsls	r1, r3, #25
  403e36:	f140 8364 	bpl.w	404502 <_svfprintf_r+0xd36>
  403e3a:	990e      	ldr	r1, [sp, #56]	; 0x38
  403e3c:	f9b1 8000 	ldrsh.w	r8, [r1]
  403e40:	3104      	adds	r1, #4
  403e42:	ea4f 79e8 	mov.w	r9, r8, asr #31
  403e46:	4642      	mov	r2, r8
  403e48:	464b      	mov	r3, r9
  403e4a:	910e      	str	r1, [sp, #56]	; 0x38
  403e4c:	e758      	b.n	403d00 <_svfprintf_r+0x534>
  403e4e:	781d      	ldrb	r5, [r3, #0]
  403e50:	9907      	ldr	r1, [sp, #28]
  403e52:	2d6c      	cmp	r5, #108	; 0x6c
  403e54:	f000 84cb 	beq.w	4047ee <_svfprintf_r+0x1022>
  403e58:	f041 0110 	orr.w	r1, r1, #16
  403e5c:	9107      	str	r1, [sp, #28]
  403e5e:	4619      	mov	r1, r3
  403e60:	e507      	b.n	403872 <_svfprintf_r+0xa6>
  403e62:	9d0e      	ldr	r5, [sp, #56]	; 0x38
  403e64:	6829      	ldr	r1, [r5, #0]
  403e66:	910c      	str	r1, [sp, #48]	; 0x30
  403e68:	4608      	mov	r0, r1
  403e6a:	2800      	cmp	r0, #0
  403e6c:	4629      	mov	r1, r5
  403e6e:	f101 0104 	add.w	r1, r1, #4
  403e72:	f2c0 84b5 	blt.w	4047e0 <_svfprintf_r+0x1014>
  403e76:	910e      	str	r1, [sp, #56]	; 0x38
  403e78:	781d      	ldrb	r5, [r3, #0]
  403e7a:	4619      	mov	r1, r3
  403e7c:	e4f9      	b.n	403872 <_svfprintf_r+0xa6>
  403e7e:	9907      	ldr	r1, [sp, #28]
  403e80:	f041 0140 	orr.w	r1, r1, #64	; 0x40
  403e84:	9107      	str	r1, [sp, #28]
  403e86:	781d      	ldrb	r5, [r3, #0]
  403e88:	4619      	mov	r1, r3
  403e8a:	e4f2      	b.n	403872 <_svfprintf_r+0xa6>
  403e8c:	930a      	str	r3, [sp, #40]	; 0x28
  403e8e:	9b07      	ldr	r3, [sp, #28]
  403e90:	f043 0310 	orr.w	r3, r3, #16
  403e94:	9307      	str	r3, [sp, #28]
  403e96:	9b07      	ldr	r3, [sp, #28]
  403e98:	f013 0320 	ands.w	r3, r3, #32
  403e9c:	f47f aef2 	bne.w	403c84 <_svfprintf_r+0x4b8>
  403ea0:	9a07      	ldr	r2, [sp, #28]
  403ea2:	f012 0210 	ands.w	r2, r2, #16
  403ea6:	f040 8319 	bne.w	4044dc <_svfprintf_r+0xd10>
  403eaa:	9b07      	ldr	r3, [sp, #28]
  403eac:	f013 0340 	ands.w	r3, r3, #64	; 0x40
  403eb0:	f000 8314 	beq.w	4044dc <_svfprintf_r+0xd10>
  403eb4:	990e      	ldr	r1, [sp, #56]	; 0x38
  403eb6:	4613      	mov	r3, r2
  403eb8:	460a      	mov	r2, r1
  403eba:	3204      	adds	r2, #4
  403ebc:	f8b1 8000 	ldrh.w	r8, [r1]
  403ec0:	920e      	str	r2, [sp, #56]	; 0x38
  403ec2:	f04f 0900 	mov.w	r9, #0
  403ec6:	e566      	b.n	403996 <_svfprintf_r+0x1ca>
  403ec8:	930a      	str	r3, [sp, #40]	; 0x28
  403eca:	9b07      	ldr	r3, [sp, #28]
  403ecc:	f043 0310 	orr.w	r3, r3, #16
  403ed0:	9307      	str	r3, [sp, #28]
  403ed2:	9b07      	ldr	r3, [sp, #28]
  403ed4:	0698      	lsls	r0, r3, #26
  403ed6:	f53f ad53 	bmi.w	403980 <_svfprintf_r+0x1b4>
  403eda:	9b07      	ldr	r3, [sp, #28]
  403edc:	06d9      	lsls	r1, r3, #27
  403ede:	f100 8306 	bmi.w	4044ee <_svfprintf_r+0xd22>
  403ee2:	9b07      	ldr	r3, [sp, #28]
  403ee4:	065a      	lsls	r2, r3, #25
  403ee6:	f140 8302 	bpl.w	4044ee <_svfprintf_r+0xd22>
  403eea:	9a0e      	ldr	r2, [sp, #56]	; 0x38
  403eec:	f8b2 8000 	ldrh.w	r8, [r2]
  403ef0:	3204      	adds	r2, #4
  403ef2:	f04f 0900 	mov.w	r9, #0
  403ef6:	2301      	movs	r3, #1
  403ef8:	920e      	str	r2, [sp, #56]	; 0x38
  403efa:	e54c      	b.n	403996 <_svfprintf_r+0x1ca>
  403efc:	930a      	str	r3, [sp, #40]	; 0x28
  403efe:	4b23      	ldr	r3, [pc, #140]	; (403f8c <_svfprintf_r+0x7c0>)
  403f00:	9316      	str	r3, [sp, #88]	; 0x58
  403f02:	9b07      	ldr	r3, [sp, #28]
  403f04:	f88d 206f 	strb.w	r2, [sp, #111]	; 0x6f
  403f08:	069b      	lsls	r3, r3, #26
  403f0a:	f53f af0d 	bmi.w	403d28 <_svfprintf_r+0x55c>
  403f0e:	9b07      	ldr	r3, [sp, #28]
  403f10:	06d8      	lsls	r0, r3, #27
  403f12:	f140 83cd 	bpl.w	4046b0 <_svfprintf_r+0xee4>
  403f16:	9a0e      	ldr	r2, [sp, #56]	; 0x38
  403f18:	4613      	mov	r3, r2
  403f1a:	681b      	ldr	r3, [r3, #0]
  403f1c:	4698      	mov	r8, r3
  403f1e:	9b07      	ldr	r3, [sp, #28]
  403f20:	3204      	adds	r2, #4
  403f22:	07d9      	lsls	r1, r3, #31
  403f24:	920e      	str	r2, [sp, #56]	; 0x38
  403f26:	f04f 0900 	mov.w	r9, #0
  403f2a:	f53f af0b 	bmi.w	403d44 <_svfprintf_r+0x578>
  403f2e:	2302      	movs	r3, #2
  403f30:	e531      	b.n	403996 <_svfprintf_r+0x1ca>
  403f32:	990e      	ldr	r1, [sp, #56]	; 0x38
  403f34:	930a      	str	r3, [sp, #40]	; 0x28
  403f36:	680a      	ldr	r2, [r1, #0]
  403f38:	f88d 2098 	strb.w	r2, [sp, #152]	; 0x98
  403f3c:	2300      	movs	r3, #0
  403f3e:	2201      	movs	r2, #1
  403f40:	3104      	adds	r1, #4
  403f42:	469c      	mov	ip, r3
  403f44:	9209      	str	r2, [sp, #36]	; 0x24
  403f46:	910e      	str	r1, [sp, #56]	; 0x38
  403f48:	f88d 306f 	strb.w	r3, [sp, #111]	; 0x6f
  403f4c:	ab26      	add	r3, sp, #152	; 0x98
  403f4e:	f8cd c044 	str.w	ip, [sp, #68]	; 0x44
  403f52:	f8cd c048 	str.w	ip, [sp, #72]	; 0x48
  403f56:	920d      	str	r2, [sp, #52]	; 0x34
  403f58:	9310      	str	r3, [sp, #64]	; 0x40
  403f5a:	e55d      	b.n	403a18 <_svfprintf_r+0x24c>
  403f5c:	9907      	ldr	r1, [sp, #28]
  403f5e:	f041 0108 	orr.w	r1, r1, #8
  403f62:	9107      	str	r1, [sp, #28]
  403f64:	781d      	ldrb	r5, [r3, #0]
  403f66:	4619      	mov	r1, r3
  403f68:	e483      	b.n	403872 <_svfprintf_r+0xa6>
  403f6a:	9907      	ldr	r1, [sp, #28]
  403f6c:	f041 0101 	orr.w	r1, r1, #1
  403f70:	9107      	str	r1, [sp, #28]
  403f72:	781d      	ldrb	r5, [r3, #0]
  403f74:	4619      	mov	r1, r3
  403f76:	e47c      	b.n	403872 <_svfprintf_r+0xa6>
  403f78:	9907      	ldr	r1, [sp, #28]
  403f7a:	f041 0180 	orr.w	r1, r1, #128	; 0x80
  403f7e:	9107      	str	r1, [sp, #28]
  403f80:	781d      	ldrb	r5, [r3, #0]
  403f82:	4619      	mov	r1, r3
  403f84:	e475      	b.n	403872 <_svfprintf_r+0xa6>
  403f86:	bf00      	nop
  403f88:	0041f934 	.word	0x0041f934
  403f8c:	0041f920 	.word	0x0041f920
  403f90:	0041f900 	.word	0x0041f900
  403f94:	0041f8f0 	.word	0x0041f8f0
  403f98:	930a      	str	r3, [sp, #40]	; 0x28
  403f9a:	9b0e      	ldr	r3, [sp, #56]	; 0x38
  403f9c:	f88d 206f 	strb.w	r2, [sp, #111]	; 0x6f
  403fa0:	f103 0907 	add.w	r9, r3, #7
  403fa4:	f029 0307 	bic.w	r3, r9, #7
  403fa8:	f103 0208 	add.w	r2, r3, #8
  403fac:	920e      	str	r2, [sp, #56]	; 0x38
  403fae:	681a      	ldr	r2, [r3, #0]
  403fb0:	9214      	str	r2, [sp, #80]	; 0x50
  403fb2:	685b      	ldr	r3, [r3, #4]
  403fb4:	9315      	str	r3, [sp, #84]	; 0x54
  403fb6:	9915      	ldr	r1, [sp, #84]	; 0x54
  403fb8:	9814      	ldr	r0, [sp, #80]	; 0x50
  403fba:	f003 f84b 	bl	407054 <__fpclassifyd>
  403fbe:	2801      	cmp	r0, #1
  403fc0:	46d3      	mov	fp, sl
  403fc2:	9814      	ldr	r0, [sp, #80]	; 0x50
  403fc4:	9915      	ldr	r1, [sp, #84]	; 0x54
  403fc6:	f040 8359 	bne.w	40467c <_svfprintf_r+0xeb0>
  403fca:	2200      	movs	r2, #0
  403fcc:	2300      	movs	r3, #0
  403fce:	f7ff fa9b 	bl	403508 <__aeabi_dcmplt>
  403fd2:	2800      	cmp	r0, #0
  403fd4:	f040 8564 	bne.w	404aa0 <_svfprintf_r+0x12d4>
  403fd8:	f89d c06f 	ldrb.w	ip, [sp, #111]	; 0x6f
  403fdc:	9b07      	ldr	r3, [sp, #28]
  403fde:	4abe      	ldr	r2, [pc, #760]	; (4042d8 <_svfprintf_r+0xb0c>)
  403fe0:	f8df e300 	ldr.w	lr, [pc, #768]	; 4042e4 <_svfprintf_r+0xb18>
  403fe4:	f023 0380 	bic.w	r3, r3, #128	; 0x80
  403fe8:	9307      	str	r3, [sp, #28]
  403fea:	4613      	mov	r3, r2
  403fec:	2103      	movs	r1, #3
  403fee:	2000      	movs	r0, #0
  403ff0:	2d47      	cmp	r5, #71	; 0x47
  403ff2:	bfd8      	it	le
  403ff4:	4673      	movle	r3, lr
  403ff6:	9109      	str	r1, [sp, #36]	; 0x24
  403ff8:	9011      	str	r0, [sp, #68]	; 0x44
  403ffa:	9310      	str	r3, [sp, #64]	; 0x40
  403ffc:	910d      	str	r1, [sp, #52]	; 0x34
  403ffe:	9012      	str	r0, [sp, #72]	; 0x48
  404000:	e504      	b.n	403a0c <_svfprintf_r+0x240>
  404002:	980e      	ldr	r0, [sp, #56]	; 0x38
  404004:	9907      	ldr	r1, [sp, #28]
  404006:	930a      	str	r3, [sp, #40]	; 0x28
  404008:	2230      	movs	r2, #48	; 0x30
  40400a:	6803      	ldr	r3, [r0, #0]
  40400c:	f88d 2070 	strb.w	r2, [sp, #112]	; 0x70
  404010:	4602      	mov	r2, r0
  404012:	2578      	movs	r5, #120	; 0x78
  404014:	f041 0102 	orr.w	r1, r1, #2
  404018:	3204      	adds	r2, #4
  40401a:	4698      	mov	r8, r3
  40401c:	4baf      	ldr	r3, [pc, #700]	; (4042dc <_svfprintf_r+0xb10>)
  40401e:	9316      	str	r3, [sp, #88]	; 0x58
  404020:	9107      	str	r1, [sp, #28]
  404022:	920e      	str	r2, [sp, #56]	; 0x38
  404024:	f04f 0900 	mov.w	r9, #0
  404028:	f88d 5071 	strb.w	r5, [sp, #113]	; 0x71
  40402c:	2302      	movs	r3, #2
  40402e:	e4b2      	b.n	403996 <_svfprintf_r+0x1ca>
  404030:	930a      	str	r3, [sp, #40]	; 0x28
  404032:	f88d 206f 	strb.w	r2, [sp, #111]	; 0x6f
  404036:	2d00      	cmp	r5, #0
  404038:	f000 83c6 	beq.w	4047c8 <_svfprintf_r+0xffc>
  40403c:	2300      	movs	r3, #0
  40403e:	2201      	movs	r2, #1
  404040:	469c      	mov	ip, r3
  404042:	9209      	str	r2, [sp, #36]	; 0x24
  404044:	f88d 5098 	strb.w	r5, [sp, #152]	; 0x98
  404048:	e77e      	b.n	403f48 <_svfprintf_r+0x77c>
  40404a:	f8dd b094 	ldr.w	fp, [sp, #148]	; 0x94
  40404e:	e539      	b.n	403ac4 <_svfprintf_r+0x2f8>
  404050:	2b01      	cmp	r3, #1
  404052:	f47f acb8 	bne.w	4039c6 <_svfprintf_r+0x1fa>
  404056:	f1b9 0f00 	cmp.w	r9, #0
  40405a:	bf08      	it	eq
  40405c:	f1b8 0f0a 	cmpeq.w	r8, #10
  404060:	f080 821c 	bcs.w	40449c <_svfprintf_r+0xcd0>
  404064:	f50d 7b80 	add.w	fp, sp, #256	; 0x100
  404068:	f108 0830 	add.w	r8, r8, #48	; 0x30
  40406c:	f80b 8d41 	strb.w	r8, [fp, #-65]!
  404070:	ebcb 0307 	rsb	r3, fp, r7
  404074:	930d      	str	r3, [sp, #52]	; 0x34
  404076:	f8cd b040 	str.w	fp, [sp, #64]	; 0x40
  40407a:	e4bf      	b.n	4039fc <_svfprintf_r+0x230>
  40407c:	2d65      	cmp	r5, #101	; 0x65
  40407e:	f340 80a0 	ble.w	4041c2 <_svfprintf_r+0x9f6>
  404082:	9814      	ldr	r0, [sp, #80]	; 0x50
  404084:	9915      	ldr	r1, [sp, #84]	; 0x54
  404086:	2200      	movs	r2, #0
  404088:	2300      	movs	r3, #0
  40408a:	f7ff fa33 	bl	4034f4 <__aeabi_dcmpeq>
  40408e:	2800      	cmp	r0, #0
  404090:	f000 8145 	beq.w	40431e <_svfprintf_r+0xb52>
  404094:	9b24      	ldr	r3, [sp, #144]	; 0x90
  404096:	4a92      	ldr	r2, [pc, #584]	; (4042e0 <_svfprintf_r+0xb14>)
  404098:	6022      	str	r2, [r4, #0]
  40409a:	3301      	adds	r3, #1
  40409c:	f10b 0b01 	add.w	fp, fp, #1
  4040a0:	2201      	movs	r2, #1
  4040a2:	2b07      	cmp	r3, #7
  4040a4:	f8cd b094 	str.w	fp, [sp, #148]	; 0x94
  4040a8:	9324      	str	r3, [sp, #144]	; 0x90
  4040aa:	6062      	str	r2, [r4, #4]
  4040ac:	f300 8334 	bgt.w	404718 <_svfprintf_r+0xf4c>
  4040b0:	3408      	adds	r4, #8
  4040b2:	9b1d      	ldr	r3, [sp, #116]	; 0x74
  4040b4:	9a13      	ldr	r2, [sp, #76]	; 0x4c
  4040b6:	4293      	cmp	r3, r2
  4040b8:	db03      	blt.n	4040c2 <_svfprintf_r+0x8f6>
  4040ba:	9b07      	ldr	r3, [sp, #28]
  4040bc:	07da      	lsls	r2, r3, #31
  4040be:	f57f ad7f 	bpl.w	403bc0 <_svfprintf_r+0x3f4>
  4040c2:	9b24      	ldr	r3, [sp, #144]	; 0x90
  4040c4:	9918      	ldr	r1, [sp, #96]	; 0x60
  4040c6:	9a17      	ldr	r2, [sp, #92]	; 0x5c
  4040c8:	6022      	str	r2, [r4, #0]
  4040ca:	3301      	adds	r3, #1
  4040cc:	448b      	add	fp, r1
  4040ce:	2b07      	cmp	r3, #7
  4040d0:	f8cd b094 	str.w	fp, [sp, #148]	; 0x94
  4040d4:	6061      	str	r1, [r4, #4]
  4040d6:	9324      	str	r3, [sp, #144]	; 0x90
  4040d8:	f300 8390 	bgt.w	4047fc <_svfprintf_r+0x1030>
  4040dc:	3408      	adds	r4, #8
  4040de:	9b13      	ldr	r3, [sp, #76]	; 0x4c
  4040e0:	1e5d      	subs	r5, r3, #1
  4040e2:	2d00      	cmp	r5, #0
  4040e4:	f77f ad6c 	ble.w	403bc0 <_svfprintf_r+0x3f4>
  4040e8:	2d10      	cmp	r5, #16
  4040ea:	9b24      	ldr	r3, [sp, #144]	; 0x90
  4040ec:	f8df 91f8 	ldr.w	r9, [pc, #504]	; 4042e8 <_svfprintf_r+0xb1c>
  4040f0:	f340 81ba 	ble.w	404468 <_svfprintf_r+0xc9c>
  4040f4:	f04f 0810 	mov.w	r8, #16
  4040f8:	465a      	mov	r2, fp
  4040fa:	f8dd a020 	ldr.w	sl, [sp, #32]
  4040fe:	e004      	b.n	40410a <_svfprintf_r+0x93e>
  404100:	3408      	adds	r4, #8
  404102:	3d10      	subs	r5, #16
  404104:	2d10      	cmp	r5, #16
  404106:	f340 81ae 	ble.w	404466 <_svfprintf_r+0xc9a>
  40410a:	3301      	adds	r3, #1
  40410c:	3210      	adds	r2, #16
  40410e:	2b07      	cmp	r3, #7
  404110:	9225      	str	r2, [sp, #148]	; 0x94
  404112:	9324      	str	r3, [sp, #144]	; 0x90
  404114:	f8c4 9000 	str.w	r9, [r4]
  404118:	f8c4 8004 	str.w	r8, [r4, #4]
  40411c:	ddf0      	ble.n	404100 <_svfprintf_r+0x934>
  40411e:	4650      	mov	r0, sl
  404120:	4631      	mov	r1, r6
  404122:	aa23      	add	r2, sp, #140	; 0x8c
  404124:	f002 ffd4 	bl	4070d0 <__ssprint_r>
  404128:	2800      	cmp	r0, #0
  40412a:	f47f ac15 	bne.w	403958 <_svfprintf_r+0x18c>
  40412e:	9a25      	ldr	r2, [sp, #148]	; 0x94
  404130:	9b24      	ldr	r3, [sp, #144]	; 0x90
  404132:	463c      	mov	r4, r7
  404134:	e7e5      	b.n	404102 <_svfprintf_r+0x936>
  404136:	9b0c      	ldr	r3, [sp, #48]	; 0x30
  404138:	9a09      	ldr	r2, [sp, #36]	; 0x24
  40413a:	ebc2 0a03 	rsb	sl, r2, r3
  40413e:	f1ba 0f00 	cmp.w	sl, #0
  404142:	f77f ace7 	ble.w	403b14 <_svfprintf_r+0x348>
  404146:	f1ba 0f10 	cmp.w	sl, #16
  40414a:	9a24      	ldr	r2, [sp, #144]	; 0x90
  40414c:	f8df 9198 	ldr.w	r9, [pc, #408]	; 4042e8 <_svfprintf_r+0xb1c>
  404150:	dd2b      	ble.n	4041aa <_svfprintf_r+0x9de>
  404152:	4649      	mov	r1, r9
  404154:	465b      	mov	r3, fp
  404156:	46a9      	mov	r9, r5
  404158:	f04f 0810 	mov.w	r8, #16
  40415c:	f8dd b020 	ldr.w	fp, [sp, #32]
  404160:	460d      	mov	r5, r1
  404162:	e006      	b.n	404172 <_svfprintf_r+0x9a6>
  404164:	f1aa 0a10 	sub.w	sl, sl, #16
  404168:	f1ba 0f10 	cmp.w	sl, #16
  40416c:	f104 0408 	add.w	r4, r4, #8
  404170:	dd17      	ble.n	4041a2 <_svfprintf_r+0x9d6>
  404172:	3201      	adds	r2, #1
  404174:	3310      	adds	r3, #16
  404176:	2a07      	cmp	r2, #7
  404178:	9325      	str	r3, [sp, #148]	; 0x94
  40417a:	9224      	str	r2, [sp, #144]	; 0x90
  40417c:	e884 0120 	stmia.w	r4, {r5, r8}
  404180:	ddf0      	ble.n	404164 <_svfprintf_r+0x998>
  404182:	4658      	mov	r0, fp
  404184:	4631      	mov	r1, r6
  404186:	aa23      	add	r2, sp, #140	; 0x8c
  404188:	f002 ffa2 	bl	4070d0 <__ssprint_r>
  40418c:	2800      	cmp	r0, #0
  40418e:	f47f abe3 	bne.w	403958 <_svfprintf_r+0x18c>
  404192:	f1aa 0a10 	sub.w	sl, sl, #16
  404196:	f1ba 0f10 	cmp.w	sl, #16
  40419a:	9b25      	ldr	r3, [sp, #148]	; 0x94
  40419c:	9a24      	ldr	r2, [sp, #144]	; 0x90
  40419e:	463c      	mov	r4, r7
  4041a0:	dce7      	bgt.n	404172 <_svfprintf_r+0x9a6>
  4041a2:	469b      	mov	fp, r3
  4041a4:	462b      	mov	r3, r5
  4041a6:	464d      	mov	r5, r9
  4041a8:	4699      	mov	r9, r3
  4041aa:	3201      	adds	r2, #1
  4041ac:	44d3      	add	fp, sl
  4041ae:	2a07      	cmp	r2, #7
  4041b0:	f8cd b094 	str.w	fp, [sp, #148]	; 0x94
  4041b4:	9224      	str	r2, [sp, #144]	; 0x90
  4041b6:	e884 0600 	stmia.w	r4, {r9, sl}
  4041ba:	f300 8252 	bgt.w	404662 <_svfprintf_r+0xe96>
  4041be:	3408      	adds	r4, #8
  4041c0:	e4a8      	b.n	403b14 <_svfprintf_r+0x348>
  4041c2:	9b13      	ldr	r3, [sp, #76]	; 0x4c
  4041c4:	9d24      	ldr	r5, [sp, #144]	; 0x90
  4041c6:	2b01      	cmp	r3, #1
  4041c8:	f340 8220 	ble.w	40460c <_svfprintf_r+0xe40>
  4041cc:	9b10      	ldr	r3, [sp, #64]	; 0x40
  4041ce:	6023      	str	r3, [r4, #0]
  4041d0:	3501      	adds	r5, #1
  4041d2:	f10b 0301 	add.w	r3, fp, #1
  4041d6:	2201      	movs	r2, #1
  4041d8:	2d07      	cmp	r5, #7
  4041da:	9325      	str	r3, [sp, #148]	; 0x94
  4041dc:	9524      	str	r5, [sp, #144]	; 0x90
  4041de:	6062      	str	r2, [r4, #4]
  4041e0:	f300 8226 	bgt.w	404630 <_svfprintf_r+0xe64>
  4041e4:	3408      	adds	r4, #8
  4041e6:	9918      	ldr	r1, [sp, #96]	; 0x60
  4041e8:	6061      	str	r1, [r4, #4]
  4041ea:	3501      	adds	r5, #1
  4041ec:	eb03 0b01 	add.w	fp, r3, r1
  4041f0:	2d07      	cmp	r5, #7
  4041f2:	9b17      	ldr	r3, [sp, #92]	; 0x5c
  4041f4:	f8cd b094 	str.w	fp, [sp, #148]	; 0x94
  4041f8:	9524      	str	r5, [sp, #144]	; 0x90
  4041fa:	6023      	str	r3, [r4, #0]
  4041fc:	f300 8224 	bgt.w	404648 <_svfprintf_r+0xe7c>
  404200:	3408      	adds	r4, #8
  404202:	2300      	movs	r3, #0
  404204:	9814      	ldr	r0, [sp, #80]	; 0x50
  404206:	9915      	ldr	r1, [sp, #84]	; 0x54
  404208:	2200      	movs	r2, #0
  40420a:	f7ff f973 	bl	4034f4 <__aeabi_dcmpeq>
  40420e:	9b13      	ldr	r3, [sp, #76]	; 0x4c
  404210:	2800      	cmp	r0, #0
  404212:	f040 80de 	bne.w	4043d2 <_svfprintf_r+0xc06>
  404216:	9a10      	ldr	r2, [sp, #64]	; 0x40
  404218:	3b01      	subs	r3, #1
  40421a:	3501      	adds	r5, #1
  40421c:	3201      	adds	r2, #1
  40421e:	449b      	add	fp, r3
  404220:	2d07      	cmp	r5, #7
  404222:	9524      	str	r5, [sp, #144]	; 0x90
  404224:	f8cd b094 	str.w	fp, [sp, #148]	; 0x94
  404228:	6022      	str	r2, [r4, #0]
  40422a:	6063      	str	r3, [r4, #4]
  40422c:	f300 810e 	bgt.w	40444c <_svfprintf_r+0xc80>
  404230:	3408      	adds	r4, #8
  404232:	9a19      	ldr	r2, [sp, #100]	; 0x64
  404234:	6062      	str	r2, [r4, #4]
  404236:	3501      	adds	r5, #1
  404238:	4493      	add	fp, r2
  40423a:	ab1f      	add	r3, sp, #124	; 0x7c
  40423c:	2d07      	cmp	r5, #7
  40423e:	f8cd b094 	str.w	fp, [sp, #148]	; 0x94
  404242:	9524      	str	r5, [sp, #144]	; 0x90
  404244:	6023      	str	r3, [r4, #0]
  404246:	f77f acba 	ble.w	403bbe <_svfprintf_r+0x3f2>
  40424a:	9808      	ldr	r0, [sp, #32]
  40424c:	4631      	mov	r1, r6
  40424e:	aa23      	add	r2, sp, #140	; 0x8c
  404250:	f002 ff3e 	bl	4070d0 <__ssprint_r>
  404254:	2800      	cmp	r0, #0
  404256:	f47f ab7f 	bne.w	403958 <_svfprintf_r+0x18c>
  40425a:	f8dd b094 	ldr.w	fp, [sp, #148]	; 0x94
  40425e:	463c      	mov	r4, r7
  404260:	e4ae      	b.n	403bc0 <_svfprintf_r+0x3f4>
  404262:	2b00      	cmp	r3, #0
  404264:	d132      	bne.n	4042cc <_svfprintf_r+0xb00>
  404266:	9b07      	ldr	r3, [sp, #28]
  404268:	07d8      	lsls	r0, r3, #31
  40426a:	d52f      	bpl.n	4042cc <_svfprintf_r+0xb00>
  40426c:	f50d 7b80 	add.w	fp, sp, #256	; 0x100
  404270:	2330      	movs	r3, #48	; 0x30
  404272:	f80b 3d41 	strb.w	r3, [fp, #-65]!
  404276:	ebcb 0307 	rsb	r3, fp, r7
  40427a:	930d      	str	r3, [sp, #52]	; 0x34
  40427c:	f8cd b040 	str.w	fp, [sp, #64]	; 0x40
  404280:	f7ff bbbc 	b.w	4039fc <_svfprintf_r+0x230>
  404284:	9808      	ldr	r0, [sp, #32]
  404286:	4631      	mov	r1, r6
  404288:	aa23      	add	r2, sp, #140	; 0x8c
  40428a:	f002 ff21 	bl	4070d0 <__ssprint_r>
  40428e:	2800      	cmp	r0, #0
  404290:	f47f ab62 	bne.w	403958 <_svfprintf_r+0x18c>
  404294:	f8dd b094 	ldr.w	fp, [sp, #148]	; 0x94
  404298:	463c      	mov	r4, r7
  40429a:	e47f      	b.n	403b9c <_svfprintf_r+0x3d0>
  40429c:	9808      	ldr	r0, [sp, #32]
  40429e:	4631      	mov	r1, r6
  4042a0:	aa23      	add	r2, sp, #140	; 0x8c
  4042a2:	f002 ff15 	bl	4070d0 <__ssprint_r>
  4042a6:	2800      	cmp	r0, #0
  4042a8:	f47f ab56 	bne.w	403958 <_svfprintf_r+0x18c>
  4042ac:	f8dd b094 	ldr.w	fp, [sp, #148]	; 0x94
  4042b0:	463c      	mov	r4, r7
  4042b2:	e41a      	b.n	403aea <_svfprintf_r+0x31e>
  4042b4:	9808      	ldr	r0, [sp, #32]
  4042b6:	4631      	mov	r1, r6
  4042b8:	aa23      	add	r2, sp, #140	; 0x8c
  4042ba:	f002 ff09 	bl	4070d0 <__ssprint_r>
  4042be:	2800      	cmp	r0, #0
  4042c0:	f47f ab4a 	bne.w	403958 <_svfprintf_r+0x18c>
  4042c4:	f8dd b094 	ldr.w	fp, [sp, #148]	; 0x94
  4042c8:	463c      	mov	r4, r7
  4042ca:	e41f      	b.n	403b0c <_svfprintf_r+0x340>
  4042cc:	f8cd a034 	str.w	sl, [sp, #52]	; 0x34
  4042d0:	9710      	str	r7, [sp, #64]	; 0x40
  4042d2:	f7ff bb93 	b.w	4039fc <_svfprintf_r+0x230>
  4042d6:	bf00      	nop
  4042d8:	0041f914 	.word	0x0041f914
  4042dc:	0041f934 	.word	0x0041f934
  4042e0:	0041f950 	.word	0x0041f950
  4042e4:	0041f910 	.word	0x0041f910
  4042e8:	0041f8f0 	.word	0x0041f8f0
  4042ec:	9816      	ldr	r0, [sp, #88]	; 0x58
  4042ee:	46bb      	mov	fp, r7
  4042f0:	ea4f 1318 	mov.w	r3, r8, lsr #4
  4042f4:	f008 010f 	and.w	r1, r8, #15
  4042f8:	ea43 7309 	orr.w	r3, r3, r9, lsl #28
  4042fc:	ea4f 1219 	mov.w	r2, r9, lsr #4
  404300:	4698      	mov	r8, r3
  404302:	4691      	mov	r9, r2
  404304:	5c43      	ldrb	r3, [r0, r1]
  404306:	f80b 3d01 	strb.w	r3, [fp, #-1]!
  40430a:	ea58 0309 	orrs.w	r3, r8, r9
  40430e:	d1ef      	bne.n	4042f0 <_svfprintf_r+0xb24>
  404310:	465b      	mov	r3, fp
  404312:	f8cd b040 	str.w	fp, [sp, #64]	; 0x40
  404316:	1afb      	subs	r3, r7, r3
  404318:	930d      	str	r3, [sp, #52]	; 0x34
  40431a:	f7ff bb6f 	b.w	4039fc <_svfprintf_r+0x230>
  40431e:	9d1d      	ldr	r5, [sp, #116]	; 0x74
  404320:	2d00      	cmp	r5, #0
  404322:	f340 8205 	ble.w	404730 <_svfprintf_r+0xf64>
  404326:	9a13      	ldr	r2, [sp, #76]	; 0x4c
  404328:	9912      	ldr	r1, [sp, #72]	; 0x48
  40432a:	428a      	cmp	r2, r1
  40432c:	4613      	mov	r3, r2
  40432e:	bfa8      	it	ge
  404330:	460b      	movge	r3, r1
  404332:	461d      	mov	r5, r3
  404334:	9910      	ldr	r1, [sp, #64]	; 0x40
  404336:	2d00      	cmp	r5, #0
  404338:	eb01 0a02 	add.w	sl, r1, r2
  40433c:	dd0b      	ble.n	404356 <_svfprintf_r+0xb8a>
  40433e:	9b24      	ldr	r3, [sp, #144]	; 0x90
  404340:	6021      	str	r1, [r4, #0]
  404342:	3301      	adds	r3, #1
  404344:	44ab      	add	fp, r5
  404346:	2b07      	cmp	r3, #7
  404348:	f8cd b094 	str.w	fp, [sp, #148]	; 0x94
  40434c:	6065      	str	r5, [r4, #4]
  40434e:	9324      	str	r3, [sp, #144]	; 0x90
  404350:	f300 834d 	bgt.w	4049ee <_svfprintf_r+0x1222>
  404354:	3408      	adds	r4, #8
  404356:	9b12      	ldr	r3, [sp, #72]	; 0x48
  404358:	2d00      	cmp	r5, #0
  40435a:	bfa8      	it	ge
  40435c:	1b5b      	subge	r3, r3, r5
  40435e:	2b00      	cmp	r3, #0
  404360:	461d      	mov	r5, r3
  404362:	f340 80f5 	ble.w	404550 <_svfprintf_r+0xd84>
  404366:	2d10      	cmp	r5, #16
  404368:	9b24      	ldr	r3, [sp, #144]	; 0x90
  40436a:	f8df 95f4 	ldr.w	r9, [pc, #1524]	; 404960 <_svfprintf_r+0x1194>
  40436e:	f340 81c6 	ble.w	4046fe <_svfprintf_r+0xf32>
  404372:	465a      	mov	r2, fp
  404374:	f04f 0810 	mov.w	r8, #16
  404378:	f8dd b020 	ldr.w	fp, [sp, #32]
  40437c:	e004      	b.n	404388 <_svfprintf_r+0xbbc>
  40437e:	3408      	adds	r4, #8
  404380:	3d10      	subs	r5, #16
  404382:	2d10      	cmp	r5, #16
  404384:	f340 81ba 	ble.w	4046fc <_svfprintf_r+0xf30>
  404388:	3301      	adds	r3, #1
  40438a:	3210      	adds	r2, #16
  40438c:	2b07      	cmp	r3, #7
  40438e:	9225      	str	r2, [sp, #148]	; 0x94
  404390:	9324      	str	r3, [sp, #144]	; 0x90
  404392:	f8c4 9000 	str.w	r9, [r4]
  404396:	f8c4 8004 	str.w	r8, [r4, #4]
  40439a:	ddf0      	ble.n	40437e <_svfprintf_r+0xbb2>
  40439c:	4658      	mov	r0, fp
  40439e:	4631      	mov	r1, r6
  4043a0:	aa23      	add	r2, sp, #140	; 0x8c
  4043a2:	f002 fe95 	bl	4070d0 <__ssprint_r>
  4043a6:	2800      	cmp	r0, #0
  4043a8:	f47f aad6 	bne.w	403958 <_svfprintf_r+0x18c>
  4043ac:	9a25      	ldr	r2, [sp, #148]	; 0x94
  4043ae:	9b24      	ldr	r3, [sp, #144]	; 0x90
  4043b0:	463c      	mov	r4, r7
  4043b2:	e7e5      	b.n	404380 <_svfprintf_r+0xbb4>
  4043b4:	9808      	ldr	r0, [sp, #32]
  4043b6:	4631      	mov	r1, r6
  4043b8:	aa23      	add	r2, sp, #140	; 0x8c
  4043ba:	f002 fe89 	bl	4070d0 <__ssprint_r>
  4043be:	2800      	cmp	r0, #0
  4043c0:	f47f aaca 	bne.w	403958 <_svfprintf_r+0x18c>
  4043c4:	f89d c06f 	ldrb.w	ip, [sp, #111]	; 0x6f
  4043c8:	f8dd b094 	ldr.w	fp, [sp, #148]	; 0x94
  4043cc:	463c      	mov	r4, r7
  4043ce:	f7ff bb79 	b.w	403ac4 <_svfprintf_r+0x2f8>
  4043d2:	f103 38ff 	add.w	r8, r3, #4294967295
  4043d6:	f1b8 0f00 	cmp.w	r8, #0
  4043da:	f77f af2a 	ble.w	404232 <_svfprintf_r+0xa66>
  4043de:	f1b8 0f10 	cmp.w	r8, #16
  4043e2:	f8df 957c 	ldr.w	r9, [pc, #1404]	; 404960 <_svfprintf_r+0x1194>
  4043e6:	dd25      	ble.n	404434 <_svfprintf_r+0xc68>
  4043e8:	465b      	mov	r3, fp
  4043ea:	f04f 0a10 	mov.w	sl, #16
  4043ee:	f8dd b020 	ldr.w	fp, [sp, #32]
  4043f2:	e006      	b.n	404402 <_svfprintf_r+0xc36>
  4043f4:	f1a8 0810 	sub.w	r8, r8, #16
  4043f8:	f1b8 0f10 	cmp.w	r8, #16
  4043fc:	f104 0408 	add.w	r4, r4, #8
  404400:	dd17      	ble.n	404432 <_svfprintf_r+0xc66>
  404402:	3501      	adds	r5, #1
  404404:	3310      	adds	r3, #16
  404406:	2d07      	cmp	r5, #7
  404408:	9325      	str	r3, [sp, #148]	; 0x94
  40440a:	9524      	str	r5, [sp, #144]	; 0x90
  40440c:	e884 0600 	stmia.w	r4, {r9, sl}
  404410:	ddf0      	ble.n	4043f4 <_svfprintf_r+0xc28>
  404412:	4658      	mov	r0, fp
  404414:	4631      	mov	r1, r6
  404416:	aa23      	add	r2, sp, #140	; 0x8c
  404418:	f002 fe5a 	bl	4070d0 <__ssprint_r>
  40441c:	2800      	cmp	r0, #0
  40441e:	f47f aa9b 	bne.w	403958 <_svfprintf_r+0x18c>
  404422:	f1a8 0810 	sub.w	r8, r8, #16
  404426:	f1b8 0f10 	cmp.w	r8, #16
  40442a:	9b25      	ldr	r3, [sp, #148]	; 0x94
  40442c:	9d24      	ldr	r5, [sp, #144]	; 0x90
  40442e:	463c      	mov	r4, r7
  404430:	dce7      	bgt.n	404402 <_svfprintf_r+0xc36>
  404432:	469b      	mov	fp, r3
  404434:	3501      	adds	r5, #1
  404436:	44c3      	add	fp, r8
  404438:	2d07      	cmp	r5, #7
  40443a:	f8cd b094 	str.w	fp, [sp, #148]	; 0x94
  40443e:	9524      	str	r5, [sp, #144]	; 0x90
  404440:	f8c4 9000 	str.w	r9, [r4]
  404444:	f8c4 8004 	str.w	r8, [r4, #4]
  404448:	f77f aef2 	ble.w	404230 <_svfprintf_r+0xa64>
  40444c:	9808      	ldr	r0, [sp, #32]
  40444e:	4631      	mov	r1, r6
  404450:	aa23      	add	r2, sp, #140	; 0x8c
  404452:	f002 fe3d 	bl	4070d0 <__ssprint_r>
  404456:	2800      	cmp	r0, #0
  404458:	f47f aa7e 	bne.w	403958 <_svfprintf_r+0x18c>
  40445c:	f8dd b094 	ldr.w	fp, [sp, #148]	; 0x94
  404460:	9d24      	ldr	r5, [sp, #144]	; 0x90
  404462:	463c      	mov	r4, r7
  404464:	e6e5      	b.n	404232 <_svfprintf_r+0xa66>
  404466:	4693      	mov	fp, r2
  404468:	3301      	adds	r3, #1
  40446a:	44ab      	add	fp, r5
  40446c:	2b07      	cmp	r3, #7
  40446e:	f8cd b094 	str.w	fp, [sp, #148]	; 0x94
  404472:	9324      	str	r3, [sp, #144]	; 0x90
  404474:	f8c4 9000 	str.w	r9, [r4]
  404478:	6065      	str	r5, [r4, #4]
  40447a:	f77f aba0 	ble.w	403bbe <_svfprintf_r+0x3f2>
  40447e:	e6e4      	b.n	40424a <_svfprintf_r+0xa7e>
  404480:	2b30      	cmp	r3, #48	; 0x30
  404482:	9b10      	ldr	r3, [sp, #64]	; 0x40
  404484:	f43f af47 	beq.w	404316 <_svfprintf_r+0xb4a>
  404488:	3b01      	subs	r3, #1
  40448a:	461a      	mov	r2, r3
  40448c:	9310      	str	r3, [sp, #64]	; 0x40
  40448e:	1aba      	subs	r2, r7, r2
  404490:	2330      	movs	r3, #48	; 0x30
  404492:	920d      	str	r2, [sp, #52]	; 0x34
  404494:	f801 3c01 	strb.w	r3, [r1, #-1]
  404498:	f7ff bab0 	b.w	4039fc <_svfprintf_r+0x230>
  40449c:	46bb      	mov	fp, r7
  40449e:	f8cd c024 	str.w	ip, [sp, #36]	; 0x24
  4044a2:	4640      	mov	r0, r8
  4044a4:	4649      	mov	r1, r9
  4044a6:	220a      	movs	r2, #10
  4044a8:	2300      	movs	r3, #0
  4044aa:	f002 ff15 	bl	4072d8 <__aeabi_uldivmod>
  4044ae:	3230      	adds	r2, #48	; 0x30
  4044b0:	4640      	mov	r0, r8
  4044b2:	4649      	mov	r1, r9
  4044b4:	f80b 2d01 	strb.w	r2, [fp, #-1]!
  4044b8:	2300      	movs	r3, #0
  4044ba:	220a      	movs	r2, #10
  4044bc:	f002 ff0c 	bl	4072d8 <__aeabi_uldivmod>
  4044c0:	4680      	mov	r8, r0
  4044c2:	4689      	mov	r9, r1
  4044c4:	ea58 0309 	orrs.w	r3, r8, r9
  4044c8:	d1eb      	bne.n	4044a2 <_svfprintf_r+0xcd6>
  4044ca:	465b      	mov	r3, fp
  4044cc:	1afb      	subs	r3, r7, r3
  4044ce:	f8dd c024 	ldr.w	ip, [sp, #36]	; 0x24
  4044d2:	f8cd b040 	str.w	fp, [sp, #64]	; 0x40
  4044d6:	930d      	str	r3, [sp, #52]	; 0x34
  4044d8:	f7ff ba90 	b.w	4039fc <_svfprintf_r+0x230>
  4044dc:	990e      	ldr	r1, [sp, #56]	; 0x38
  4044de:	680a      	ldr	r2, [r1, #0]
  4044e0:	3104      	adds	r1, #4
  4044e2:	910e      	str	r1, [sp, #56]	; 0x38
  4044e4:	4690      	mov	r8, r2
  4044e6:	f04f 0900 	mov.w	r9, #0
  4044ea:	f7ff ba54 	b.w	403996 <_svfprintf_r+0x1ca>
  4044ee:	990e      	ldr	r1, [sp, #56]	; 0x38
  4044f0:	680a      	ldr	r2, [r1, #0]
  4044f2:	3104      	adds	r1, #4
  4044f4:	2301      	movs	r3, #1
  4044f6:	910e      	str	r1, [sp, #56]	; 0x38
  4044f8:	4690      	mov	r8, r2
  4044fa:	f04f 0900 	mov.w	r9, #0
  4044fe:	f7ff ba4a 	b.w	403996 <_svfprintf_r+0x1ca>
  404502:	9a0e      	ldr	r2, [sp, #56]	; 0x38
  404504:	6813      	ldr	r3, [r2, #0]
  404506:	4698      	mov	r8, r3
  404508:	ea4f 79e3 	mov.w	r9, r3, asr #31
  40450c:	4613      	mov	r3, r2
  40450e:	3304      	adds	r3, #4
  404510:	4642      	mov	r2, r8
  404512:	930e      	str	r3, [sp, #56]	; 0x38
  404514:	2a00      	cmp	r2, #0
  404516:	464b      	mov	r3, r9
  404518:	f173 0300 	sbcs.w	r3, r3, #0
  40451c:	f6bf abf5 	bge.w	403d0a <_svfprintf_r+0x53e>
  404520:	f04f 0c2d 	mov.w	ip, #45	; 0x2d
  404524:	f1d8 0800 	rsbs	r8, r8, #0
  404528:	eb69 0949 	sbc.w	r9, r9, r9, lsl #1
  40452c:	f88d c06f 	strb.w	ip, [sp, #111]	; 0x6f
  404530:	f8cd a044 	str.w	sl, [sp, #68]	; 0x44
  404534:	2301      	movs	r3, #1
  404536:	f7ff ba34 	b.w	4039a2 <_svfprintf_r+0x1d6>
  40453a:	9808      	ldr	r0, [sp, #32]
  40453c:	4631      	mov	r1, r6
  40453e:	aa23      	add	r2, sp, #140	; 0x8c
  404540:	f002 fdc6 	bl	4070d0 <__ssprint_r>
  404544:	2800      	cmp	r0, #0
  404546:	f47f aa07 	bne.w	403958 <_svfprintf_r+0x18c>
  40454a:	f8dd b094 	ldr.w	fp, [sp, #148]	; 0x94
  40454e:	463c      	mov	r4, r7
  404550:	9a10      	ldr	r2, [sp, #64]	; 0x40
  404552:	9912      	ldr	r1, [sp, #72]	; 0x48
  404554:	9b1d      	ldr	r3, [sp, #116]	; 0x74
  404556:	440a      	add	r2, r1
  404558:	4690      	mov	r8, r2
  40455a:	9a13      	ldr	r2, [sp, #76]	; 0x4c
  40455c:	4293      	cmp	r3, r2
  40455e:	db46      	blt.n	4045ee <_svfprintf_r+0xe22>
  404560:	9a07      	ldr	r2, [sp, #28]
  404562:	07d0      	lsls	r0, r2, #31
  404564:	d443      	bmi.n	4045ee <_svfprintf_r+0xe22>
  404566:	9a13      	ldr	r2, [sp, #76]	; 0x4c
  404568:	ebc8 050a 	rsb	r5, r8, sl
  40456c:	1ad3      	subs	r3, r2, r3
  40456e:	429d      	cmp	r5, r3
  404570:	bfa8      	it	ge
  404572:	461d      	movge	r5, r3
  404574:	2d00      	cmp	r5, #0
  404576:	dd0c      	ble.n	404592 <_svfprintf_r+0xdc6>
  404578:	9a24      	ldr	r2, [sp, #144]	; 0x90
  40457a:	f8c4 8000 	str.w	r8, [r4]
  40457e:	3201      	adds	r2, #1
  404580:	44ab      	add	fp, r5
  404582:	2a07      	cmp	r2, #7
  404584:	f8cd b094 	str.w	fp, [sp, #148]	; 0x94
  404588:	6065      	str	r5, [r4, #4]
  40458a:	9224      	str	r2, [sp, #144]	; 0x90
  40458c:	f300 8267 	bgt.w	404a5e <_svfprintf_r+0x1292>
  404590:	3408      	adds	r4, #8
  404592:	2d00      	cmp	r5, #0
  404594:	bfac      	ite	ge
  404596:	1b5d      	subge	r5, r3, r5
  404598:	461d      	movlt	r5, r3
  40459a:	2d00      	cmp	r5, #0
  40459c:	f77f ab10 	ble.w	403bc0 <_svfprintf_r+0x3f4>
  4045a0:	2d10      	cmp	r5, #16
  4045a2:	9b24      	ldr	r3, [sp, #144]	; 0x90
  4045a4:	f8df 93b8 	ldr.w	r9, [pc, #952]	; 404960 <_svfprintf_r+0x1194>
  4045a8:	f77f af5e 	ble.w	404468 <_svfprintf_r+0xc9c>
  4045ac:	f04f 0810 	mov.w	r8, #16
  4045b0:	465a      	mov	r2, fp
  4045b2:	f8dd a020 	ldr.w	sl, [sp, #32]
  4045b6:	e004      	b.n	4045c2 <_svfprintf_r+0xdf6>
  4045b8:	3408      	adds	r4, #8
  4045ba:	3d10      	subs	r5, #16
  4045bc:	2d10      	cmp	r5, #16
  4045be:	f77f af52 	ble.w	404466 <_svfprintf_r+0xc9a>
  4045c2:	3301      	adds	r3, #1
  4045c4:	3210      	adds	r2, #16
  4045c6:	2b07      	cmp	r3, #7
  4045c8:	9225      	str	r2, [sp, #148]	; 0x94
  4045ca:	9324      	str	r3, [sp, #144]	; 0x90
  4045cc:	f8c4 9000 	str.w	r9, [r4]
  4045d0:	f8c4 8004 	str.w	r8, [r4, #4]
  4045d4:	ddf0      	ble.n	4045b8 <_svfprintf_r+0xdec>
  4045d6:	4650      	mov	r0, sl
  4045d8:	4631      	mov	r1, r6
  4045da:	aa23      	add	r2, sp, #140	; 0x8c
  4045dc:	f002 fd78 	bl	4070d0 <__ssprint_r>
  4045e0:	2800      	cmp	r0, #0
  4045e2:	f47f a9b9 	bne.w	403958 <_svfprintf_r+0x18c>
  4045e6:	9a25      	ldr	r2, [sp, #148]	; 0x94
  4045e8:	9b24      	ldr	r3, [sp, #144]	; 0x90
  4045ea:	463c      	mov	r4, r7
  4045ec:	e7e5      	b.n	4045ba <_svfprintf_r+0xdee>
  4045ee:	9a24      	ldr	r2, [sp, #144]	; 0x90
  4045f0:	9818      	ldr	r0, [sp, #96]	; 0x60
  4045f2:	9917      	ldr	r1, [sp, #92]	; 0x5c
  4045f4:	6021      	str	r1, [r4, #0]
  4045f6:	3201      	adds	r2, #1
  4045f8:	4483      	add	fp, r0
  4045fa:	2a07      	cmp	r2, #7
  4045fc:	f8cd b094 	str.w	fp, [sp, #148]	; 0x94
  404600:	6060      	str	r0, [r4, #4]
  404602:	9224      	str	r2, [sp, #144]	; 0x90
  404604:	f300 820a 	bgt.w	404a1c <_svfprintf_r+0x1250>
  404608:	3408      	adds	r4, #8
  40460a:	e7ac      	b.n	404566 <_svfprintf_r+0xd9a>
  40460c:	9b07      	ldr	r3, [sp, #28]
  40460e:	07d9      	lsls	r1, r3, #31
  404610:	f53f addc 	bmi.w	4041cc <_svfprintf_r+0xa00>
  404614:	9b10      	ldr	r3, [sp, #64]	; 0x40
  404616:	6023      	str	r3, [r4, #0]
  404618:	3501      	adds	r5, #1
  40461a:	f10b 0b01 	add.w	fp, fp, #1
  40461e:	2301      	movs	r3, #1
  404620:	2d07      	cmp	r5, #7
  404622:	f8cd b094 	str.w	fp, [sp, #148]	; 0x94
  404626:	9524      	str	r5, [sp, #144]	; 0x90
  404628:	6063      	str	r3, [r4, #4]
  40462a:	f77f ae01 	ble.w	404230 <_svfprintf_r+0xa64>
  40462e:	e70d      	b.n	40444c <_svfprintf_r+0xc80>
  404630:	9808      	ldr	r0, [sp, #32]
  404632:	4631      	mov	r1, r6
  404634:	aa23      	add	r2, sp, #140	; 0x8c
  404636:	f002 fd4b 	bl	4070d0 <__ssprint_r>
  40463a:	2800      	cmp	r0, #0
  40463c:	f47f a98c 	bne.w	403958 <_svfprintf_r+0x18c>
  404640:	9b25      	ldr	r3, [sp, #148]	; 0x94
  404642:	9d24      	ldr	r5, [sp, #144]	; 0x90
  404644:	463c      	mov	r4, r7
  404646:	e5ce      	b.n	4041e6 <_svfprintf_r+0xa1a>
  404648:	9808      	ldr	r0, [sp, #32]
  40464a:	4631      	mov	r1, r6
  40464c:	aa23      	add	r2, sp, #140	; 0x8c
  40464e:	f002 fd3f 	bl	4070d0 <__ssprint_r>
  404652:	2800      	cmp	r0, #0
  404654:	f47f a980 	bne.w	403958 <_svfprintf_r+0x18c>
  404658:	f8dd b094 	ldr.w	fp, [sp, #148]	; 0x94
  40465c:	9d24      	ldr	r5, [sp, #144]	; 0x90
  40465e:	463c      	mov	r4, r7
  404660:	e5cf      	b.n	404202 <_svfprintf_r+0xa36>
  404662:	9808      	ldr	r0, [sp, #32]
  404664:	4631      	mov	r1, r6
  404666:	aa23      	add	r2, sp, #140	; 0x8c
  404668:	f002 fd32 	bl	4070d0 <__ssprint_r>
  40466c:	2800      	cmp	r0, #0
  40466e:	f47f a973 	bne.w	403958 <_svfprintf_r+0x18c>
  404672:	f8dd b094 	ldr.w	fp, [sp, #148]	; 0x94
  404676:	463c      	mov	r4, r7
  404678:	f7ff ba4c 	b.w	403b14 <_svfprintf_r+0x348>
  40467c:	f002 fcea 	bl	407054 <__fpclassifyd>
  404680:	2800      	cmp	r0, #0
  404682:	f040 80c7 	bne.w	404814 <_svfprintf_r+0x1048>
  404686:	4686      	mov	lr, r0
  404688:	4ab2      	ldr	r2, [pc, #712]	; (404954 <_svfprintf_r+0x1188>)
  40468a:	4bb3      	ldr	r3, [pc, #716]	; (404958 <_svfprintf_r+0x118c>)
  40468c:	9011      	str	r0, [sp, #68]	; 0x44
  40468e:	9807      	ldr	r0, [sp, #28]
  404690:	f89d c06f 	ldrb.w	ip, [sp, #111]	; 0x6f
  404694:	f8cd e048 	str.w	lr, [sp, #72]	; 0x48
  404698:	2103      	movs	r1, #3
  40469a:	f020 0080 	bic.w	r0, r0, #128	; 0x80
  40469e:	2d47      	cmp	r5, #71	; 0x47
  4046a0:	bfd8      	it	le
  4046a2:	461a      	movle	r2, r3
  4046a4:	9109      	str	r1, [sp, #36]	; 0x24
  4046a6:	9007      	str	r0, [sp, #28]
  4046a8:	9210      	str	r2, [sp, #64]	; 0x40
  4046aa:	910d      	str	r1, [sp, #52]	; 0x34
  4046ac:	f7ff b9ae 	b.w	403a0c <_svfprintf_r+0x240>
  4046b0:	9b07      	ldr	r3, [sp, #28]
  4046b2:	9a0e      	ldr	r2, [sp, #56]	; 0x38
  4046b4:	f013 0f40 	tst.w	r3, #64	; 0x40
  4046b8:	4613      	mov	r3, r2
  4046ba:	f43f ac2e 	beq.w	403f1a <_svfprintf_r+0x74e>
  4046be:	3304      	adds	r3, #4
  4046c0:	f8b2 8000 	ldrh.w	r8, [r2]
  4046c4:	930e      	str	r3, [sp, #56]	; 0x38
  4046c6:	f04f 0900 	mov.w	r9, #0
  4046ca:	f7ff bb37 	b.w	403d3c <_svfprintf_r+0x570>
  4046ce:	9b07      	ldr	r3, [sp, #28]
  4046d0:	06db      	lsls	r3, r3, #27
  4046d2:	d40b      	bmi.n	4046ec <_svfprintf_r+0xf20>
  4046d4:	9b07      	ldr	r3, [sp, #28]
  4046d6:	065d      	lsls	r5, r3, #25
  4046d8:	d508      	bpl.n	4046ec <_svfprintf_r+0xf20>
  4046da:	9a0e      	ldr	r2, [sp, #56]	; 0x38
  4046dc:	6813      	ldr	r3, [r2, #0]
  4046de:	3204      	adds	r2, #4
  4046e0:	920e      	str	r2, [sp, #56]	; 0x38
  4046e2:	f8bd 202c 	ldrh.w	r2, [sp, #44]	; 0x2c
  4046e6:	801a      	strh	r2, [r3, #0]
  4046e8:	f7ff b895 	b.w	403816 <_svfprintf_r+0x4a>
  4046ec:	9a0e      	ldr	r2, [sp, #56]	; 0x38
  4046ee:	6813      	ldr	r3, [r2, #0]
  4046f0:	3204      	adds	r2, #4
  4046f2:	920e      	str	r2, [sp, #56]	; 0x38
  4046f4:	9a0b      	ldr	r2, [sp, #44]	; 0x2c
  4046f6:	601a      	str	r2, [r3, #0]
  4046f8:	f7ff b88d 	b.w	403816 <_svfprintf_r+0x4a>
  4046fc:	4693      	mov	fp, r2
  4046fe:	3301      	adds	r3, #1
  404700:	44ab      	add	fp, r5
  404702:	2b07      	cmp	r3, #7
  404704:	f8cd b094 	str.w	fp, [sp, #148]	; 0x94
  404708:	9324      	str	r3, [sp, #144]	; 0x90
  40470a:	f8c4 9000 	str.w	r9, [r4]
  40470e:	6065      	str	r5, [r4, #4]
  404710:	f73f af13 	bgt.w	40453a <_svfprintf_r+0xd6e>
  404714:	3408      	adds	r4, #8
  404716:	e71b      	b.n	404550 <_svfprintf_r+0xd84>
  404718:	9808      	ldr	r0, [sp, #32]
  40471a:	4631      	mov	r1, r6
  40471c:	aa23      	add	r2, sp, #140	; 0x8c
  40471e:	f002 fcd7 	bl	4070d0 <__ssprint_r>
  404722:	2800      	cmp	r0, #0
  404724:	f47f a918 	bne.w	403958 <_svfprintf_r+0x18c>
  404728:	f8dd b094 	ldr.w	fp, [sp, #148]	; 0x94
  40472c:	463c      	mov	r4, r7
  40472e:	e4c0      	b.n	4040b2 <_svfprintf_r+0x8e6>
  404730:	9b24      	ldr	r3, [sp, #144]	; 0x90
  404732:	4a8a      	ldr	r2, [pc, #552]	; (40495c <_svfprintf_r+0x1190>)
  404734:	6022      	str	r2, [r4, #0]
  404736:	3301      	adds	r3, #1
  404738:	f10b 0b01 	add.w	fp, fp, #1
  40473c:	2201      	movs	r2, #1
  40473e:	2b07      	cmp	r3, #7
  404740:	f8cd b094 	str.w	fp, [sp, #148]	; 0x94
  404744:	9324      	str	r3, [sp, #144]	; 0x90
  404746:	6062      	str	r2, [r4, #4]
  404748:	f300 80f4 	bgt.w	404934 <_svfprintf_r+0x1168>
  40474c:	3408      	adds	r4, #8
  40474e:	b92d      	cbnz	r5, 40475c <_svfprintf_r+0xf90>
  404750:	9b13      	ldr	r3, [sp, #76]	; 0x4c
  404752:	b91b      	cbnz	r3, 40475c <_svfprintf_r+0xf90>
  404754:	9b07      	ldr	r3, [sp, #28]
  404756:	07db      	lsls	r3, r3, #31
  404758:	f57f aa32 	bpl.w	403bc0 <_svfprintf_r+0x3f4>
  40475c:	9b24      	ldr	r3, [sp, #144]	; 0x90
  40475e:	9818      	ldr	r0, [sp, #96]	; 0x60
  404760:	9a17      	ldr	r2, [sp, #92]	; 0x5c
  404762:	6022      	str	r2, [r4, #0]
  404764:	3301      	adds	r3, #1
  404766:	eb0b 0100 	add.w	r1, fp, r0
  40476a:	2b07      	cmp	r3, #7
  40476c:	9125      	str	r1, [sp, #148]	; 0x94
  40476e:	6060      	str	r0, [r4, #4]
  404770:	9324      	str	r3, [sp, #144]	; 0x90
  404772:	f300 81f3 	bgt.w	404b5c <_svfprintf_r+0x1390>
  404776:	f104 0208 	add.w	r2, r4, #8
  40477a:	426d      	negs	r5, r5
  40477c:	2d00      	cmp	r5, #0
  40477e:	f340 80fc 	ble.w	40497a <_svfprintf_r+0x11ae>
  404782:	2d10      	cmp	r5, #16
  404784:	f8df 91d8 	ldr.w	r9, [pc, #472]	; 404960 <_svfprintf_r+0x1194>
  404788:	f340 813d 	ble.w	404a06 <_svfprintf_r+0x123a>
  40478c:	2410      	movs	r4, #16
  40478e:	f8dd 8020 	ldr.w	r8, [sp, #32]
  404792:	e004      	b.n	40479e <_svfprintf_r+0xfd2>
  404794:	3208      	adds	r2, #8
  404796:	3d10      	subs	r5, #16
  404798:	2d10      	cmp	r5, #16
  40479a:	f340 8134 	ble.w	404a06 <_svfprintf_r+0x123a>
  40479e:	3301      	adds	r3, #1
  4047a0:	3110      	adds	r1, #16
  4047a2:	2b07      	cmp	r3, #7
  4047a4:	9125      	str	r1, [sp, #148]	; 0x94
  4047a6:	9324      	str	r3, [sp, #144]	; 0x90
  4047a8:	f8c2 9000 	str.w	r9, [r2]
  4047ac:	6054      	str	r4, [r2, #4]
  4047ae:	ddf1      	ble.n	404794 <_svfprintf_r+0xfc8>
  4047b0:	4640      	mov	r0, r8
  4047b2:	4631      	mov	r1, r6
  4047b4:	aa23      	add	r2, sp, #140	; 0x8c
  4047b6:	f002 fc8b 	bl	4070d0 <__ssprint_r>
  4047ba:	2800      	cmp	r0, #0
  4047bc:	f47f a8cc 	bne.w	403958 <_svfprintf_r+0x18c>
  4047c0:	9925      	ldr	r1, [sp, #148]	; 0x94
  4047c2:	9b24      	ldr	r3, [sp, #144]	; 0x90
  4047c4:	463a      	mov	r2, r7
  4047c6:	e7e6      	b.n	404796 <_svfprintf_r+0xfca>
  4047c8:	9b25      	ldr	r3, [sp, #148]	; 0x94
  4047ca:	46b1      	mov	r9, r6
  4047cc:	2b00      	cmp	r3, #0
  4047ce:	f43f a8c4 	beq.w	40395a <_svfprintf_r+0x18e>
  4047d2:	9808      	ldr	r0, [sp, #32]
  4047d4:	4631      	mov	r1, r6
  4047d6:	aa23      	add	r2, sp, #140	; 0x8c
  4047d8:	f002 fc7a 	bl	4070d0 <__ssprint_r>
  4047dc:	f7ff b8bd 	b.w	40395a <_svfprintf_r+0x18e>
  4047e0:	980c      	ldr	r0, [sp, #48]	; 0x30
  4047e2:	910e      	str	r1, [sp, #56]	; 0x38
  4047e4:	4240      	negs	r0, r0
  4047e6:	900c      	str	r0, [sp, #48]	; 0x30
  4047e8:	4619      	mov	r1, r3
  4047ea:	f7ff ba3f 	b.w	403c6c <_svfprintf_r+0x4a0>
  4047ee:	f041 0120 	orr.w	r1, r1, #32
  4047f2:	9107      	str	r1, [sp, #28]
  4047f4:	785d      	ldrb	r5, [r3, #1]
  4047f6:	1c59      	adds	r1, r3, #1
  4047f8:	f7ff b83b 	b.w	403872 <_svfprintf_r+0xa6>
  4047fc:	9808      	ldr	r0, [sp, #32]
  4047fe:	4631      	mov	r1, r6
  404800:	aa23      	add	r2, sp, #140	; 0x8c
  404802:	f002 fc65 	bl	4070d0 <__ssprint_r>
  404806:	2800      	cmp	r0, #0
  404808:	f47f a8a6 	bne.w	403958 <_svfprintf_r+0x18c>
  40480c:	f8dd b094 	ldr.w	fp, [sp, #148]	; 0x94
  404810:	463c      	mov	r4, r7
  404812:	e464      	b.n	4040de <_svfprintf_r+0x912>
  404814:	f025 0320 	bic.w	r3, r5, #32
  404818:	f1ba 3fff 	cmp.w	sl, #4294967295
  40481c:	930d      	str	r3, [sp, #52]	; 0x34
  40481e:	f000 8096 	beq.w	40494e <_svfprintf_r+0x1182>
  404822:	2b47      	cmp	r3, #71	; 0x47
  404824:	d105      	bne.n	404832 <_svfprintf_r+0x1066>
  404826:	f1ba 0f00 	cmp.w	sl, #0
  40482a:	bf14      	ite	ne
  40482c:	46d3      	movne	fp, sl
  40482e:	f04f 0b01 	moveq.w	fp, #1
  404832:	9b07      	ldr	r3, [sp, #28]
  404834:	f443 7380 	orr.w	r3, r3, #256	; 0x100
  404838:	9311      	str	r3, [sp, #68]	; 0x44
  40483a:	9b15      	ldr	r3, [sp, #84]	; 0x54
  40483c:	f1b3 0a00 	subs.w	sl, r3, #0
  404840:	9b14      	ldr	r3, [sp, #80]	; 0x50
  404842:	9309      	str	r3, [sp, #36]	; 0x24
  404844:	bfbb      	ittet	lt
  404846:	4653      	movlt	r3, sl
  404848:	f103 4a00 	addlt.w	sl, r3, #2147483648	; 0x80000000
  40484c:	2300      	movge	r3, #0
  40484e:	232d      	movlt	r3, #45	; 0x2d
  404850:	2d66      	cmp	r5, #102	; 0x66
  404852:	930f      	str	r3, [sp, #60]	; 0x3c
  404854:	f000 80ac 	beq.w	4049b0 <_svfprintf_r+0x11e4>
  404858:	2d46      	cmp	r5, #70	; 0x46
  40485a:	f000 80a9 	beq.w	4049b0 <_svfprintf_r+0x11e4>
  40485e:	9b0d      	ldr	r3, [sp, #52]	; 0x34
  404860:	9a09      	ldr	r2, [sp, #36]	; 0x24
  404862:	2b45      	cmp	r3, #69	; 0x45
  404864:	bf0c      	ite	eq
  404866:	f10b 0901 	addeq.w	r9, fp, #1
  40486a:	46d9      	movne	r9, fp
  40486c:	2002      	movs	r0, #2
  40486e:	a91d      	add	r1, sp, #116	; 0x74
  404870:	e88d 0201 	stmia.w	sp, {r0, r9}
  404874:	9102      	str	r1, [sp, #8]
  404876:	a81e      	add	r0, sp, #120	; 0x78
  404878:	a921      	add	r1, sp, #132	; 0x84
  40487a:	9003      	str	r0, [sp, #12]
  40487c:	4653      	mov	r3, sl
  40487e:	9104      	str	r1, [sp, #16]
  404880:	9808      	ldr	r0, [sp, #32]
  404882:	f000 fa95 	bl	404db0 <_dtoa_r>
  404886:	2d67      	cmp	r5, #103	; 0x67
  404888:	9010      	str	r0, [sp, #64]	; 0x40
  40488a:	d002      	beq.n	404892 <_svfprintf_r+0x10c6>
  40488c:	2d47      	cmp	r5, #71	; 0x47
  40488e:	f040 809f 	bne.w	4049d0 <_svfprintf_r+0x1204>
  404892:	9b07      	ldr	r3, [sp, #28]
  404894:	07db      	lsls	r3, r3, #31
  404896:	f140 8189 	bpl.w	404bac <_svfprintf_r+0x13e0>
  40489a:	9b10      	ldr	r3, [sp, #64]	; 0x40
  40489c:	eb03 0809 	add.w	r8, r3, r9
  4048a0:	9809      	ldr	r0, [sp, #36]	; 0x24
  4048a2:	4651      	mov	r1, sl
  4048a4:	2200      	movs	r2, #0
  4048a6:	2300      	movs	r3, #0
  4048a8:	f7fe fe24 	bl	4034f4 <__aeabi_dcmpeq>
  4048ac:	2800      	cmp	r0, #0
  4048ae:	f040 80fd 	bne.w	404aac <_svfprintf_r+0x12e0>
  4048b2:	9b21      	ldr	r3, [sp, #132]	; 0x84
  4048b4:	4598      	cmp	r8, r3
  4048b6:	d906      	bls.n	4048c6 <_svfprintf_r+0x10fa>
  4048b8:	2130      	movs	r1, #48	; 0x30
  4048ba:	1c5a      	adds	r2, r3, #1
  4048bc:	9221      	str	r2, [sp, #132]	; 0x84
  4048be:	7019      	strb	r1, [r3, #0]
  4048c0:	9b21      	ldr	r3, [sp, #132]	; 0x84
  4048c2:	4598      	cmp	r8, r3
  4048c4:	d8f9      	bhi.n	4048ba <_svfprintf_r+0x10ee>
  4048c6:	9a10      	ldr	r2, [sp, #64]	; 0x40
  4048c8:	1a9b      	subs	r3, r3, r2
  4048ca:	9313      	str	r3, [sp, #76]	; 0x4c
  4048cc:	9b0d      	ldr	r3, [sp, #52]	; 0x34
  4048ce:	2b47      	cmp	r3, #71	; 0x47
  4048d0:	9b1d      	ldr	r3, [sp, #116]	; 0x74
  4048d2:	f000 80de 	beq.w	404a92 <_svfprintf_r+0x12c6>
  4048d6:	2d65      	cmp	r5, #101	; 0x65
  4048d8:	f340 80f8 	ble.w	404acc <_svfprintf_r+0x1300>
  4048dc:	2d66      	cmp	r5, #102	; 0x66
  4048de:	9312      	str	r3, [sp, #72]	; 0x48
  4048e0:	f000 8157 	beq.w	404b92 <_svfprintf_r+0x13c6>
  4048e4:	9b13      	ldr	r3, [sp, #76]	; 0x4c
  4048e6:	9a12      	ldr	r2, [sp, #72]	; 0x48
  4048e8:	4293      	cmp	r3, r2
  4048ea:	f300 8144 	bgt.w	404b76 <_svfprintf_r+0x13aa>
  4048ee:	9b07      	ldr	r3, [sp, #28]
  4048f0:	07d9      	lsls	r1, r3, #31
  4048f2:	f100 8173 	bmi.w	404bdc <_svfprintf_r+0x1410>
  4048f6:	ea22 73e2 	bic.w	r3, r2, r2, asr #31
  4048fa:	920d      	str	r2, [sp, #52]	; 0x34
  4048fc:	9a0f      	ldr	r2, [sp, #60]	; 0x3c
  4048fe:	2a00      	cmp	r2, #0
  404900:	f040 80bc 	bne.w	404a7c <_svfprintf_r+0x12b0>
  404904:	9309      	str	r3, [sp, #36]	; 0x24
  404906:	9b11      	ldr	r3, [sp, #68]	; 0x44
  404908:	9307      	str	r3, [sp, #28]
  40490a:	9211      	str	r2, [sp, #68]	; 0x44
  40490c:	f89d c06f 	ldrb.w	ip, [sp, #111]	; 0x6f
  404910:	f7ff b87c 	b.w	403a0c <_svfprintf_r+0x240>
  404914:	9808      	ldr	r0, [sp, #32]
  404916:	2140      	movs	r1, #64	; 0x40
  404918:	f001 fad4 	bl	405ec4 <_malloc_r>
  40491c:	f8c9 0000 	str.w	r0, [r9]
  404920:	f8c9 0010 	str.w	r0, [r9, #16]
  404924:	2800      	cmp	r0, #0
  404926:	f000 818c 	beq.w	404c42 <_svfprintf_r+0x1476>
  40492a:	2340      	movs	r3, #64	; 0x40
  40492c:	f8c9 3014 	str.w	r3, [r9, #20]
  404930:	f7fe bf64 	b.w	4037fc <_svfprintf_r+0x30>
  404934:	9808      	ldr	r0, [sp, #32]
  404936:	4631      	mov	r1, r6
  404938:	aa23      	add	r2, sp, #140	; 0x8c
  40493a:	f002 fbc9 	bl	4070d0 <__ssprint_r>
  40493e:	2800      	cmp	r0, #0
  404940:	f47f a80a 	bne.w	403958 <_svfprintf_r+0x18c>
  404944:	9d1d      	ldr	r5, [sp, #116]	; 0x74
  404946:	f8dd b094 	ldr.w	fp, [sp, #148]	; 0x94
  40494a:	463c      	mov	r4, r7
  40494c:	e6ff      	b.n	40474e <_svfprintf_r+0xf82>
  40494e:	f04f 0b06 	mov.w	fp, #6
  404952:	e76e      	b.n	404832 <_svfprintf_r+0x1066>
  404954:	0041f91c 	.word	0x0041f91c
  404958:	0041f918 	.word	0x0041f918
  40495c:	0041f950 	.word	0x0041f950
  404960:	0041f8f0 	.word	0x0041f8f0
  404964:	9808      	ldr	r0, [sp, #32]
  404966:	4631      	mov	r1, r6
  404968:	aa23      	add	r2, sp, #140	; 0x8c
  40496a:	f002 fbb1 	bl	4070d0 <__ssprint_r>
  40496e:	2800      	cmp	r0, #0
  404970:	f47e aff2 	bne.w	403958 <_svfprintf_r+0x18c>
  404974:	9925      	ldr	r1, [sp, #148]	; 0x94
  404976:	9b24      	ldr	r3, [sp, #144]	; 0x90
  404978:	463a      	mov	r2, r7
  40497a:	9c13      	ldr	r4, [sp, #76]	; 0x4c
  40497c:	6054      	str	r4, [r2, #4]
  40497e:	3301      	adds	r3, #1
  404980:	eb01 0b04 	add.w	fp, r1, r4
  404984:	2b07      	cmp	r3, #7
  404986:	9910      	ldr	r1, [sp, #64]	; 0x40
  404988:	f8cd b094 	str.w	fp, [sp, #148]	; 0x94
  40498c:	9324      	str	r3, [sp, #144]	; 0x90
  40498e:	6011      	str	r1, [r2, #0]
  404990:	f73f ac5b 	bgt.w	40424a <_svfprintf_r+0xa7e>
  404994:	f102 0408 	add.w	r4, r2, #8
  404998:	f7ff b912 	b.w	403bc0 <_svfprintf_r+0x3f4>
  40499c:	f8cd b044 	str.w	fp, [sp, #68]	; 0x44
  4049a0:	f7fe fee6 	bl	403770 <strlen>
  4049a4:	f8cd 9038 	str.w	r9, [sp, #56]	; 0x38
  4049a8:	900d      	str	r0, [sp, #52]	; 0x34
  4049aa:	4603      	mov	r3, r0
  4049ac:	f7ff ba1b 	b.w	403de6 <_svfprintf_r+0x61a>
  4049b0:	2003      	movs	r0, #3
  4049b2:	a91d      	add	r1, sp, #116	; 0x74
  4049b4:	e88d 0801 	stmia.w	sp, {r0, fp}
  4049b8:	9102      	str	r1, [sp, #8]
  4049ba:	a81e      	add	r0, sp, #120	; 0x78
  4049bc:	a921      	add	r1, sp, #132	; 0x84
  4049be:	9003      	str	r0, [sp, #12]
  4049c0:	9a09      	ldr	r2, [sp, #36]	; 0x24
  4049c2:	9104      	str	r1, [sp, #16]
  4049c4:	4653      	mov	r3, sl
  4049c6:	9808      	ldr	r0, [sp, #32]
  4049c8:	f000 f9f2 	bl	404db0 <_dtoa_r>
  4049cc:	46d9      	mov	r9, fp
  4049ce:	9010      	str	r0, [sp, #64]	; 0x40
  4049d0:	9b10      	ldr	r3, [sp, #64]	; 0x40
  4049d2:	eb03 0809 	add.w	r8, r3, r9
  4049d6:	9b0d      	ldr	r3, [sp, #52]	; 0x34
  4049d8:	2b46      	cmp	r3, #70	; 0x46
  4049da:	f47f af61 	bne.w	4048a0 <_svfprintf_r+0x10d4>
  4049de:	9b10      	ldr	r3, [sp, #64]	; 0x40
  4049e0:	781b      	ldrb	r3, [r3, #0]
  4049e2:	2b30      	cmp	r3, #48	; 0x30
  4049e4:	f000 80e4 	beq.w	404bb0 <_svfprintf_r+0x13e4>
  4049e8:	9b1d      	ldr	r3, [sp, #116]	; 0x74
  4049ea:	4498      	add	r8, r3
  4049ec:	e758      	b.n	4048a0 <_svfprintf_r+0x10d4>
  4049ee:	9808      	ldr	r0, [sp, #32]
  4049f0:	4631      	mov	r1, r6
  4049f2:	aa23      	add	r2, sp, #140	; 0x8c
  4049f4:	f002 fb6c 	bl	4070d0 <__ssprint_r>
  4049f8:	2800      	cmp	r0, #0
  4049fa:	f47e afad 	bne.w	403958 <_svfprintf_r+0x18c>
  4049fe:	f8dd b094 	ldr.w	fp, [sp, #148]	; 0x94
  404a02:	463c      	mov	r4, r7
  404a04:	e4a7      	b.n	404356 <_svfprintf_r+0xb8a>
  404a06:	3301      	adds	r3, #1
  404a08:	4429      	add	r1, r5
  404a0a:	2b07      	cmp	r3, #7
  404a0c:	9125      	str	r1, [sp, #148]	; 0x94
  404a0e:	9324      	str	r3, [sp, #144]	; 0x90
  404a10:	f8c2 9000 	str.w	r9, [r2]
  404a14:	6055      	str	r5, [r2, #4]
  404a16:	dca5      	bgt.n	404964 <_svfprintf_r+0x1198>
  404a18:	3208      	adds	r2, #8
  404a1a:	e7ae      	b.n	40497a <_svfprintf_r+0x11ae>
  404a1c:	9808      	ldr	r0, [sp, #32]
  404a1e:	4631      	mov	r1, r6
  404a20:	aa23      	add	r2, sp, #140	; 0x8c
  404a22:	f002 fb55 	bl	4070d0 <__ssprint_r>
  404a26:	2800      	cmp	r0, #0
  404a28:	f47e af96 	bne.w	403958 <_svfprintf_r+0x18c>
  404a2c:	9b1d      	ldr	r3, [sp, #116]	; 0x74
  404a2e:	f8dd b094 	ldr.w	fp, [sp, #148]	; 0x94
  404a32:	463c      	mov	r4, r7
  404a34:	e597      	b.n	404566 <_svfprintf_r+0xd9a>
  404a36:	4653      	mov	r3, sl
  404a38:	2b06      	cmp	r3, #6
  404a3a:	bf28      	it	cs
  404a3c:	2306      	movcs	r3, #6
  404a3e:	930d      	str	r3, [sp, #52]	; 0x34
  404a40:	ea23 73e3 	bic.w	r3, r3, r3, asr #31
  404a44:	f8dd c040 	ldr.w	ip, [sp, #64]	; 0x40
  404a48:	9309      	str	r3, [sp, #36]	; 0x24
  404a4a:	4b83      	ldr	r3, [pc, #524]	; (404c58 <_svfprintf_r+0x148c>)
  404a4c:	f8cd 9038 	str.w	r9, [sp, #56]	; 0x38
  404a50:	f8cd c044 	str.w	ip, [sp, #68]	; 0x44
  404a54:	f8cd c048 	str.w	ip, [sp, #72]	; 0x48
  404a58:	9310      	str	r3, [sp, #64]	; 0x40
  404a5a:	f7fe bfd7 	b.w	403a0c <_svfprintf_r+0x240>
  404a5e:	9808      	ldr	r0, [sp, #32]
  404a60:	4631      	mov	r1, r6
  404a62:	aa23      	add	r2, sp, #140	; 0x8c
  404a64:	f002 fb34 	bl	4070d0 <__ssprint_r>
  404a68:	2800      	cmp	r0, #0
  404a6a:	f47e af75 	bne.w	403958 <_svfprintf_r+0x18c>
  404a6e:	9b1d      	ldr	r3, [sp, #116]	; 0x74
  404a70:	9a13      	ldr	r2, [sp, #76]	; 0x4c
  404a72:	f8dd b094 	ldr.w	fp, [sp, #148]	; 0x94
  404a76:	1ad3      	subs	r3, r2, r3
  404a78:	463c      	mov	r4, r7
  404a7a:	e58a      	b.n	404592 <_svfprintf_r+0xdc6>
  404a7c:	9309      	str	r3, [sp, #36]	; 0x24
  404a7e:	9b11      	ldr	r3, [sp, #68]	; 0x44
  404a80:	9307      	str	r3, [sp, #28]
  404a82:	f04f 0c2d 	mov.w	ip, #45	; 0x2d
  404a86:	2300      	movs	r3, #0
  404a88:	f88d c06f 	strb.w	ip, [sp, #111]	; 0x6f
  404a8c:	9311      	str	r3, [sp, #68]	; 0x44
  404a8e:	f7fe bfc0 	b.w	403a12 <_svfprintf_r+0x246>
  404a92:	1cda      	adds	r2, r3, #3
  404a94:	db19      	blt.n	404aca <_svfprintf_r+0x12fe>
  404a96:	459b      	cmp	fp, r3
  404a98:	db17      	blt.n	404aca <_svfprintf_r+0x12fe>
  404a9a:	9312      	str	r3, [sp, #72]	; 0x48
  404a9c:	2567      	movs	r5, #103	; 0x67
  404a9e:	e721      	b.n	4048e4 <_svfprintf_r+0x1118>
  404aa0:	f04f 0c2d 	mov.w	ip, #45	; 0x2d
  404aa4:	f88d c06f 	strb.w	ip, [sp, #111]	; 0x6f
  404aa8:	f7ff ba98 	b.w	403fdc <_svfprintf_r+0x810>
  404aac:	4643      	mov	r3, r8
  404aae:	e70a      	b.n	4048c6 <_svfprintf_r+0x10fa>
  404ab0:	ea2a 73ea 	bic.w	r3, sl, sl, asr #31
  404ab4:	9011      	str	r0, [sp, #68]	; 0x44
  404ab6:	f8cd 9038 	str.w	r9, [sp, #56]	; 0x38
  404aba:	9012      	str	r0, [sp, #72]	; 0x48
  404abc:	f89d c06f 	ldrb.w	ip, [sp, #111]	; 0x6f
  404ac0:	9309      	str	r3, [sp, #36]	; 0x24
  404ac2:	f8cd a034 	str.w	sl, [sp, #52]	; 0x34
  404ac6:	f7fe bfa1 	b.w	403a0c <_svfprintf_r+0x240>
  404aca:	3d02      	subs	r5, #2
  404acc:	3b01      	subs	r3, #1
  404ace:	2b00      	cmp	r3, #0
  404ad0:	931d      	str	r3, [sp, #116]	; 0x74
  404ad2:	bfba      	itte	lt
  404ad4:	425b      	neglt	r3, r3
  404ad6:	222d      	movlt	r2, #45	; 0x2d
  404ad8:	222b      	movge	r2, #43	; 0x2b
  404ada:	2b09      	cmp	r3, #9
  404adc:	f88d 507c 	strb.w	r5, [sp, #124]	; 0x7c
  404ae0:	f88d 207d 	strb.w	r2, [sp, #125]	; 0x7d
  404ae4:	dd72      	ble.n	404bcc <_svfprintf_r+0x1400>
  404ae6:	f10d 0e8b 	add.w	lr, sp, #139	; 0x8b
  404aea:	4670      	mov	r0, lr
  404aec:	4a5b      	ldr	r2, [pc, #364]	; (404c5c <_svfprintf_r+0x1490>)
  404aee:	fb82 2103 	smull	r2, r1, r2, r3
  404af2:	17da      	asrs	r2, r3, #31
  404af4:	ebc2 02a1 	rsb	r2, r2, r1, asr #2
  404af8:	eb02 0182 	add.w	r1, r2, r2, lsl #2
  404afc:	eba3 0341 	sub.w	r3, r3, r1, lsl #1
  404b00:	f103 0130 	add.w	r1, r3, #48	; 0x30
  404b04:	2a09      	cmp	r2, #9
  404b06:	4613      	mov	r3, r2
  404b08:	f800 1d01 	strb.w	r1, [r0, #-1]!
  404b0c:	dcee      	bgt.n	404aec <_svfprintf_r+0x1320>
  404b0e:	4602      	mov	r2, r0
  404b10:	3330      	adds	r3, #48	; 0x30
  404b12:	b2d9      	uxtb	r1, r3
  404b14:	f802 1d01 	strb.w	r1, [r2, #-1]!
  404b18:	4596      	cmp	lr, r2
  404b1a:	f240 8099 	bls.w	404c50 <_svfprintf_r+0x1484>
  404b1e:	f10d 027e 	add.w	r2, sp, #126	; 0x7e
  404b22:	4603      	mov	r3, r0
  404b24:	e001      	b.n	404b2a <_svfprintf_r+0x135e>
  404b26:	f813 1b01 	ldrb.w	r1, [r3], #1
  404b2a:	f802 1b01 	strb.w	r1, [r2], #1
  404b2e:	4573      	cmp	r3, lr
  404b30:	d1f9      	bne.n	404b26 <_svfprintf_r+0x135a>
  404b32:	ab23      	add	r3, sp, #140	; 0x8c
  404b34:	1a1b      	subs	r3, r3, r0
  404b36:	f10d 027e 	add.w	r2, sp, #126	; 0x7e
  404b3a:	4413      	add	r3, r2
  404b3c:	aa1f      	add	r2, sp, #124	; 0x7c
  404b3e:	1a9b      	subs	r3, r3, r2
  404b40:	9a13      	ldr	r2, [sp, #76]	; 0x4c
  404b42:	9319      	str	r3, [sp, #100]	; 0x64
  404b44:	2a01      	cmp	r2, #1
  404b46:	4413      	add	r3, r2
  404b48:	930d      	str	r3, [sp, #52]	; 0x34
  404b4a:	dd6b      	ble.n	404c24 <_svfprintf_r+0x1458>
  404b4c:	9b0d      	ldr	r3, [sp, #52]	; 0x34
  404b4e:	2200      	movs	r2, #0
  404b50:	3301      	adds	r3, #1
  404b52:	930d      	str	r3, [sp, #52]	; 0x34
  404b54:	9212      	str	r2, [sp, #72]	; 0x48
  404b56:	ea23 73e3 	bic.w	r3, r3, r3, asr #31
  404b5a:	e6cf      	b.n	4048fc <_svfprintf_r+0x1130>
  404b5c:	9808      	ldr	r0, [sp, #32]
  404b5e:	4631      	mov	r1, r6
  404b60:	aa23      	add	r2, sp, #140	; 0x8c
  404b62:	f002 fab5 	bl	4070d0 <__ssprint_r>
  404b66:	2800      	cmp	r0, #0
  404b68:	f47e aef6 	bne.w	403958 <_svfprintf_r+0x18c>
  404b6c:	9d1d      	ldr	r5, [sp, #116]	; 0x74
  404b6e:	9925      	ldr	r1, [sp, #148]	; 0x94
  404b70:	9b24      	ldr	r3, [sp, #144]	; 0x90
  404b72:	463a      	mov	r2, r7
  404b74:	e601      	b.n	40477a <_svfprintf_r+0xfae>
  404b76:	9b12      	ldr	r3, [sp, #72]	; 0x48
  404b78:	2b00      	cmp	r3, #0
  404b7a:	bfd8      	it	le
  404b7c:	f1c3 0802 	rsble	r8, r3, #2
  404b80:	9b13      	ldr	r3, [sp, #76]	; 0x4c
  404b82:	bfc8      	it	gt
  404b84:	f04f 0801 	movgt.w	r8, #1
  404b88:	4443      	add	r3, r8
  404b8a:	930d      	str	r3, [sp, #52]	; 0x34
  404b8c:	ea23 73e3 	bic.w	r3, r3, r3, asr #31
  404b90:	e6b4      	b.n	4048fc <_svfprintf_r+0x1130>
  404b92:	2b00      	cmp	r3, #0
  404b94:	dd30      	ble.n	404bf8 <_svfprintf_r+0x142c>
  404b96:	f1bb 0f00 	cmp.w	fp, #0
  404b9a:	d125      	bne.n	404be8 <_svfprintf_r+0x141c>
  404b9c:	9b07      	ldr	r3, [sp, #28]
  404b9e:	07db      	lsls	r3, r3, #31
  404ba0:	d422      	bmi.n	404be8 <_svfprintf_r+0x141c>
  404ba2:	9a12      	ldr	r2, [sp, #72]	; 0x48
  404ba4:	920d      	str	r2, [sp, #52]	; 0x34
  404ba6:	ea22 73e2 	bic.w	r3, r2, r2, asr #31
  404baa:	e6a7      	b.n	4048fc <_svfprintf_r+0x1130>
  404bac:	9b21      	ldr	r3, [sp, #132]	; 0x84
  404bae:	e68a      	b.n	4048c6 <_svfprintf_r+0x10fa>
  404bb0:	9809      	ldr	r0, [sp, #36]	; 0x24
  404bb2:	4651      	mov	r1, sl
  404bb4:	2200      	movs	r2, #0
  404bb6:	2300      	movs	r3, #0
  404bb8:	f7fe fc9c 	bl	4034f4 <__aeabi_dcmpeq>
  404bbc:	2800      	cmp	r0, #0
  404bbe:	f47f af13 	bne.w	4049e8 <_svfprintf_r+0x121c>
  404bc2:	f1c9 0301 	rsb	r3, r9, #1
  404bc6:	931d      	str	r3, [sp, #116]	; 0x74
  404bc8:	4498      	add	r8, r3
  404bca:	e669      	b.n	4048a0 <_svfprintf_r+0x10d4>
  404bcc:	3330      	adds	r3, #48	; 0x30
  404bce:	2230      	movs	r2, #48	; 0x30
  404bd0:	f88d 307f 	strb.w	r3, [sp, #127]	; 0x7f
  404bd4:	f88d 207e 	strb.w	r2, [sp, #126]	; 0x7e
  404bd8:	ab20      	add	r3, sp, #128	; 0x80
  404bda:	e7af      	b.n	404b3c <_svfprintf_r+0x1370>
  404bdc:	9b12      	ldr	r3, [sp, #72]	; 0x48
  404bde:	3301      	adds	r3, #1
  404be0:	930d      	str	r3, [sp, #52]	; 0x34
  404be2:	ea23 73e3 	bic.w	r3, r3, r3, asr #31
  404be6:	e689      	b.n	4048fc <_svfprintf_r+0x1130>
  404be8:	9b12      	ldr	r3, [sp, #72]	; 0x48
  404bea:	f10b 0801 	add.w	r8, fp, #1
  404bee:	4443      	add	r3, r8
  404bf0:	930d      	str	r3, [sp, #52]	; 0x34
  404bf2:	ea23 73e3 	bic.w	r3, r3, r3, asr #31
  404bf6:	e681      	b.n	4048fc <_svfprintf_r+0x1130>
  404bf8:	f1bb 0f00 	cmp.w	fp, #0
  404bfc:	d11b      	bne.n	404c36 <_svfprintf_r+0x146a>
  404bfe:	9b07      	ldr	r3, [sp, #28]
  404c00:	07d8      	lsls	r0, r3, #31
  404c02:	d418      	bmi.n	404c36 <_svfprintf_r+0x146a>
  404c04:	2301      	movs	r3, #1
  404c06:	930d      	str	r3, [sp, #52]	; 0x34
  404c08:	e678      	b.n	4048fc <_svfprintf_r+0x1130>
  404c0a:	9d0e      	ldr	r5, [sp, #56]	; 0x38
  404c0c:	f8d5 a000 	ldr.w	sl, [r5]
  404c10:	4628      	mov	r0, r5
  404c12:	3004      	adds	r0, #4
  404c14:	f1ba 0f00 	cmp.w	sl, #0
  404c18:	785d      	ldrb	r5, [r3, #1]
  404c1a:	900e      	str	r0, [sp, #56]	; 0x38
  404c1c:	f6be ae29 	bge.w	403872 <_svfprintf_r+0xa6>
  404c20:	f7fe be25 	b.w	40386e <_svfprintf_r+0xa2>
  404c24:	9b07      	ldr	r3, [sp, #28]
  404c26:	f013 0301 	ands.w	r3, r3, #1
  404c2a:	d18f      	bne.n	404b4c <_svfprintf_r+0x1380>
  404c2c:	9312      	str	r3, [sp, #72]	; 0x48
  404c2e:	9b0d      	ldr	r3, [sp, #52]	; 0x34
  404c30:	ea23 73e3 	bic.w	r3, r3, r3, asr #31
  404c34:	e662      	b.n	4048fc <_svfprintf_r+0x1130>
  404c36:	f10b 0302 	add.w	r3, fp, #2
  404c3a:	930d      	str	r3, [sp, #52]	; 0x34
  404c3c:	ea23 73e3 	bic.w	r3, r3, r3, asr #31
  404c40:	e65c      	b.n	4048fc <_svfprintf_r+0x1130>
  404c42:	9a08      	ldr	r2, [sp, #32]
  404c44:	230c      	movs	r3, #12
  404c46:	6013      	str	r3, [r2, #0]
  404c48:	f04f 30ff 	mov.w	r0, #4294967295
  404c4c:	f7fe be8e 	b.w	40396c <_svfprintf_r+0x1a0>
  404c50:	f10d 037e 	add.w	r3, sp, #126	; 0x7e
  404c54:	e772      	b.n	404b3c <_svfprintf_r+0x1370>
  404c56:	bf00      	nop
  404c58:	0041f948 	.word	0x0041f948
  404c5c:	66666667 	.word	0x66666667

00404c60 <register_fini>:
  404c60:	4b02      	ldr	r3, [pc, #8]	; (404c6c <register_fini+0xc>)
  404c62:	b113      	cbz	r3, 404c6a <register_fini+0xa>
  404c64:	4802      	ldr	r0, [pc, #8]	; (404c70 <register_fini+0x10>)
  404c66:	f000 b805 	b.w	404c74 <atexit>
  404c6a:	4770      	bx	lr
  404c6c:	00000000 	.word	0x00000000
  404c70:	00405c45 	.word	0x00405c45

00404c74 <atexit>:
  404c74:	4601      	mov	r1, r0
  404c76:	2000      	movs	r0, #0
  404c78:	4602      	mov	r2, r0
  404c7a:	4603      	mov	r3, r0
  404c7c:	f002 baaa 	b.w	4071d4 <__register_exitproc>

00404c80 <quorem>:
  404c80:	6902      	ldr	r2, [r0, #16]
  404c82:	690b      	ldr	r3, [r1, #16]
  404c84:	4293      	cmp	r3, r2
  404c86:	f300 808f 	bgt.w	404da8 <quorem+0x128>
  404c8a:	e92d 4ff0 	stmdb	sp!, {r4, r5, r6, r7, r8, r9, sl, fp, lr}
  404c8e:	f103 38ff 	add.w	r8, r3, #4294967295
  404c92:	f101 0714 	add.w	r7, r1, #20
  404c96:	f100 0b14 	add.w	fp, r0, #20
  404c9a:	f857 2028 	ldr.w	r2, [r7, r8, lsl #2]
  404c9e:	f85b 3028 	ldr.w	r3, [fp, r8, lsl #2]
  404ca2:	ea4f 0488 	mov.w	r4, r8, lsl #2
  404ca6:	b083      	sub	sp, #12
  404ca8:	3201      	adds	r2, #1
  404caa:	fbb3 f9f2 	udiv	r9, r3, r2
  404cae:	eb0b 0304 	add.w	r3, fp, r4
  404cb2:	9400      	str	r4, [sp, #0]
  404cb4:	eb07 0a04 	add.w	sl, r7, r4
  404cb8:	9301      	str	r3, [sp, #4]
  404cba:	f1b9 0f00 	cmp.w	r9, #0
  404cbe:	d03b      	beq.n	404d38 <quorem+0xb8>
  404cc0:	2600      	movs	r6, #0
  404cc2:	4632      	mov	r2, r6
  404cc4:	46bc      	mov	ip, r7
  404cc6:	46de      	mov	lr, fp
  404cc8:	4634      	mov	r4, r6
  404cca:	f85c 6b04 	ldr.w	r6, [ip], #4
  404cce:	f8de 5000 	ldr.w	r5, [lr]
  404cd2:	b2b3      	uxth	r3, r6
  404cd4:	0c36      	lsrs	r6, r6, #16
  404cd6:	fb03 4409 	mla	r4, r3, r9, r4
  404cda:	fb06 f609 	mul.w	r6, r6, r9
  404cde:	eb06 4614 	add.w	r6, r6, r4, lsr #16
  404ce2:	b2a3      	uxth	r3, r4
  404ce4:	1ad3      	subs	r3, r2, r3
  404ce6:	b2b4      	uxth	r4, r6
  404ce8:	fa13 f385 	uxtah	r3, r3, r5
  404cec:	ebc4 4415 	rsb	r4, r4, r5, lsr #16
  404cf0:	eb04 4423 	add.w	r4, r4, r3, asr #16
  404cf4:	b29b      	uxth	r3, r3
  404cf6:	ea43 4304 	orr.w	r3, r3, r4, lsl #16
  404cfa:	45e2      	cmp	sl, ip
  404cfc:	ea4f 4224 	mov.w	r2, r4, asr #16
  404d00:	f84e 3b04 	str.w	r3, [lr], #4
  404d04:	ea4f 4416 	mov.w	r4, r6, lsr #16
  404d08:	d2df      	bcs.n	404cca <quorem+0x4a>
  404d0a:	9b00      	ldr	r3, [sp, #0]
  404d0c:	f85b 3003 	ldr.w	r3, [fp, r3]
  404d10:	b993      	cbnz	r3, 404d38 <quorem+0xb8>
  404d12:	9c01      	ldr	r4, [sp, #4]
  404d14:	1f23      	subs	r3, r4, #4
  404d16:	459b      	cmp	fp, r3
  404d18:	d20c      	bcs.n	404d34 <quorem+0xb4>
  404d1a:	f854 3c04 	ldr.w	r3, [r4, #-4]
  404d1e:	b94b      	cbnz	r3, 404d34 <quorem+0xb4>
  404d20:	f1a4 0308 	sub.w	r3, r4, #8
  404d24:	e002      	b.n	404d2c <quorem+0xac>
  404d26:	681a      	ldr	r2, [r3, #0]
  404d28:	3b04      	subs	r3, #4
  404d2a:	b91a      	cbnz	r2, 404d34 <quorem+0xb4>
  404d2c:	459b      	cmp	fp, r3
  404d2e:	f108 38ff 	add.w	r8, r8, #4294967295
  404d32:	d3f8      	bcc.n	404d26 <quorem+0xa6>
  404d34:	f8c0 8010 	str.w	r8, [r0, #16]
  404d38:	4604      	mov	r4, r0
  404d3a:	f001 feab 	bl	406a94 <__mcmp>
  404d3e:	2800      	cmp	r0, #0
  404d40:	db2e      	blt.n	404da0 <quorem+0x120>
  404d42:	f109 0901 	add.w	r9, r9, #1
  404d46:	465d      	mov	r5, fp
  404d48:	2300      	movs	r3, #0
  404d4a:	f857 1b04 	ldr.w	r1, [r7], #4
  404d4e:	6828      	ldr	r0, [r5, #0]
  404d50:	b28a      	uxth	r2, r1
  404d52:	1a9a      	subs	r2, r3, r2
  404d54:	0c09      	lsrs	r1, r1, #16
  404d56:	fa12 f280 	uxtah	r2, r2, r0
  404d5a:	ebc1 4310 	rsb	r3, r1, r0, lsr #16
  404d5e:	eb03 4322 	add.w	r3, r3, r2, asr #16
  404d62:	b291      	uxth	r1, r2
  404d64:	ea41 4103 	orr.w	r1, r1, r3, lsl #16
  404d68:	45ba      	cmp	sl, r7
  404d6a:	f845 1b04 	str.w	r1, [r5], #4
  404d6e:	ea4f 4323 	mov.w	r3, r3, asr #16
  404d72:	d2ea      	bcs.n	404d4a <quorem+0xca>
  404d74:	f85b 2028 	ldr.w	r2, [fp, r8, lsl #2]
  404d78:	eb0b 0388 	add.w	r3, fp, r8, lsl #2
  404d7c:	b982      	cbnz	r2, 404da0 <quorem+0x120>
  404d7e:	1f1a      	subs	r2, r3, #4
  404d80:	4593      	cmp	fp, r2
  404d82:	d20b      	bcs.n	404d9c <quorem+0x11c>
  404d84:	f853 2c04 	ldr.w	r2, [r3, #-4]
  404d88:	b942      	cbnz	r2, 404d9c <quorem+0x11c>
  404d8a:	3b08      	subs	r3, #8
  404d8c:	e002      	b.n	404d94 <quorem+0x114>
  404d8e:	681a      	ldr	r2, [r3, #0]
  404d90:	3b04      	subs	r3, #4
  404d92:	b91a      	cbnz	r2, 404d9c <quorem+0x11c>
  404d94:	459b      	cmp	fp, r3
  404d96:	f108 38ff 	add.w	r8, r8, #4294967295
  404d9a:	d3f8      	bcc.n	404d8e <quorem+0x10e>
  404d9c:	f8c4 8010 	str.w	r8, [r4, #16]
  404da0:	4648      	mov	r0, r9
  404da2:	b003      	add	sp, #12
  404da4:	e8bd 8ff0 	ldmia.w	sp!, {r4, r5, r6, r7, r8, r9, sl, fp, pc}
  404da8:	2000      	movs	r0, #0
  404daa:	4770      	bx	lr
  404dac:	0000      	movs	r0, r0
	...

00404db0 <_dtoa_r>:
  404db0:	e92d 4ff0 	stmdb	sp!, {r4, r5, r6, r7, r8, r9, sl, fp, lr}
  404db4:	6c01      	ldr	r1, [r0, #64]	; 0x40
  404db6:	b097      	sub	sp, #92	; 0x5c
  404db8:	4604      	mov	r4, r0
  404dba:	9d23      	ldr	r5, [sp, #140]	; 0x8c
  404dbc:	e9cd 2302 	strd	r2, r3, [sp, #8]
  404dc0:	b141      	cbz	r1, 404dd4 <_dtoa_r+0x24>
  404dc2:	6c42      	ldr	r2, [r0, #68]	; 0x44
  404dc4:	604a      	str	r2, [r1, #4]
  404dc6:	2301      	movs	r3, #1
  404dc8:	4093      	lsls	r3, r2
  404dca:	608b      	str	r3, [r1, #8]
  404dcc:	f001 fc7e 	bl	4066cc <_Bfree>
  404dd0:	2300      	movs	r3, #0
  404dd2:	6423      	str	r3, [r4, #64]	; 0x40
  404dd4:	e9dd 2302 	ldrd	r2, r3, [sp, #8]
  404dd8:	2b00      	cmp	r3, #0
  404dda:	4699      	mov	r9, r3
  404ddc:	db36      	blt.n	404e4c <_dtoa_r+0x9c>
  404dde:	2300      	movs	r3, #0
  404de0:	602b      	str	r3, [r5, #0]
  404de2:	4ba5      	ldr	r3, [pc, #660]	; (405078 <_dtoa_r+0x2c8>)
  404de4:	461a      	mov	r2, r3
  404de6:	ea09 0303 	and.w	r3, r9, r3
  404dea:	4293      	cmp	r3, r2
  404dec:	d017      	beq.n	404e1e <_dtoa_r+0x6e>
  404dee:	e9dd 6702 	ldrd	r6, r7, [sp, #8]
  404df2:	2200      	movs	r2, #0
  404df4:	4630      	mov	r0, r6
  404df6:	4639      	mov	r1, r7
  404df8:	2300      	movs	r3, #0
  404dfa:	f7fe fb7b 	bl	4034f4 <__aeabi_dcmpeq>
  404dfe:	4680      	mov	r8, r0
  404e00:	2800      	cmp	r0, #0
  404e02:	d02b      	beq.n	404e5c <_dtoa_r+0xac>
  404e04:	9a22      	ldr	r2, [sp, #136]	; 0x88
  404e06:	2301      	movs	r3, #1
  404e08:	6013      	str	r3, [r2, #0]
  404e0a:	9b24      	ldr	r3, [sp, #144]	; 0x90
  404e0c:	2b00      	cmp	r3, #0
  404e0e:	f000 80cb 	beq.w	404fa8 <_dtoa_r+0x1f8>
  404e12:	489a      	ldr	r0, [pc, #616]	; (40507c <_dtoa_r+0x2cc>)
  404e14:	6018      	str	r0, [r3, #0]
  404e16:	3801      	subs	r0, #1
  404e18:	b017      	add	sp, #92	; 0x5c
  404e1a:	e8bd 8ff0 	ldmia.w	sp!, {r4, r5, r6, r7, r8, r9, sl, fp, pc}
  404e1e:	9a22      	ldr	r2, [sp, #136]	; 0x88
  404e20:	f242 730f 	movw	r3, #9999	; 0x270f
  404e24:	6013      	str	r3, [r2, #0]
  404e26:	9b02      	ldr	r3, [sp, #8]
  404e28:	2b00      	cmp	r3, #0
  404e2a:	f000 80a6 	beq.w	404f7a <_dtoa_r+0x1ca>
  404e2e:	4894      	ldr	r0, [pc, #592]	; (405080 <_dtoa_r+0x2d0>)
  404e30:	9b24      	ldr	r3, [sp, #144]	; 0x90
  404e32:	2b00      	cmp	r3, #0
  404e34:	d0f0      	beq.n	404e18 <_dtoa_r+0x68>
  404e36:	78c3      	ldrb	r3, [r0, #3]
  404e38:	2b00      	cmp	r3, #0
  404e3a:	f000 80b7 	beq.w	404fac <_dtoa_r+0x1fc>
  404e3e:	f100 0308 	add.w	r3, r0, #8
  404e42:	9a24      	ldr	r2, [sp, #144]	; 0x90
  404e44:	6013      	str	r3, [r2, #0]
  404e46:	b017      	add	sp, #92	; 0x5c
  404e48:	e8bd 8ff0 	ldmia.w	sp!, {r4, r5, r6, r7, r8, r9, sl, fp, pc}
  404e4c:	9a03      	ldr	r2, [sp, #12]
  404e4e:	2301      	movs	r3, #1
  404e50:	f022 4900 	bic.w	r9, r2, #2147483648	; 0x80000000
  404e54:	602b      	str	r3, [r5, #0]
  404e56:	f8cd 900c 	str.w	r9, [sp, #12]
  404e5a:	e7c2      	b.n	404de2 <_dtoa_r+0x32>
  404e5c:	aa15      	add	r2, sp, #84	; 0x54
  404e5e:	ab14      	add	r3, sp, #80	; 0x50
  404e60:	e88d 000c 	stmia.w	sp, {r2, r3}
  404e64:	4620      	mov	r0, r4
  404e66:	4632      	mov	r2, r6
  404e68:	463b      	mov	r3, r7
  404e6a:	f001 fea1 	bl	406bb0 <__d2b>
  404e6e:	ea5f 5519 	movs.w	r5, r9, lsr #20
  404e72:	4683      	mov	fp, r0
  404e74:	f040 808a 	bne.w	404f8c <_dtoa_r+0x1dc>
  404e78:	f8dd 8050 	ldr.w	r8, [sp, #80]	; 0x50
  404e7c:	9d15      	ldr	r5, [sp, #84]	; 0x54
  404e7e:	f46f 6382 	mvn.w	r3, #1040	; 0x410
  404e82:	4445      	add	r5, r8
  404e84:	429d      	cmp	r5, r3
  404e86:	f2c0 8297 	blt.w	4053b8 <_dtoa_r+0x608>
  404e8a:	4a7e      	ldr	r2, [pc, #504]	; (405084 <_dtoa_r+0x2d4>)
  404e8c:	1b52      	subs	r2, r2, r5
  404e8e:	fa09 f902 	lsl.w	r9, r9, r2
  404e92:	9a02      	ldr	r2, [sp, #8]
  404e94:	f205 4312 	addw	r3, r5, #1042	; 0x412
  404e98:	fa22 f003 	lsr.w	r0, r2, r3
  404e9c:	ea49 0000 	orr.w	r0, r9, r0
  404ea0:	f7fe f84a 	bl	402f38 <__aeabi_ui2d>
  404ea4:	2301      	movs	r3, #1
  404ea6:	3d01      	subs	r5, #1
  404ea8:	f1a1 71f8 	sub.w	r1, r1, #32505856	; 0x1f00000
  404eac:	930d      	str	r3, [sp, #52]	; 0x34
  404eae:	2200      	movs	r2, #0
  404eb0:	4b75      	ldr	r3, [pc, #468]	; (405088 <_dtoa_r+0x2d8>)
  404eb2:	f7fd ff03 	bl	402cbc <__aeabi_dsub>
  404eb6:	a36a      	add	r3, pc, #424	; (adr r3, 405060 <_dtoa_r+0x2b0>)
  404eb8:	e9d3 2300 	ldrd	r2, r3, [r3]
  404ebc:	f7fe f8b2 	bl	403024 <__aeabi_dmul>
  404ec0:	a369      	add	r3, pc, #420	; (adr r3, 405068 <_dtoa_r+0x2b8>)
  404ec2:	e9d3 2300 	ldrd	r2, r3, [r3]
  404ec6:	f7fd fefb 	bl	402cc0 <__adddf3>
  404eca:	4606      	mov	r6, r0
  404ecc:	4628      	mov	r0, r5
  404ece:	460f      	mov	r7, r1
  404ed0:	f7fe f842 	bl	402f58 <__aeabi_i2d>
  404ed4:	a366      	add	r3, pc, #408	; (adr r3, 405070 <_dtoa_r+0x2c0>)
  404ed6:	e9d3 2300 	ldrd	r2, r3, [r3]
  404eda:	f7fe f8a3 	bl	403024 <__aeabi_dmul>
  404ede:	4602      	mov	r2, r0
  404ee0:	460b      	mov	r3, r1
  404ee2:	4630      	mov	r0, r6
  404ee4:	4639      	mov	r1, r7
  404ee6:	f7fd feeb 	bl	402cc0 <__adddf3>
  404eea:	4606      	mov	r6, r0
  404eec:	460f      	mov	r7, r1
  404eee:	f7fe fb33 	bl	403558 <__aeabi_d2iz>
  404ef2:	4639      	mov	r1, r7
  404ef4:	9004      	str	r0, [sp, #16]
  404ef6:	2200      	movs	r2, #0
  404ef8:	4630      	mov	r0, r6
  404efa:	2300      	movs	r3, #0
  404efc:	f7fe fb04 	bl	403508 <__aeabi_dcmplt>
  404f00:	2800      	cmp	r0, #0
  404f02:	f040 81a6 	bne.w	405252 <_dtoa_r+0x4a2>
  404f06:	9b04      	ldr	r3, [sp, #16]
  404f08:	2b16      	cmp	r3, #22
  404f0a:	f200 819f 	bhi.w	40524c <_dtoa_r+0x49c>
  404f0e:	9a04      	ldr	r2, [sp, #16]
  404f10:	4b5e      	ldr	r3, [pc, #376]	; (40508c <_dtoa_r+0x2dc>)
  404f12:	eb03 03c2 	add.w	r3, r3, r2, lsl #3
  404f16:	e9d3 0100 	ldrd	r0, r1, [r3]
  404f1a:	e9dd 2302 	ldrd	r2, r3, [sp, #8]
  404f1e:	f7fe fb11 	bl	403544 <__aeabi_dcmpgt>
  404f22:	2800      	cmp	r0, #0
  404f24:	f000 824e 	beq.w	4053c4 <_dtoa_r+0x614>
  404f28:	9b04      	ldr	r3, [sp, #16]
  404f2a:	3b01      	subs	r3, #1
  404f2c:	9304      	str	r3, [sp, #16]
  404f2e:	2300      	movs	r3, #0
  404f30:	930b      	str	r3, [sp, #44]	; 0x2c
  404f32:	ebc5 0508 	rsb	r5, r5, r8
  404f36:	f1b5 0a01 	subs.w	sl, r5, #1
  404f3a:	f100 81a1 	bmi.w	405280 <_dtoa_r+0x4d0>
  404f3e:	2300      	movs	r3, #0
  404f40:	9305      	str	r3, [sp, #20]
  404f42:	9b04      	ldr	r3, [sp, #16]
  404f44:	2b00      	cmp	r3, #0
  404f46:	f2c0 8192 	blt.w	40526e <_dtoa_r+0x4be>
  404f4a:	449a      	add	sl, r3
  404f4c:	930a      	str	r3, [sp, #40]	; 0x28
  404f4e:	2300      	movs	r3, #0
  404f50:	9308      	str	r3, [sp, #32]
  404f52:	9b20      	ldr	r3, [sp, #128]	; 0x80
  404f54:	2b09      	cmp	r3, #9
  404f56:	d82b      	bhi.n	404fb0 <_dtoa_r+0x200>
  404f58:	2b05      	cmp	r3, #5
  404f5a:	f340 8670 	ble.w	405c3e <_dtoa_r+0xe8e>
  404f5e:	3b04      	subs	r3, #4
  404f60:	9320      	str	r3, [sp, #128]	; 0x80
  404f62:	2500      	movs	r5, #0
  404f64:	9b20      	ldr	r3, [sp, #128]	; 0x80
  404f66:	3b02      	subs	r3, #2
  404f68:	2b03      	cmp	r3, #3
  404f6a:	f200 864e 	bhi.w	405c0a <_dtoa_r+0xe5a>
  404f6e:	e8df f013 	tbh	[pc, r3, lsl #1]
  404f72:	03cc      	.short	0x03cc
  404f74:	02b203be 	.word	0x02b203be
  404f78:	0663      	.short	0x0663
  404f7a:	4b41      	ldr	r3, [pc, #260]	; (405080 <_dtoa_r+0x2d0>)
  404f7c:	4a44      	ldr	r2, [pc, #272]	; (405090 <_dtoa_r+0x2e0>)
  404f7e:	f3c9 0013 	ubfx	r0, r9, #0, #20
  404f82:	2800      	cmp	r0, #0
  404f84:	bf14      	ite	ne
  404f86:	4618      	movne	r0, r3
  404f88:	4610      	moveq	r0, r2
  404f8a:	e751      	b.n	404e30 <_dtoa_r+0x80>
  404f8c:	f3c7 0313 	ubfx	r3, r7, #0, #20
  404f90:	f043 517f 	orr.w	r1, r3, #1069547520	; 0x3fc00000
  404f94:	f8cd 8034 	str.w	r8, [sp, #52]	; 0x34
  404f98:	4630      	mov	r0, r6
  404f9a:	f2a5 35ff 	subw	r5, r5, #1023	; 0x3ff
  404f9e:	f441 1140 	orr.w	r1, r1, #3145728	; 0x300000
  404fa2:	f8dd 8050 	ldr.w	r8, [sp, #80]	; 0x50
  404fa6:	e782      	b.n	404eae <_dtoa_r+0xfe>
  404fa8:	483a      	ldr	r0, [pc, #232]	; (405094 <_dtoa_r+0x2e4>)
  404faa:	e735      	b.n	404e18 <_dtoa_r+0x68>
  404fac:	1cc3      	adds	r3, r0, #3
  404fae:	e748      	b.n	404e42 <_dtoa_r+0x92>
  404fb0:	2100      	movs	r1, #0
  404fb2:	6461      	str	r1, [r4, #68]	; 0x44
  404fb4:	4620      	mov	r0, r4
  404fb6:	9120      	str	r1, [sp, #128]	; 0x80
  404fb8:	f001 fb62 	bl	406680 <_Balloc>
  404fbc:	f04f 33ff 	mov.w	r3, #4294967295
  404fc0:	9306      	str	r3, [sp, #24]
  404fc2:	9a20      	ldr	r2, [sp, #128]	; 0x80
  404fc4:	930c      	str	r3, [sp, #48]	; 0x30
  404fc6:	2301      	movs	r3, #1
  404fc8:	9007      	str	r0, [sp, #28]
  404fca:	9221      	str	r2, [sp, #132]	; 0x84
  404fcc:	6420      	str	r0, [r4, #64]	; 0x40
  404fce:	9309      	str	r3, [sp, #36]	; 0x24
  404fd0:	9b15      	ldr	r3, [sp, #84]	; 0x54
  404fd2:	2b00      	cmp	r3, #0
  404fd4:	f2c0 80d2 	blt.w	40517c <_dtoa_r+0x3cc>
  404fd8:	9a04      	ldr	r2, [sp, #16]
  404fda:	2a0e      	cmp	r2, #14
  404fdc:	f300 80ce 	bgt.w	40517c <_dtoa_r+0x3cc>
  404fe0:	4b2a      	ldr	r3, [pc, #168]	; (40508c <_dtoa_r+0x2dc>)
  404fe2:	eb03 03c2 	add.w	r3, r3, r2, lsl #3
  404fe6:	e9d3 8900 	ldrd	r8, r9, [r3]
  404fea:	9b21      	ldr	r3, [sp, #132]	; 0x84
  404fec:	2b00      	cmp	r3, #0
  404fee:	f2c0 838f 	blt.w	405710 <_dtoa_r+0x960>
  404ff2:	e9dd 6702 	ldrd	r6, r7, [sp, #8]
  404ff6:	4642      	mov	r2, r8
  404ff8:	464b      	mov	r3, r9
  404ffa:	4630      	mov	r0, r6
  404ffc:	4639      	mov	r1, r7
  404ffe:	f7fe f93b 	bl	403278 <__aeabi_ddiv>
  405002:	f7fe faa9 	bl	403558 <__aeabi_d2iz>
  405006:	4682      	mov	sl, r0
  405008:	f7fd ffa6 	bl	402f58 <__aeabi_i2d>
  40500c:	4642      	mov	r2, r8
  40500e:	464b      	mov	r3, r9
  405010:	f7fe f808 	bl	403024 <__aeabi_dmul>
  405014:	460b      	mov	r3, r1
  405016:	4602      	mov	r2, r0
  405018:	4639      	mov	r1, r7
  40501a:	4630      	mov	r0, r6
  40501c:	f7fd fe4e 	bl	402cbc <__aeabi_dsub>
  405020:	9d07      	ldr	r5, [sp, #28]
  405022:	f10a 0330 	add.w	r3, sl, #48	; 0x30
  405026:	702b      	strb	r3, [r5, #0]
  405028:	9b06      	ldr	r3, [sp, #24]
  40502a:	2b01      	cmp	r3, #1
  40502c:	4606      	mov	r6, r0
  40502e:	460f      	mov	r7, r1
  405030:	f105 0501 	add.w	r5, r5, #1
  405034:	d062      	beq.n	4050fc <_dtoa_r+0x34c>
  405036:	2200      	movs	r2, #0
  405038:	4b17      	ldr	r3, [pc, #92]	; (405098 <_dtoa_r+0x2e8>)
  40503a:	f7fd fff3 	bl	403024 <__aeabi_dmul>
  40503e:	2200      	movs	r2, #0
  405040:	2300      	movs	r3, #0
  405042:	4606      	mov	r6, r0
  405044:	460f      	mov	r7, r1
  405046:	f7fe fa55 	bl	4034f4 <__aeabi_dcmpeq>
  40504a:	2800      	cmp	r0, #0
  40504c:	f040 8083 	bne.w	405156 <_dtoa_r+0x3a6>
  405050:	f8cd b008 	str.w	fp, [sp, #8]
  405054:	9405      	str	r4, [sp, #20]
  405056:	f8dd b01c 	ldr.w	fp, [sp, #28]
  40505a:	9c06      	ldr	r4, [sp, #24]
  40505c:	e029      	b.n	4050b2 <_dtoa_r+0x302>
  40505e:	bf00      	nop
  405060:	636f4361 	.word	0x636f4361
  405064:	3fd287a7 	.word	0x3fd287a7
  405068:	8b60c8b3 	.word	0x8b60c8b3
  40506c:	3fc68a28 	.word	0x3fc68a28
  405070:	509f79fb 	.word	0x509f79fb
  405074:	3fd34413 	.word	0x3fd34413
  405078:	7ff00000 	.word	0x7ff00000
  40507c:	0041f951 	.word	0x0041f951
  405080:	0041f960 	.word	0x0041f960
  405084:	fffffc0e 	.word	0xfffffc0e
  405088:	3ff80000 	.word	0x3ff80000
  40508c:	0041f970 	.word	0x0041f970
  405090:	0041f954 	.word	0x0041f954
  405094:	0041f950 	.word	0x0041f950
  405098:	40240000 	.word	0x40240000
  40509c:	f7fd ffc2 	bl	403024 <__aeabi_dmul>
  4050a0:	2200      	movs	r2, #0
  4050a2:	2300      	movs	r3, #0
  4050a4:	4606      	mov	r6, r0
  4050a6:	460f      	mov	r7, r1
  4050a8:	f7fe fa24 	bl	4034f4 <__aeabi_dcmpeq>
  4050ac:	2800      	cmp	r0, #0
  4050ae:	f040 83de 	bne.w	40586e <_dtoa_r+0xabe>
  4050b2:	4642      	mov	r2, r8
  4050b4:	464b      	mov	r3, r9
  4050b6:	4630      	mov	r0, r6
  4050b8:	4639      	mov	r1, r7
  4050ba:	f7fe f8dd 	bl	403278 <__aeabi_ddiv>
  4050be:	f7fe fa4b 	bl	403558 <__aeabi_d2iz>
  4050c2:	4682      	mov	sl, r0
  4050c4:	f7fd ff48 	bl	402f58 <__aeabi_i2d>
  4050c8:	4642      	mov	r2, r8
  4050ca:	464b      	mov	r3, r9
  4050cc:	f7fd ffaa 	bl	403024 <__aeabi_dmul>
  4050d0:	4602      	mov	r2, r0
  4050d2:	460b      	mov	r3, r1
  4050d4:	4630      	mov	r0, r6
  4050d6:	4639      	mov	r1, r7
  4050d8:	f7fd fdf0 	bl	402cbc <__aeabi_dsub>
  4050dc:	f10a 0e30 	add.w	lr, sl, #48	; 0x30
  4050e0:	f805 eb01 	strb.w	lr, [r5], #1
  4050e4:	ebcb 0e05 	rsb	lr, fp, r5
  4050e8:	4574      	cmp	r4, lr
  4050ea:	4606      	mov	r6, r0
  4050ec:	460f      	mov	r7, r1
  4050ee:	f04f 0200 	mov.w	r2, #0
  4050f2:	4bb5      	ldr	r3, [pc, #724]	; (4053c8 <_dtoa_r+0x618>)
  4050f4:	d1d2      	bne.n	40509c <_dtoa_r+0x2ec>
  4050f6:	f8dd b008 	ldr.w	fp, [sp, #8]
  4050fa:	9c05      	ldr	r4, [sp, #20]
  4050fc:	4632      	mov	r2, r6
  4050fe:	463b      	mov	r3, r7
  405100:	4630      	mov	r0, r6
  405102:	4639      	mov	r1, r7
  405104:	f7fd fddc 	bl	402cc0 <__adddf3>
  405108:	4606      	mov	r6, r0
  40510a:	460f      	mov	r7, r1
  40510c:	4640      	mov	r0, r8
  40510e:	4649      	mov	r1, r9
  405110:	4632      	mov	r2, r6
  405112:	463b      	mov	r3, r7
  405114:	f7fe f9f8 	bl	403508 <__aeabi_dcmplt>
  405118:	b948      	cbnz	r0, 40512e <_dtoa_r+0x37e>
  40511a:	4640      	mov	r0, r8
  40511c:	4649      	mov	r1, r9
  40511e:	4632      	mov	r2, r6
  405120:	463b      	mov	r3, r7
  405122:	f7fe f9e7 	bl	4034f4 <__aeabi_dcmpeq>
  405126:	b1b0      	cbz	r0, 405156 <_dtoa_r+0x3a6>
  405128:	f01a 0f01 	tst.w	sl, #1
  40512c:	d013      	beq.n	405156 <_dtoa_r+0x3a6>
  40512e:	f815 8c01 	ldrb.w	r8, [r5, #-1]
  405132:	9907      	ldr	r1, [sp, #28]
  405134:	1e6b      	subs	r3, r5, #1
  405136:	e004      	b.n	405142 <_dtoa_r+0x392>
  405138:	428b      	cmp	r3, r1
  40513a:	f000 8440 	beq.w	4059be <_dtoa_r+0xc0e>
  40513e:	f813 8d01 	ldrb.w	r8, [r3, #-1]!
  405142:	f1b8 0f39 	cmp.w	r8, #57	; 0x39
  405146:	f103 0501 	add.w	r5, r3, #1
  40514a:	461a      	mov	r2, r3
  40514c:	d0f4      	beq.n	405138 <_dtoa_r+0x388>
  40514e:	f108 0301 	add.w	r3, r8, #1
  405152:	b2db      	uxtb	r3, r3
  405154:	7013      	strb	r3, [r2, #0]
  405156:	4620      	mov	r0, r4
  405158:	4659      	mov	r1, fp
  40515a:	f001 fab7 	bl	4066cc <_Bfree>
  40515e:	2200      	movs	r2, #0
  405160:	9b04      	ldr	r3, [sp, #16]
  405162:	702a      	strb	r2, [r5, #0]
  405164:	9a22      	ldr	r2, [sp, #136]	; 0x88
  405166:	3301      	adds	r3, #1
  405168:	6013      	str	r3, [r2, #0]
  40516a:	9b24      	ldr	r3, [sp, #144]	; 0x90
  40516c:	2b00      	cmp	r3, #0
  40516e:	f000 8345 	beq.w	4057fc <_dtoa_r+0xa4c>
  405172:	9807      	ldr	r0, [sp, #28]
  405174:	601d      	str	r5, [r3, #0]
  405176:	b017      	add	sp, #92	; 0x5c
  405178:	e8bd 8ff0 	ldmia.w	sp!, {r4, r5, r6, r7, r8, r9, sl, fp, pc}
  40517c:	9a09      	ldr	r2, [sp, #36]	; 0x24
  40517e:	2a00      	cmp	r2, #0
  405180:	f000 8084 	beq.w	40528c <_dtoa_r+0x4dc>
  405184:	9a20      	ldr	r2, [sp, #128]	; 0x80
  405186:	2a01      	cmp	r2, #1
  405188:	f340 8304 	ble.w	405794 <_dtoa_r+0x9e4>
  40518c:	9b06      	ldr	r3, [sp, #24]
  40518e:	1e5f      	subs	r7, r3, #1
  405190:	9b08      	ldr	r3, [sp, #32]
  405192:	42bb      	cmp	r3, r7
  405194:	f2c0 83a9 	blt.w	4058ea <_dtoa_r+0xb3a>
  405198:	1bdf      	subs	r7, r3, r7
  40519a:	9b06      	ldr	r3, [sp, #24]
  40519c:	2b00      	cmp	r3, #0
  40519e:	f2c0 849c 	blt.w	405ada <_dtoa_r+0xd2a>
  4051a2:	9d05      	ldr	r5, [sp, #20]
  4051a4:	9b06      	ldr	r3, [sp, #24]
  4051a6:	9a05      	ldr	r2, [sp, #20]
  4051a8:	4620      	mov	r0, r4
  4051aa:	441a      	add	r2, r3
  4051ac:	2101      	movs	r1, #1
  4051ae:	9205      	str	r2, [sp, #20]
  4051b0:	449a      	add	sl, r3
  4051b2:	f001 fb25 	bl	406800 <__i2b>
  4051b6:	4606      	mov	r6, r0
  4051b8:	b165      	cbz	r5, 4051d4 <_dtoa_r+0x424>
  4051ba:	f1ba 0f00 	cmp.w	sl, #0
  4051be:	dd09      	ble.n	4051d4 <_dtoa_r+0x424>
  4051c0:	45aa      	cmp	sl, r5
  4051c2:	9a05      	ldr	r2, [sp, #20]
  4051c4:	4653      	mov	r3, sl
  4051c6:	bfa8      	it	ge
  4051c8:	462b      	movge	r3, r5
  4051ca:	1ad2      	subs	r2, r2, r3
  4051cc:	9205      	str	r2, [sp, #20]
  4051ce:	1aed      	subs	r5, r5, r3
  4051d0:	ebc3 0a0a 	rsb	sl, r3, sl
  4051d4:	9b08      	ldr	r3, [sp, #32]
  4051d6:	2b00      	cmp	r3, #0
  4051d8:	dd1a      	ble.n	405210 <_dtoa_r+0x460>
  4051da:	9b09      	ldr	r3, [sp, #36]	; 0x24
  4051dc:	2b00      	cmp	r3, #0
  4051de:	f000 837d 	beq.w	4058dc <_dtoa_r+0xb2c>
  4051e2:	2f00      	cmp	r7, #0
  4051e4:	dd10      	ble.n	405208 <_dtoa_r+0x458>
  4051e6:	4631      	mov	r1, r6
  4051e8:	463a      	mov	r2, r7
  4051ea:	4620      	mov	r0, r4
  4051ec:	f001 fbac 	bl	406948 <__pow5mult>
  4051f0:	4606      	mov	r6, r0
  4051f2:	465a      	mov	r2, fp
  4051f4:	4631      	mov	r1, r6
  4051f6:	4620      	mov	r0, r4
  4051f8:	f001 fb0c 	bl	406814 <__multiply>
  4051fc:	4659      	mov	r1, fp
  4051fe:	4680      	mov	r8, r0
  405200:	4620      	mov	r0, r4
  405202:	f001 fa63 	bl	4066cc <_Bfree>
  405206:	46c3      	mov	fp, r8
  405208:	9b08      	ldr	r3, [sp, #32]
  40520a:	1bda      	subs	r2, r3, r7
  40520c:	f040 82a2 	bne.w	405754 <_dtoa_r+0x9a4>
  405210:	4620      	mov	r0, r4
  405212:	2101      	movs	r1, #1
  405214:	f001 faf4 	bl	406800 <__i2b>
  405218:	9b0a      	ldr	r3, [sp, #40]	; 0x28
  40521a:	2b00      	cmp	r3, #0
  40521c:	4680      	mov	r8, r0
  40521e:	dd39      	ble.n	405294 <_dtoa_r+0x4e4>
  405220:	4601      	mov	r1, r0
  405222:	461a      	mov	r2, r3
  405224:	4620      	mov	r0, r4
  405226:	f001 fb8f 	bl	406948 <__pow5mult>
  40522a:	9b20      	ldr	r3, [sp, #128]	; 0x80
  40522c:	2b01      	cmp	r3, #1
  40522e:	4680      	mov	r8, r0
  405230:	f340 8296 	ble.w	405760 <_dtoa_r+0x9b0>
  405234:	f04f 0900 	mov.w	r9, #0
  405238:	f8d8 3010 	ldr.w	r3, [r8, #16]
  40523c:	eb08 0383 	add.w	r3, r8, r3, lsl #2
  405240:	6918      	ldr	r0, [r3, #16]
  405242:	f001 fa8f 	bl	406764 <__hi0bits>
  405246:	f1c0 0020 	rsb	r0, r0, #32
  40524a:	e02d      	b.n	4052a8 <_dtoa_r+0x4f8>
  40524c:	2301      	movs	r3, #1
  40524e:	930b      	str	r3, [sp, #44]	; 0x2c
  405250:	e66f      	b.n	404f32 <_dtoa_r+0x182>
  405252:	9804      	ldr	r0, [sp, #16]
  405254:	f7fd fe80 	bl	402f58 <__aeabi_i2d>
  405258:	4632      	mov	r2, r6
  40525a:	463b      	mov	r3, r7
  40525c:	f7fe f94a 	bl	4034f4 <__aeabi_dcmpeq>
  405260:	2800      	cmp	r0, #0
  405262:	f47f ae50 	bne.w	404f06 <_dtoa_r+0x156>
  405266:	9b04      	ldr	r3, [sp, #16]
  405268:	3b01      	subs	r3, #1
  40526a:	9304      	str	r3, [sp, #16]
  40526c:	e64b      	b.n	404f06 <_dtoa_r+0x156>
  40526e:	9a05      	ldr	r2, [sp, #20]
  405270:	9b04      	ldr	r3, [sp, #16]
  405272:	1ad2      	subs	r2, r2, r3
  405274:	425b      	negs	r3, r3
  405276:	9308      	str	r3, [sp, #32]
  405278:	2300      	movs	r3, #0
  40527a:	9205      	str	r2, [sp, #20]
  40527c:	930a      	str	r3, [sp, #40]	; 0x28
  40527e:	e668      	b.n	404f52 <_dtoa_r+0x1a2>
  405280:	f1ca 0300 	rsb	r3, sl, #0
  405284:	9305      	str	r3, [sp, #20]
  405286:	f04f 0a00 	mov.w	sl, #0
  40528a:	e65a      	b.n	404f42 <_dtoa_r+0x192>
  40528c:	9f08      	ldr	r7, [sp, #32]
  40528e:	9d05      	ldr	r5, [sp, #20]
  405290:	9e09      	ldr	r6, [sp, #36]	; 0x24
  405292:	e791      	b.n	4051b8 <_dtoa_r+0x408>
  405294:	9b20      	ldr	r3, [sp, #128]	; 0x80
  405296:	2b01      	cmp	r3, #1
  405298:	f340 82b3 	ble.w	405802 <_dtoa_r+0xa52>
  40529c:	f04f 0900 	mov.w	r9, #0
  4052a0:	9b0a      	ldr	r3, [sp, #40]	; 0x28
  4052a2:	2b00      	cmp	r3, #0
  4052a4:	d1c8      	bne.n	405238 <_dtoa_r+0x488>
  4052a6:	2001      	movs	r0, #1
  4052a8:	4450      	add	r0, sl
  4052aa:	f010 001f 	ands.w	r0, r0, #31
  4052ae:	f000 8081 	beq.w	4053b4 <_dtoa_r+0x604>
  4052b2:	f1c0 0320 	rsb	r3, r0, #32
  4052b6:	2b04      	cmp	r3, #4
  4052b8:	f340 84b8 	ble.w	405c2c <_dtoa_r+0xe7c>
  4052bc:	f1c0 001c 	rsb	r0, r0, #28
  4052c0:	9b05      	ldr	r3, [sp, #20]
  4052c2:	4403      	add	r3, r0
  4052c4:	9305      	str	r3, [sp, #20]
  4052c6:	4405      	add	r5, r0
  4052c8:	4482      	add	sl, r0
  4052ca:	9b05      	ldr	r3, [sp, #20]
  4052cc:	2b00      	cmp	r3, #0
  4052ce:	dd05      	ble.n	4052dc <_dtoa_r+0x52c>
  4052d0:	4659      	mov	r1, fp
  4052d2:	461a      	mov	r2, r3
  4052d4:	4620      	mov	r0, r4
  4052d6:	f001 fb87 	bl	4069e8 <__lshift>
  4052da:	4683      	mov	fp, r0
  4052dc:	f1ba 0f00 	cmp.w	sl, #0
  4052e0:	dd05      	ble.n	4052ee <_dtoa_r+0x53e>
  4052e2:	4641      	mov	r1, r8
  4052e4:	4652      	mov	r2, sl
  4052e6:	4620      	mov	r0, r4
  4052e8:	f001 fb7e 	bl	4069e8 <__lshift>
  4052ec:	4680      	mov	r8, r0
  4052ee:	9b0b      	ldr	r3, [sp, #44]	; 0x2c
  4052f0:	2b00      	cmp	r3, #0
  4052f2:	f040 8268 	bne.w	4057c6 <_dtoa_r+0xa16>
  4052f6:	9b06      	ldr	r3, [sp, #24]
  4052f8:	2b00      	cmp	r3, #0
  4052fa:	f340 8295 	ble.w	405828 <_dtoa_r+0xa78>
  4052fe:	9b09      	ldr	r3, [sp, #36]	; 0x24
  405300:	2b00      	cmp	r3, #0
  405302:	d171      	bne.n	4053e8 <_dtoa_r+0x638>
  405304:	f8dd 901c 	ldr.w	r9, [sp, #28]
  405308:	9f06      	ldr	r7, [sp, #24]
  40530a:	464d      	mov	r5, r9
  40530c:	e002      	b.n	405314 <_dtoa_r+0x564>
  40530e:	f001 f9e7 	bl	4066e0 <__multadd>
  405312:	4683      	mov	fp, r0
  405314:	4641      	mov	r1, r8
  405316:	4658      	mov	r0, fp
  405318:	f7ff fcb2 	bl	404c80 <quorem>
  40531c:	f100 0c30 	add.w	ip, r0, #48	; 0x30
  405320:	f805 cb01 	strb.w	ip, [r5], #1
  405324:	ebc9 0305 	rsb	r3, r9, r5
  405328:	42bb      	cmp	r3, r7
  40532a:	4620      	mov	r0, r4
  40532c:	4659      	mov	r1, fp
  40532e:	f04f 020a 	mov.w	r2, #10
  405332:	f04f 0300 	mov.w	r3, #0
  405336:	dbea      	blt.n	40530e <_dtoa_r+0x55e>
  405338:	9b07      	ldr	r3, [sp, #28]
  40533a:	9a06      	ldr	r2, [sp, #24]
  40533c:	2a01      	cmp	r2, #1
  40533e:	bfac      	ite	ge
  405340:	189b      	addge	r3, r3, r2
  405342:	3301      	addlt	r3, #1
  405344:	461d      	mov	r5, r3
  405346:	f04f 0a00 	mov.w	sl, #0
  40534a:	4659      	mov	r1, fp
  40534c:	2201      	movs	r2, #1
  40534e:	4620      	mov	r0, r4
  405350:	f8cd c008 	str.w	ip, [sp, #8]
  405354:	f001 fb48 	bl	4069e8 <__lshift>
  405358:	4641      	mov	r1, r8
  40535a:	4683      	mov	fp, r0
  40535c:	f001 fb9a 	bl	406a94 <__mcmp>
  405360:	2800      	cmp	r0, #0
  405362:	f8dd c008 	ldr.w	ip, [sp, #8]
  405366:	f340 82f6 	ble.w	405956 <_dtoa_r+0xba6>
  40536a:	f815 2c01 	ldrb.w	r2, [r5, #-1]
  40536e:	9907      	ldr	r1, [sp, #28]
  405370:	1e6b      	subs	r3, r5, #1
  405372:	e004      	b.n	40537e <_dtoa_r+0x5ce>
  405374:	428b      	cmp	r3, r1
  405376:	f000 8273 	beq.w	405860 <_dtoa_r+0xab0>
  40537a:	f813 2d01 	ldrb.w	r2, [r3, #-1]!
  40537e:	2a39      	cmp	r2, #57	; 0x39
  405380:	f103 0501 	add.w	r5, r3, #1
  405384:	d0f6      	beq.n	405374 <_dtoa_r+0x5c4>
  405386:	3201      	adds	r2, #1
  405388:	701a      	strb	r2, [r3, #0]
  40538a:	4641      	mov	r1, r8
  40538c:	4620      	mov	r0, r4
  40538e:	f001 f99d 	bl	4066cc <_Bfree>
  405392:	2e00      	cmp	r6, #0
  405394:	f43f aedf 	beq.w	405156 <_dtoa_r+0x3a6>
  405398:	f1ba 0f00 	cmp.w	sl, #0
  40539c:	d005      	beq.n	4053aa <_dtoa_r+0x5fa>
  40539e:	45b2      	cmp	sl, r6
  4053a0:	d003      	beq.n	4053aa <_dtoa_r+0x5fa>
  4053a2:	4651      	mov	r1, sl
  4053a4:	4620      	mov	r0, r4
  4053a6:	f001 f991 	bl	4066cc <_Bfree>
  4053aa:	4631      	mov	r1, r6
  4053ac:	4620      	mov	r0, r4
  4053ae:	f001 f98d 	bl	4066cc <_Bfree>
  4053b2:	e6d0      	b.n	405156 <_dtoa_r+0x3a6>
  4053b4:	201c      	movs	r0, #28
  4053b6:	e783      	b.n	4052c0 <_dtoa_r+0x510>
  4053b8:	4b04      	ldr	r3, [pc, #16]	; (4053cc <_dtoa_r+0x61c>)
  4053ba:	9a02      	ldr	r2, [sp, #8]
  4053bc:	1b5b      	subs	r3, r3, r5
  4053be:	fa02 f003 	lsl.w	r0, r2, r3
  4053c2:	e56d      	b.n	404ea0 <_dtoa_r+0xf0>
  4053c4:	900b      	str	r0, [sp, #44]	; 0x2c
  4053c6:	e5b4      	b.n	404f32 <_dtoa_r+0x182>
  4053c8:	40240000 	.word	0x40240000
  4053cc:	fffffbee 	.word	0xfffffbee
  4053d0:	4631      	mov	r1, r6
  4053d2:	2300      	movs	r3, #0
  4053d4:	4620      	mov	r0, r4
  4053d6:	220a      	movs	r2, #10
  4053d8:	f001 f982 	bl	4066e0 <__multadd>
  4053dc:	9b0c      	ldr	r3, [sp, #48]	; 0x30
  4053de:	2b00      	cmp	r3, #0
  4053e0:	4606      	mov	r6, r0
  4053e2:	f340 840c 	ble.w	405bfe <_dtoa_r+0xe4e>
  4053e6:	9306      	str	r3, [sp, #24]
  4053e8:	2d00      	cmp	r5, #0
  4053ea:	dd05      	ble.n	4053f8 <_dtoa_r+0x648>
  4053ec:	4631      	mov	r1, r6
  4053ee:	462a      	mov	r2, r5
  4053f0:	4620      	mov	r0, r4
  4053f2:	f001 faf9 	bl	4069e8 <__lshift>
  4053f6:	4606      	mov	r6, r0
  4053f8:	f1b9 0f00 	cmp.w	r9, #0
  4053fc:	f040 82e9 	bne.w	4059d2 <_dtoa_r+0xc22>
  405400:	46b1      	mov	r9, r6
  405402:	9b06      	ldr	r3, [sp, #24]
  405404:	9a07      	ldr	r2, [sp, #28]
  405406:	3b01      	subs	r3, #1
  405408:	18d3      	adds	r3, r2, r3
  40540a:	9308      	str	r3, [sp, #32]
  40540c:	9b02      	ldr	r3, [sp, #8]
  40540e:	f003 0301 	and.w	r3, r3, #1
  405412:	9309      	str	r3, [sp, #36]	; 0x24
  405414:	4617      	mov	r7, r2
  405416:	4641      	mov	r1, r8
  405418:	4658      	mov	r0, fp
  40541a:	f7ff fc31 	bl	404c80 <quorem>
  40541e:	4631      	mov	r1, r6
  405420:	4605      	mov	r5, r0
  405422:	4658      	mov	r0, fp
  405424:	f001 fb36 	bl	406a94 <__mcmp>
  405428:	464a      	mov	r2, r9
  40542a:	4682      	mov	sl, r0
  40542c:	4641      	mov	r1, r8
  40542e:	4620      	mov	r0, r4
  405430:	f001 fb54 	bl	406adc <__mdiff>
  405434:	68c2      	ldr	r2, [r0, #12]
  405436:	4603      	mov	r3, r0
  405438:	f105 0c30 	add.w	ip, r5, #48	; 0x30
  40543c:	2a00      	cmp	r2, #0
  40543e:	f040 81b8 	bne.w	4057b2 <_dtoa_r+0xa02>
  405442:	4619      	mov	r1, r3
  405444:	4658      	mov	r0, fp
  405446:	f8cd c018 	str.w	ip, [sp, #24]
  40544a:	9305      	str	r3, [sp, #20]
  40544c:	f001 fb22 	bl	406a94 <__mcmp>
  405450:	9b05      	ldr	r3, [sp, #20]
  405452:	9002      	str	r0, [sp, #8]
  405454:	4619      	mov	r1, r3
  405456:	4620      	mov	r0, r4
  405458:	f001 f938 	bl	4066cc <_Bfree>
  40545c:	9a02      	ldr	r2, [sp, #8]
  40545e:	f8dd c018 	ldr.w	ip, [sp, #24]
  405462:	b92a      	cbnz	r2, 405470 <_dtoa_r+0x6c0>
  405464:	9b20      	ldr	r3, [sp, #128]	; 0x80
  405466:	b91b      	cbnz	r3, 405470 <_dtoa_r+0x6c0>
  405468:	9b09      	ldr	r3, [sp, #36]	; 0x24
  40546a:	2b00      	cmp	r3, #0
  40546c:	f000 83a7 	beq.w	405bbe <_dtoa_r+0xe0e>
  405470:	f1ba 0f00 	cmp.w	sl, #0
  405474:	f2c0 8251 	blt.w	40591a <_dtoa_r+0xb6a>
  405478:	d105      	bne.n	405486 <_dtoa_r+0x6d6>
  40547a:	9b20      	ldr	r3, [sp, #128]	; 0x80
  40547c:	b91b      	cbnz	r3, 405486 <_dtoa_r+0x6d6>
  40547e:	9b09      	ldr	r3, [sp, #36]	; 0x24
  405480:	2b00      	cmp	r3, #0
  405482:	f000 824a 	beq.w	40591a <_dtoa_r+0xb6a>
  405486:	2a00      	cmp	r2, #0
  405488:	f300 82b7 	bgt.w	4059fa <_dtoa_r+0xc4a>
  40548c:	9b08      	ldr	r3, [sp, #32]
  40548e:	f887 c000 	strb.w	ip, [r7]
  405492:	f107 0a01 	add.w	sl, r7, #1
  405496:	429f      	cmp	r7, r3
  405498:	4655      	mov	r5, sl
  40549a:	f000 82ba 	beq.w	405a12 <_dtoa_r+0xc62>
  40549e:	4659      	mov	r1, fp
  4054a0:	220a      	movs	r2, #10
  4054a2:	2300      	movs	r3, #0
  4054a4:	4620      	mov	r0, r4
  4054a6:	f001 f91b 	bl	4066e0 <__multadd>
  4054aa:	454e      	cmp	r6, r9
  4054ac:	4683      	mov	fp, r0
  4054ae:	4631      	mov	r1, r6
  4054b0:	4620      	mov	r0, r4
  4054b2:	f04f 020a 	mov.w	r2, #10
  4054b6:	f04f 0300 	mov.w	r3, #0
  4054ba:	f000 8174 	beq.w	4057a6 <_dtoa_r+0x9f6>
  4054be:	f001 f90f 	bl	4066e0 <__multadd>
  4054c2:	4649      	mov	r1, r9
  4054c4:	4606      	mov	r6, r0
  4054c6:	220a      	movs	r2, #10
  4054c8:	4620      	mov	r0, r4
  4054ca:	2300      	movs	r3, #0
  4054cc:	f001 f908 	bl	4066e0 <__multadd>
  4054d0:	4657      	mov	r7, sl
  4054d2:	4681      	mov	r9, r0
  4054d4:	e79f      	b.n	405416 <_dtoa_r+0x666>
  4054d6:	2301      	movs	r3, #1
  4054d8:	9309      	str	r3, [sp, #36]	; 0x24
  4054da:	9b21      	ldr	r3, [sp, #132]	; 0x84
  4054dc:	2b00      	cmp	r3, #0
  4054de:	f340 8213 	ble.w	405908 <_dtoa_r+0xb58>
  4054e2:	461f      	mov	r7, r3
  4054e4:	461e      	mov	r6, r3
  4054e6:	930c      	str	r3, [sp, #48]	; 0x30
  4054e8:	9306      	str	r3, [sp, #24]
  4054ea:	2100      	movs	r1, #0
  4054ec:	2f17      	cmp	r7, #23
  4054ee:	6461      	str	r1, [r4, #68]	; 0x44
  4054f0:	d90a      	bls.n	405508 <_dtoa_r+0x758>
  4054f2:	2201      	movs	r2, #1
  4054f4:	2304      	movs	r3, #4
  4054f6:	005b      	lsls	r3, r3, #1
  4054f8:	f103 0014 	add.w	r0, r3, #20
  4054fc:	4287      	cmp	r7, r0
  4054fe:	4611      	mov	r1, r2
  405500:	f102 0201 	add.w	r2, r2, #1
  405504:	d2f7      	bcs.n	4054f6 <_dtoa_r+0x746>
  405506:	6461      	str	r1, [r4, #68]	; 0x44
  405508:	4620      	mov	r0, r4
  40550a:	f001 f8b9 	bl	406680 <_Balloc>
  40550e:	2e0e      	cmp	r6, #14
  405510:	9007      	str	r0, [sp, #28]
  405512:	6420      	str	r0, [r4, #64]	; 0x40
  405514:	f63f ad5c 	bhi.w	404fd0 <_dtoa_r+0x220>
  405518:	2d00      	cmp	r5, #0
  40551a:	f43f ad59 	beq.w	404fd0 <_dtoa_r+0x220>
  40551e:	e9dd 2302 	ldrd	r2, r3, [sp, #8]
  405522:	9904      	ldr	r1, [sp, #16]
  405524:	2900      	cmp	r1, #0
  405526:	e9cd 230e 	strd	r2, r3, [sp, #56]	; 0x38
  40552a:	f340 8221 	ble.w	405970 <_dtoa_r+0xbc0>
  40552e:	4bb7      	ldr	r3, [pc, #732]	; (40580c <_dtoa_r+0xa5c>)
  405530:	f001 020f 	and.w	r2, r1, #15
  405534:	110d      	asrs	r5, r1, #4
  405536:	eb03 03c2 	add.w	r3, r3, r2, lsl #3
  40553a:	06e9      	lsls	r1, r5, #27
  40553c:	e9d3 6700 	ldrd	r6, r7, [r3]
  405540:	f140 81db 	bpl.w	4058fa <_dtoa_r+0xb4a>
  405544:	4bb2      	ldr	r3, [pc, #712]	; (405810 <_dtoa_r+0xa60>)
  405546:	e9dd 010e 	ldrd	r0, r1, [sp, #56]	; 0x38
  40554a:	e9d3 2308 	ldrd	r2, r3, [r3, #32]
  40554e:	f7fd fe93 	bl	403278 <__aeabi_ddiv>
  405552:	e9cd 0102 	strd	r0, r1, [sp, #8]
  405556:	f005 050f 	and.w	r5, r5, #15
  40555a:	f04f 0803 	mov.w	r8, #3
  40555e:	b18d      	cbz	r5, 405584 <_dtoa_r+0x7d4>
  405560:	f8df 92ac 	ldr.w	r9, [pc, #684]	; 405810 <_dtoa_r+0xa60>
  405564:	4630      	mov	r0, r6
  405566:	4639      	mov	r1, r7
  405568:	07ea      	lsls	r2, r5, #31
  40556a:	d505      	bpl.n	405578 <_dtoa_r+0x7c8>
  40556c:	e9d9 2300 	ldrd	r2, r3, [r9]
  405570:	f108 0801 	add.w	r8, r8, #1
  405574:	f7fd fd56 	bl	403024 <__aeabi_dmul>
  405578:	106d      	asrs	r5, r5, #1
  40557a:	f109 0908 	add.w	r9, r9, #8
  40557e:	d1f3      	bne.n	405568 <_dtoa_r+0x7b8>
  405580:	4606      	mov	r6, r0
  405582:	460f      	mov	r7, r1
  405584:	e9dd 0102 	ldrd	r0, r1, [sp, #8]
  405588:	4632      	mov	r2, r6
  40558a:	463b      	mov	r3, r7
  40558c:	f7fd fe74 	bl	403278 <__aeabi_ddiv>
  405590:	e9cd 0102 	strd	r0, r1, [sp, #8]
  405594:	9b0b      	ldr	r3, [sp, #44]	; 0x2c
  405596:	b143      	cbz	r3, 4055aa <_dtoa_r+0x7fa>
  405598:	e9dd 0102 	ldrd	r0, r1, [sp, #8]
  40559c:	2200      	movs	r2, #0
  40559e:	4b9d      	ldr	r3, [pc, #628]	; (405814 <_dtoa_r+0xa64>)
  4055a0:	f7fd ffb2 	bl	403508 <__aeabi_dcmplt>
  4055a4:	2800      	cmp	r0, #0
  4055a6:	f040 82ac 	bne.w	405b02 <_dtoa_r+0xd52>
  4055aa:	4640      	mov	r0, r8
  4055ac:	f7fd fcd4 	bl	402f58 <__aeabi_i2d>
  4055b0:	e9dd 2302 	ldrd	r2, r3, [sp, #8]
  4055b4:	f7fd fd36 	bl	403024 <__aeabi_dmul>
  4055b8:	4b97      	ldr	r3, [pc, #604]	; (405818 <_dtoa_r+0xa68>)
  4055ba:	2200      	movs	r2, #0
  4055bc:	f7fd fb80 	bl	402cc0 <__adddf3>
  4055c0:	9b06      	ldr	r3, [sp, #24]
  4055c2:	4606      	mov	r6, r0
  4055c4:	f1a1 7750 	sub.w	r7, r1, #54525952	; 0x3400000
  4055c8:	2b00      	cmp	r3, #0
  4055ca:	f000 8162 	beq.w	405892 <_dtoa_r+0xae2>
  4055ce:	9b04      	ldr	r3, [sp, #16]
  4055d0:	f8dd 9018 	ldr.w	r9, [sp, #24]
  4055d4:	9312      	str	r3, [sp, #72]	; 0x48
  4055d6:	9b09      	ldr	r3, [sp, #36]	; 0x24
  4055d8:	2b00      	cmp	r3, #0
  4055da:	f000 8221 	beq.w	405a20 <_dtoa_r+0xc70>
  4055de:	4b8b      	ldr	r3, [pc, #556]	; (40580c <_dtoa_r+0xa5c>)
  4055e0:	498e      	ldr	r1, [pc, #568]	; (40581c <_dtoa_r+0xa6c>)
  4055e2:	eb03 03c9 	add.w	r3, r3, r9, lsl #3
  4055e6:	e953 2302 	ldrd	r2, r3, [r3, #-8]
  4055ea:	2000      	movs	r0, #0
  4055ec:	f7fd fe44 	bl	403278 <__aeabi_ddiv>
  4055f0:	4632      	mov	r2, r6
  4055f2:	463b      	mov	r3, r7
  4055f4:	f7fd fb62 	bl	402cbc <__aeabi_dsub>
  4055f8:	e9dd 6702 	ldrd	r6, r7, [sp, #8]
  4055fc:	e9cd 0110 	strd	r0, r1, [sp, #64]	; 0x40
  405600:	4639      	mov	r1, r7
  405602:	4630      	mov	r0, r6
  405604:	f7fd ffa8 	bl	403558 <__aeabi_d2iz>
  405608:	4605      	mov	r5, r0
  40560a:	f7fd fca5 	bl	402f58 <__aeabi_i2d>
  40560e:	3530      	adds	r5, #48	; 0x30
  405610:	4602      	mov	r2, r0
  405612:	460b      	mov	r3, r1
  405614:	4630      	mov	r0, r6
  405616:	4639      	mov	r1, r7
  405618:	f7fd fb50 	bl	402cbc <__aeabi_dsub>
  40561c:	fa5f f885 	uxtb.w	r8, r5
  405620:	9d07      	ldr	r5, [sp, #28]
  405622:	e9dd 2310 	ldrd	r2, r3, [sp, #64]	; 0x40
  405626:	f885 8000 	strb.w	r8, [r5]
  40562a:	4606      	mov	r6, r0
  40562c:	460f      	mov	r7, r1
  40562e:	3501      	adds	r5, #1
  405630:	f7fd ff6a 	bl	403508 <__aeabi_dcmplt>
  405634:	2800      	cmp	r0, #0
  405636:	f040 82b2 	bne.w	405b9e <_dtoa_r+0xdee>
  40563a:	4632      	mov	r2, r6
  40563c:	463b      	mov	r3, r7
  40563e:	2000      	movs	r0, #0
  405640:	4974      	ldr	r1, [pc, #464]	; (405814 <_dtoa_r+0xa64>)
  405642:	f7fd fb3b 	bl	402cbc <__aeabi_dsub>
  405646:	4602      	mov	r2, r0
  405648:	460b      	mov	r3, r1
  40564a:	e9dd 0110 	ldrd	r0, r1, [sp, #64]	; 0x40
  40564e:	f7fd ff79 	bl	403544 <__aeabi_dcmpgt>
  405652:	2800      	cmp	r0, #0
  405654:	f040 82ac 	bne.w	405bb0 <_dtoa_r+0xe00>
  405658:	f1b9 0f01 	cmp.w	r9, #1
  40565c:	f340 8138 	ble.w	4058d0 <_dtoa_r+0xb20>
  405660:	9b07      	ldr	r3, [sp, #28]
  405662:	f8cd a04c 	str.w	sl, [sp, #76]	; 0x4c
  405666:	f8cd b008 	str.w	fp, [sp, #8]
  40566a:	4499      	add	r9, r3
  40566c:	e9dd ab10 	ldrd	sl, fp, [sp, #64]	; 0x40
  405670:	46a0      	mov	r8, r4
  405672:	e00d      	b.n	405690 <_dtoa_r+0x8e0>
  405674:	2000      	movs	r0, #0
  405676:	4967      	ldr	r1, [pc, #412]	; (405814 <_dtoa_r+0xa64>)
  405678:	f7fd fb20 	bl	402cbc <__aeabi_dsub>
  40567c:	4652      	mov	r2, sl
  40567e:	465b      	mov	r3, fp
  405680:	f7fd ff42 	bl	403508 <__aeabi_dcmplt>
  405684:	2800      	cmp	r0, #0
  405686:	f040 828e 	bne.w	405ba6 <_dtoa_r+0xdf6>
  40568a:	454d      	cmp	r5, r9
  40568c:	f000 811b 	beq.w	4058c6 <_dtoa_r+0xb16>
  405690:	4650      	mov	r0, sl
  405692:	4659      	mov	r1, fp
  405694:	2200      	movs	r2, #0
  405696:	4b62      	ldr	r3, [pc, #392]	; (405820 <_dtoa_r+0xa70>)
  405698:	f7fd fcc4 	bl	403024 <__aeabi_dmul>
  40569c:	2200      	movs	r2, #0
  40569e:	4b60      	ldr	r3, [pc, #384]	; (405820 <_dtoa_r+0xa70>)
  4056a0:	4682      	mov	sl, r0
  4056a2:	468b      	mov	fp, r1
  4056a4:	4630      	mov	r0, r6
  4056a6:	4639      	mov	r1, r7
  4056a8:	f7fd fcbc 	bl	403024 <__aeabi_dmul>
  4056ac:	460f      	mov	r7, r1
  4056ae:	4606      	mov	r6, r0
  4056b0:	f7fd ff52 	bl	403558 <__aeabi_d2iz>
  4056b4:	4604      	mov	r4, r0
  4056b6:	f7fd fc4f 	bl	402f58 <__aeabi_i2d>
  4056ba:	4602      	mov	r2, r0
  4056bc:	460b      	mov	r3, r1
  4056be:	4630      	mov	r0, r6
  4056c0:	4639      	mov	r1, r7
  4056c2:	f7fd fafb 	bl	402cbc <__aeabi_dsub>
  4056c6:	3430      	adds	r4, #48	; 0x30
  4056c8:	b2e4      	uxtb	r4, r4
  4056ca:	4652      	mov	r2, sl
  4056cc:	465b      	mov	r3, fp
  4056ce:	f805 4b01 	strb.w	r4, [r5], #1
  4056d2:	4606      	mov	r6, r0
  4056d4:	460f      	mov	r7, r1
  4056d6:	f7fd ff17 	bl	403508 <__aeabi_dcmplt>
  4056da:	4632      	mov	r2, r6
  4056dc:	463b      	mov	r3, r7
  4056de:	2800      	cmp	r0, #0
  4056e0:	d0c8      	beq.n	405674 <_dtoa_r+0x8c4>
  4056e2:	9b12      	ldr	r3, [sp, #72]	; 0x48
  4056e4:	f8dd b008 	ldr.w	fp, [sp, #8]
  4056e8:	9304      	str	r3, [sp, #16]
  4056ea:	4644      	mov	r4, r8
  4056ec:	e533      	b.n	405156 <_dtoa_r+0x3a6>
  4056ee:	2300      	movs	r3, #0
  4056f0:	9309      	str	r3, [sp, #36]	; 0x24
  4056f2:	9b21      	ldr	r3, [sp, #132]	; 0x84
  4056f4:	9a04      	ldr	r2, [sp, #16]
  4056f6:	4413      	add	r3, r2
  4056f8:	930c      	str	r3, [sp, #48]	; 0x30
  4056fa:	3301      	adds	r3, #1
  4056fc:	2b00      	cmp	r3, #0
  4056fe:	9306      	str	r3, [sp, #24]
  405700:	f340 8109 	ble.w	405916 <_dtoa_r+0xb66>
  405704:	9e06      	ldr	r6, [sp, #24]
  405706:	4637      	mov	r7, r6
  405708:	e6ef      	b.n	4054ea <_dtoa_r+0x73a>
  40570a:	2300      	movs	r3, #0
  40570c:	9309      	str	r3, [sp, #36]	; 0x24
  40570e:	e6e4      	b.n	4054da <_dtoa_r+0x72a>
  405710:	9b06      	ldr	r3, [sp, #24]
  405712:	2b00      	cmp	r3, #0
  405714:	f73f ac6d 	bgt.w	404ff2 <_dtoa_r+0x242>
  405718:	f040 8262 	bne.w	405be0 <_dtoa_r+0xe30>
  40571c:	4640      	mov	r0, r8
  40571e:	2200      	movs	r2, #0
  405720:	4b40      	ldr	r3, [pc, #256]	; (405824 <_dtoa_r+0xa74>)
  405722:	4649      	mov	r1, r9
  405724:	f7fd fc7e 	bl	403024 <__aeabi_dmul>
  405728:	e9dd 2302 	ldrd	r2, r3, [sp, #8]
  40572c:	f7fd ff00 	bl	403530 <__aeabi_dcmpge>
  405730:	f8dd 8018 	ldr.w	r8, [sp, #24]
  405734:	4646      	mov	r6, r8
  405736:	2800      	cmp	r0, #0
  405738:	f000 808a 	beq.w	405850 <_dtoa_r+0xaa0>
  40573c:	9b21      	ldr	r3, [sp, #132]	; 0x84
  40573e:	9d07      	ldr	r5, [sp, #28]
  405740:	43db      	mvns	r3, r3
  405742:	9304      	str	r3, [sp, #16]
  405744:	4641      	mov	r1, r8
  405746:	4620      	mov	r0, r4
  405748:	f000 ffc0 	bl	4066cc <_Bfree>
  40574c:	2e00      	cmp	r6, #0
  40574e:	f47f ae2c 	bne.w	4053aa <_dtoa_r+0x5fa>
  405752:	e500      	b.n	405156 <_dtoa_r+0x3a6>
  405754:	4659      	mov	r1, fp
  405756:	4620      	mov	r0, r4
  405758:	f001 f8f6 	bl	406948 <__pow5mult>
  40575c:	4683      	mov	fp, r0
  40575e:	e557      	b.n	405210 <_dtoa_r+0x460>
  405760:	9b02      	ldr	r3, [sp, #8]
  405762:	2b00      	cmp	r3, #0
  405764:	f47f ad66 	bne.w	405234 <_dtoa_r+0x484>
  405768:	9b03      	ldr	r3, [sp, #12]
  40576a:	f3c3 0313 	ubfx	r3, r3, #0, #20
  40576e:	2b00      	cmp	r3, #0
  405770:	f47f ad94 	bne.w	40529c <_dtoa_r+0x4ec>
  405774:	9b03      	ldr	r3, [sp, #12]
  405776:	f023 4700 	bic.w	r7, r3, #2147483648	; 0x80000000
  40577a:	0d3f      	lsrs	r7, r7, #20
  40577c:	053f      	lsls	r7, r7, #20
  40577e:	2f00      	cmp	r7, #0
  405780:	f000 821a 	beq.w	405bb8 <_dtoa_r+0xe08>
  405784:	9b05      	ldr	r3, [sp, #20]
  405786:	3301      	adds	r3, #1
  405788:	9305      	str	r3, [sp, #20]
  40578a:	f10a 0a01 	add.w	sl, sl, #1
  40578e:	f04f 0901 	mov.w	r9, #1
  405792:	e585      	b.n	4052a0 <_dtoa_r+0x4f0>
  405794:	9a0d      	ldr	r2, [sp, #52]	; 0x34
  405796:	2a00      	cmp	r2, #0
  405798:	f000 81a5 	beq.w	405ae6 <_dtoa_r+0xd36>
  40579c:	f203 4333 	addw	r3, r3, #1075	; 0x433
  4057a0:	9f08      	ldr	r7, [sp, #32]
  4057a2:	9d05      	ldr	r5, [sp, #20]
  4057a4:	e4ff      	b.n	4051a6 <_dtoa_r+0x3f6>
  4057a6:	f000 ff9b 	bl	4066e0 <__multadd>
  4057aa:	4657      	mov	r7, sl
  4057ac:	4606      	mov	r6, r0
  4057ae:	4681      	mov	r9, r0
  4057b0:	e631      	b.n	405416 <_dtoa_r+0x666>
  4057b2:	4601      	mov	r1, r0
  4057b4:	4620      	mov	r0, r4
  4057b6:	f8cd c008 	str.w	ip, [sp, #8]
  4057ba:	f000 ff87 	bl	4066cc <_Bfree>
  4057be:	2201      	movs	r2, #1
  4057c0:	f8dd c008 	ldr.w	ip, [sp, #8]
  4057c4:	e654      	b.n	405470 <_dtoa_r+0x6c0>
  4057c6:	4658      	mov	r0, fp
  4057c8:	4641      	mov	r1, r8
  4057ca:	f001 f963 	bl	406a94 <__mcmp>
  4057ce:	2800      	cmp	r0, #0
  4057d0:	f6bf ad91 	bge.w	4052f6 <_dtoa_r+0x546>
  4057d4:	9f04      	ldr	r7, [sp, #16]
  4057d6:	4659      	mov	r1, fp
  4057d8:	2300      	movs	r3, #0
  4057da:	4620      	mov	r0, r4
  4057dc:	220a      	movs	r2, #10
  4057de:	3f01      	subs	r7, #1
  4057e0:	9704      	str	r7, [sp, #16]
  4057e2:	f000 ff7d 	bl	4066e0 <__multadd>
  4057e6:	9b09      	ldr	r3, [sp, #36]	; 0x24
  4057e8:	4683      	mov	fp, r0
  4057ea:	2b00      	cmp	r3, #0
  4057ec:	f47f adf0 	bne.w	4053d0 <_dtoa_r+0x620>
  4057f0:	9b0c      	ldr	r3, [sp, #48]	; 0x30
  4057f2:	2b00      	cmp	r3, #0
  4057f4:	f340 81f8 	ble.w	405be8 <_dtoa_r+0xe38>
  4057f8:	9306      	str	r3, [sp, #24]
  4057fa:	e583      	b.n	405304 <_dtoa_r+0x554>
  4057fc:	9807      	ldr	r0, [sp, #28]
  4057fe:	f7ff bb0b 	b.w	404e18 <_dtoa_r+0x68>
  405802:	9b02      	ldr	r3, [sp, #8]
  405804:	2b00      	cmp	r3, #0
  405806:	f47f ad49 	bne.w	40529c <_dtoa_r+0x4ec>
  40580a:	e7ad      	b.n	405768 <_dtoa_r+0x9b8>
  40580c:	0041f970 	.word	0x0041f970
  405810:	0041fa48 	.word	0x0041fa48
  405814:	3ff00000 	.word	0x3ff00000
  405818:	401c0000 	.word	0x401c0000
  40581c:	3fe00000 	.word	0x3fe00000
  405820:	40240000 	.word	0x40240000
  405824:	40140000 	.word	0x40140000
  405828:	9b20      	ldr	r3, [sp, #128]	; 0x80
  40582a:	2b02      	cmp	r3, #2
  40582c:	f77f ad67 	ble.w	4052fe <_dtoa_r+0x54e>
  405830:	9b06      	ldr	r3, [sp, #24]
  405832:	2b00      	cmp	r3, #0
  405834:	d182      	bne.n	40573c <_dtoa_r+0x98c>
  405836:	4641      	mov	r1, r8
  405838:	2205      	movs	r2, #5
  40583a:	4620      	mov	r0, r4
  40583c:	f000 ff50 	bl	4066e0 <__multadd>
  405840:	4680      	mov	r8, r0
  405842:	4641      	mov	r1, r8
  405844:	4658      	mov	r0, fp
  405846:	f001 f925 	bl	406a94 <__mcmp>
  40584a:	2800      	cmp	r0, #0
  40584c:	f77f af76 	ble.w	40573c <_dtoa_r+0x98c>
  405850:	9a04      	ldr	r2, [sp, #16]
  405852:	9907      	ldr	r1, [sp, #28]
  405854:	2331      	movs	r3, #49	; 0x31
  405856:	3201      	adds	r2, #1
  405858:	9204      	str	r2, [sp, #16]
  40585a:	700b      	strb	r3, [r1, #0]
  40585c:	1c4d      	adds	r5, r1, #1
  40585e:	e771      	b.n	405744 <_dtoa_r+0x994>
  405860:	9a04      	ldr	r2, [sp, #16]
  405862:	3201      	adds	r2, #1
  405864:	9204      	str	r2, [sp, #16]
  405866:	9a07      	ldr	r2, [sp, #28]
  405868:	2331      	movs	r3, #49	; 0x31
  40586a:	7013      	strb	r3, [r2, #0]
  40586c:	e58d      	b.n	40538a <_dtoa_r+0x5da>
  40586e:	f8dd b008 	ldr.w	fp, [sp, #8]
  405872:	9c05      	ldr	r4, [sp, #20]
  405874:	e46f      	b.n	405156 <_dtoa_r+0x3a6>
  405876:	4640      	mov	r0, r8
  405878:	f7fd fb6e 	bl	402f58 <__aeabi_i2d>
  40587c:	e9dd 2302 	ldrd	r2, r3, [sp, #8]
  405880:	f7fd fbd0 	bl	403024 <__aeabi_dmul>
  405884:	2200      	movs	r2, #0
  405886:	4bbc      	ldr	r3, [pc, #752]	; (405b78 <_dtoa_r+0xdc8>)
  405888:	f7fd fa1a 	bl	402cc0 <__adddf3>
  40588c:	4606      	mov	r6, r0
  40588e:	f1a1 7750 	sub.w	r7, r1, #54525952	; 0x3400000
  405892:	e9dd 0102 	ldrd	r0, r1, [sp, #8]
  405896:	2200      	movs	r2, #0
  405898:	4bb8      	ldr	r3, [pc, #736]	; (405b7c <_dtoa_r+0xdcc>)
  40589a:	f7fd fa0f 	bl	402cbc <__aeabi_dsub>
  40589e:	4632      	mov	r2, r6
  4058a0:	463b      	mov	r3, r7
  4058a2:	e9cd 0102 	strd	r0, r1, [sp, #8]
  4058a6:	f7fd fe4d 	bl	403544 <__aeabi_dcmpgt>
  4058aa:	4680      	mov	r8, r0
  4058ac:	2800      	cmp	r0, #0
  4058ae:	f040 80b3 	bne.w	405a18 <_dtoa_r+0xc68>
  4058b2:	4632      	mov	r2, r6
  4058b4:	f107 4300 	add.w	r3, r7, #2147483648	; 0x80000000
  4058b8:	e9dd 0102 	ldrd	r0, r1, [sp, #8]
  4058bc:	f7fd fe24 	bl	403508 <__aeabi_dcmplt>
  4058c0:	b130      	cbz	r0, 4058d0 <_dtoa_r+0xb20>
  4058c2:	4646      	mov	r6, r8
  4058c4:	e73a      	b.n	40573c <_dtoa_r+0x98c>
  4058c6:	f8dd a04c 	ldr.w	sl, [sp, #76]	; 0x4c
  4058ca:	f8dd b008 	ldr.w	fp, [sp, #8]
  4058ce:	4644      	mov	r4, r8
  4058d0:	e9dd 230e 	ldrd	r2, r3, [sp, #56]	; 0x38
  4058d4:	e9cd 2302 	strd	r2, r3, [sp, #8]
  4058d8:	f7ff bb7a 	b.w	404fd0 <_dtoa_r+0x220>
  4058dc:	4659      	mov	r1, fp
  4058de:	9a08      	ldr	r2, [sp, #32]
  4058e0:	4620      	mov	r0, r4
  4058e2:	f001 f831 	bl	406948 <__pow5mult>
  4058e6:	4683      	mov	fp, r0
  4058e8:	e492      	b.n	405210 <_dtoa_r+0x460>
  4058ea:	9b08      	ldr	r3, [sp, #32]
  4058ec:	9a0a      	ldr	r2, [sp, #40]	; 0x28
  4058ee:	9708      	str	r7, [sp, #32]
  4058f0:	1afb      	subs	r3, r7, r3
  4058f2:	441a      	add	r2, r3
  4058f4:	920a      	str	r2, [sp, #40]	; 0x28
  4058f6:	2700      	movs	r7, #0
  4058f8:	e44f      	b.n	40519a <_dtoa_r+0x3ea>
  4058fa:	e9dd 230e 	ldrd	r2, r3, [sp, #56]	; 0x38
  4058fe:	f04f 0802 	mov.w	r8, #2
  405902:	e9cd 2302 	strd	r2, r3, [sp, #8]
  405906:	e62a      	b.n	40555e <_dtoa_r+0x7ae>
  405908:	2601      	movs	r6, #1
  40590a:	9621      	str	r6, [sp, #132]	; 0x84
  40590c:	960c      	str	r6, [sp, #48]	; 0x30
  40590e:	9606      	str	r6, [sp, #24]
  405910:	2100      	movs	r1, #0
  405912:	6461      	str	r1, [r4, #68]	; 0x44
  405914:	e5f8      	b.n	405508 <_dtoa_r+0x758>
  405916:	461e      	mov	r6, r3
  405918:	e7fa      	b.n	405910 <_dtoa_r+0xb60>
  40591a:	2a00      	cmp	r2, #0
  40591c:	dd15      	ble.n	40594a <_dtoa_r+0xb9a>
  40591e:	4659      	mov	r1, fp
  405920:	2201      	movs	r2, #1
  405922:	4620      	mov	r0, r4
  405924:	f8cd c008 	str.w	ip, [sp, #8]
  405928:	f001 f85e 	bl	4069e8 <__lshift>
  40592c:	4641      	mov	r1, r8
  40592e:	4683      	mov	fp, r0
  405930:	f001 f8b0 	bl	406a94 <__mcmp>
  405934:	2800      	cmp	r0, #0
  405936:	f8dd c008 	ldr.w	ip, [sp, #8]
  40593a:	f340 814a 	ble.w	405bd2 <_dtoa_r+0xe22>
  40593e:	f1bc 0f39 	cmp.w	ip, #57	; 0x39
  405942:	f000 8106 	beq.w	405b52 <_dtoa_r+0xda2>
  405946:	f10c 0c01 	add.w	ip, ip, #1
  40594a:	46b2      	mov	sl, r6
  40594c:	f887 c000 	strb.w	ip, [r7]
  405950:	1c7d      	adds	r5, r7, #1
  405952:	464e      	mov	r6, r9
  405954:	e519      	b.n	40538a <_dtoa_r+0x5da>
  405956:	d104      	bne.n	405962 <_dtoa_r+0xbb2>
  405958:	f01c 0f01 	tst.w	ip, #1
  40595c:	d001      	beq.n	405962 <_dtoa_r+0xbb2>
  40595e:	e504      	b.n	40536a <_dtoa_r+0x5ba>
  405960:	4615      	mov	r5, r2
  405962:	f815 3c01 	ldrb.w	r3, [r5, #-1]
  405966:	2b30      	cmp	r3, #48	; 0x30
  405968:	f105 32ff 	add.w	r2, r5, #4294967295
  40596c:	d0f8      	beq.n	405960 <_dtoa_r+0xbb0>
  40596e:	e50c      	b.n	40538a <_dtoa_r+0x5da>
  405970:	9b04      	ldr	r3, [sp, #16]
  405972:	425d      	negs	r5, r3
  405974:	2d00      	cmp	r5, #0
  405976:	f000 80bd 	beq.w	405af4 <_dtoa_r+0xd44>
  40597a:	4b81      	ldr	r3, [pc, #516]	; (405b80 <_dtoa_r+0xdd0>)
  40597c:	f005 020f 	and.w	r2, r5, #15
  405980:	eb03 03c2 	add.w	r3, r3, r2, lsl #3
  405984:	e9d3 2300 	ldrd	r2, r3, [r3]
  405988:	e9dd 010e 	ldrd	r0, r1, [sp, #56]	; 0x38
  40598c:	f7fd fb4a 	bl	403024 <__aeabi_dmul>
  405990:	112d      	asrs	r5, r5, #4
  405992:	e9cd 0102 	strd	r0, r1, [sp, #8]
  405996:	f000 812c 	beq.w	405bf2 <_dtoa_r+0xe42>
  40599a:	4e7a      	ldr	r6, [pc, #488]	; (405b84 <_dtoa_r+0xdd4>)
  40599c:	f04f 0802 	mov.w	r8, #2
  4059a0:	07eb      	lsls	r3, r5, #31
  4059a2:	d505      	bpl.n	4059b0 <_dtoa_r+0xc00>
  4059a4:	e9d6 2300 	ldrd	r2, r3, [r6]
  4059a8:	f108 0801 	add.w	r8, r8, #1
  4059ac:	f7fd fb3a 	bl	403024 <__aeabi_dmul>
  4059b0:	106d      	asrs	r5, r5, #1
  4059b2:	f106 0608 	add.w	r6, r6, #8
  4059b6:	d1f3      	bne.n	4059a0 <_dtoa_r+0xbf0>
  4059b8:	e9cd 0102 	strd	r0, r1, [sp, #8]
  4059bc:	e5ea      	b.n	405594 <_dtoa_r+0x7e4>
  4059be:	9a04      	ldr	r2, [sp, #16]
  4059c0:	3201      	adds	r2, #1
  4059c2:	9204      	str	r2, [sp, #16]
  4059c4:	9a07      	ldr	r2, [sp, #28]
  4059c6:	2330      	movs	r3, #48	; 0x30
  4059c8:	7013      	strb	r3, [r2, #0]
  4059ca:	2331      	movs	r3, #49	; 0x31
  4059cc:	7013      	strb	r3, [r2, #0]
  4059ce:	f7ff bbc2 	b.w	405156 <_dtoa_r+0x3a6>
  4059d2:	6871      	ldr	r1, [r6, #4]
  4059d4:	4620      	mov	r0, r4
  4059d6:	f000 fe53 	bl	406680 <_Balloc>
  4059da:	6933      	ldr	r3, [r6, #16]
  4059dc:	1c9a      	adds	r2, r3, #2
  4059de:	4605      	mov	r5, r0
  4059e0:	0092      	lsls	r2, r2, #2
  4059e2:	f106 010c 	add.w	r1, r6, #12
  4059e6:	300c      	adds	r0, #12
  4059e8:	f000 fd48 	bl	40647c <memcpy>
  4059ec:	4620      	mov	r0, r4
  4059ee:	4629      	mov	r1, r5
  4059f0:	2201      	movs	r2, #1
  4059f2:	f000 fff9 	bl	4069e8 <__lshift>
  4059f6:	4681      	mov	r9, r0
  4059f8:	e503      	b.n	405402 <_dtoa_r+0x652>
  4059fa:	f1bc 0f39 	cmp.w	ip, #57	; 0x39
  4059fe:	f000 80a8 	beq.w	405b52 <_dtoa_r+0xda2>
  405a02:	f10c 0c01 	add.w	ip, ip, #1
  405a06:	46b2      	mov	sl, r6
  405a08:	f887 c000 	strb.w	ip, [r7]
  405a0c:	1c7d      	adds	r5, r7, #1
  405a0e:	464e      	mov	r6, r9
  405a10:	e4bb      	b.n	40538a <_dtoa_r+0x5da>
  405a12:	46b2      	mov	sl, r6
  405a14:	464e      	mov	r6, r9
  405a16:	e498      	b.n	40534a <_dtoa_r+0x59a>
  405a18:	f04f 0800 	mov.w	r8, #0
  405a1c:	4646      	mov	r6, r8
  405a1e:	e717      	b.n	405850 <_dtoa_r+0xaa0>
  405a20:	4957      	ldr	r1, [pc, #348]	; (405b80 <_dtoa_r+0xdd0>)
  405a22:	f109 33ff 	add.w	r3, r9, #4294967295
  405a26:	eb01 01c3 	add.w	r1, r1, r3, lsl #3
  405a2a:	4632      	mov	r2, r6
  405a2c:	9313      	str	r3, [sp, #76]	; 0x4c
  405a2e:	e9d1 0100 	ldrd	r0, r1, [r1]
  405a32:	463b      	mov	r3, r7
  405a34:	f7fd faf6 	bl	403024 <__aeabi_dmul>
  405a38:	e9dd 6702 	ldrd	r6, r7, [sp, #8]
  405a3c:	e9cd 0110 	strd	r0, r1, [sp, #64]	; 0x40
  405a40:	4639      	mov	r1, r7
  405a42:	4630      	mov	r0, r6
  405a44:	f7fd fd88 	bl	403558 <__aeabi_d2iz>
  405a48:	4605      	mov	r5, r0
  405a4a:	f7fd fa85 	bl	402f58 <__aeabi_i2d>
  405a4e:	4602      	mov	r2, r0
  405a50:	460b      	mov	r3, r1
  405a52:	4630      	mov	r0, r6
  405a54:	4639      	mov	r1, r7
  405a56:	f7fd f931 	bl	402cbc <__aeabi_dsub>
  405a5a:	9a07      	ldr	r2, [sp, #28]
  405a5c:	3530      	adds	r5, #48	; 0x30
  405a5e:	f1b9 0f01 	cmp.w	r9, #1
  405a62:	7015      	strb	r5, [r2, #0]
  405a64:	4606      	mov	r6, r0
  405a66:	460f      	mov	r7, r1
  405a68:	f102 0501 	add.w	r5, r2, #1
  405a6c:	d023      	beq.n	405ab6 <_dtoa_r+0xd06>
  405a6e:	9b07      	ldr	r3, [sp, #28]
  405a70:	f8cd a008 	str.w	sl, [sp, #8]
  405a74:	444b      	add	r3, r9
  405a76:	465e      	mov	r6, fp
  405a78:	469a      	mov	sl, r3
  405a7a:	46ab      	mov	fp, r5
  405a7c:	2200      	movs	r2, #0
  405a7e:	4b42      	ldr	r3, [pc, #264]	; (405b88 <_dtoa_r+0xdd8>)
  405a80:	f7fd fad0 	bl	403024 <__aeabi_dmul>
  405a84:	4689      	mov	r9, r1
  405a86:	4680      	mov	r8, r0
  405a88:	f7fd fd66 	bl	403558 <__aeabi_d2iz>
  405a8c:	4607      	mov	r7, r0
  405a8e:	f7fd fa63 	bl	402f58 <__aeabi_i2d>
  405a92:	3730      	adds	r7, #48	; 0x30
  405a94:	4602      	mov	r2, r0
  405a96:	460b      	mov	r3, r1
  405a98:	4640      	mov	r0, r8
  405a9a:	4649      	mov	r1, r9
  405a9c:	f7fd f90e 	bl	402cbc <__aeabi_dsub>
  405aa0:	f80b 7b01 	strb.w	r7, [fp], #1
  405aa4:	45d3      	cmp	fp, sl
  405aa6:	d1e9      	bne.n	405a7c <_dtoa_r+0xccc>
  405aa8:	9b13      	ldr	r3, [sp, #76]	; 0x4c
  405aaa:	f8dd a008 	ldr.w	sl, [sp, #8]
  405aae:	46b3      	mov	fp, r6
  405ab0:	460f      	mov	r7, r1
  405ab2:	4606      	mov	r6, r0
  405ab4:	441d      	add	r5, r3
  405ab6:	2200      	movs	r2, #0
  405ab8:	4b34      	ldr	r3, [pc, #208]	; (405b8c <_dtoa_r+0xddc>)
  405aba:	e9dd 0110 	ldrd	r0, r1, [sp, #64]	; 0x40
  405abe:	f7fd f8ff 	bl	402cc0 <__adddf3>
  405ac2:	4632      	mov	r2, r6
  405ac4:	463b      	mov	r3, r7
  405ac6:	f7fd fd1f 	bl	403508 <__aeabi_dcmplt>
  405aca:	2800      	cmp	r0, #0
  405acc:	d047      	beq.n	405b5e <_dtoa_r+0xdae>
  405ace:	9b12      	ldr	r3, [sp, #72]	; 0x48
  405ad0:	9304      	str	r3, [sp, #16]
  405ad2:	f815 8c01 	ldrb.w	r8, [r5, #-1]
  405ad6:	f7ff bb2c 	b.w	405132 <_dtoa_r+0x382>
  405ada:	9b05      	ldr	r3, [sp, #20]
  405adc:	9a06      	ldr	r2, [sp, #24]
  405ade:	1a9d      	subs	r5, r3, r2
  405ae0:	2300      	movs	r3, #0
  405ae2:	f7ff bb60 	b.w	4051a6 <_dtoa_r+0x3f6>
  405ae6:	9b14      	ldr	r3, [sp, #80]	; 0x50
  405ae8:	9f08      	ldr	r7, [sp, #32]
  405aea:	9d05      	ldr	r5, [sp, #20]
  405aec:	f1c3 0336 	rsb	r3, r3, #54	; 0x36
  405af0:	f7ff bb59 	b.w	4051a6 <_dtoa_r+0x3f6>
  405af4:	e9dd 230e 	ldrd	r2, r3, [sp, #56]	; 0x38
  405af8:	f04f 0802 	mov.w	r8, #2
  405afc:	e9cd 2302 	strd	r2, r3, [sp, #8]
  405b00:	e548      	b.n	405594 <_dtoa_r+0x7e4>
  405b02:	9b06      	ldr	r3, [sp, #24]
  405b04:	2b00      	cmp	r3, #0
  405b06:	f43f aeb6 	beq.w	405876 <_dtoa_r+0xac6>
  405b0a:	9d0c      	ldr	r5, [sp, #48]	; 0x30
  405b0c:	2d00      	cmp	r5, #0
  405b0e:	f77f aedf 	ble.w	4058d0 <_dtoa_r+0xb20>
  405b12:	2200      	movs	r2, #0
  405b14:	4b1c      	ldr	r3, [pc, #112]	; (405b88 <_dtoa_r+0xdd8>)
  405b16:	e9dd 0102 	ldrd	r0, r1, [sp, #8]
  405b1a:	f7fd fa83 	bl	403024 <__aeabi_dmul>
  405b1e:	4606      	mov	r6, r0
  405b20:	460f      	mov	r7, r1
  405b22:	f108 0001 	add.w	r0, r8, #1
  405b26:	e9cd 6702 	strd	r6, r7, [sp, #8]
  405b2a:	f7fd fa15 	bl	402f58 <__aeabi_i2d>
  405b2e:	4602      	mov	r2, r0
  405b30:	460b      	mov	r3, r1
  405b32:	4630      	mov	r0, r6
  405b34:	4639      	mov	r1, r7
  405b36:	f7fd fa75 	bl	403024 <__aeabi_dmul>
  405b3a:	4b0f      	ldr	r3, [pc, #60]	; (405b78 <_dtoa_r+0xdc8>)
  405b3c:	2200      	movs	r2, #0
  405b3e:	f7fd f8bf 	bl	402cc0 <__adddf3>
  405b42:	9b04      	ldr	r3, [sp, #16]
  405b44:	3b01      	subs	r3, #1
  405b46:	4606      	mov	r6, r0
  405b48:	f1a1 7750 	sub.w	r7, r1, #54525952	; 0x3400000
  405b4c:	9312      	str	r3, [sp, #72]	; 0x48
  405b4e:	46a9      	mov	r9, r5
  405b50:	e541      	b.n	4055d6 <_dtoa_r+0x826>
  405b52:	2239      	movs	r2, #57	; 0x39
  405b54:	46b2      	mov	sl, r6
  405b56:	703a      	strb	r2, [r7, #0]
  405b58:	464e      	mov	r6, r9
  405b5a:	1c7d      	adds	r5, r7, #1
  405b5c:	e407      	b.n	40536e <_dtoa_r+0x5be>
  405b5e:	e9dd 2310 	ldrd	r2, r3, [sp, #64]	; 0x40
  405b62:	2000      	movs	r0, #0
  405b64:	4909      	ldr	r1, [pc, #36]	; (405b8c <_dtoa_r+0xddc>)
  405b66:	f7fd f8a9 	bl	402cbc <__aeabi_dsub>
  405b6a:	4632      	mov	r2, r6
  405b6c:	463b      	mov	r3, r7
  405b6e:	f7fd fce9 	bl	403544 <__aeabi_dcmpgt>
  405b72:	b970      	cbnz	r0, 405b92 <_dtoa_r+0xde2>
  405b74:	e6ac      	b.n	4058d0 <_dtoa_r+0xb20>
  405b76:	bf00      	nop
  405b78:	401c0000 	.word	0x401c0000
  405b7c:	40140000 	.word	0x40140000
  405b80:	0041f970 	.word	0x0041f970
  405b84:	0041fa48 	.word	0x0041fa48
  405b88:	40240000 	.word	0x40240000
  405b8c:	3fe00000 	.word	0x3fe00000
  405b90:	4615      	mov	r5, r2
  405b92:	f815 3c01 	ldrb.w	r3, [r5, #-1]
  405b96:	2b30      	cmp	r3, #48	; 0x30
  405b98:	f105 32ff 	add.w	r2, r5, #4294967295
  405b9c:	d0f8      	beq.n	405b90 <_dtoa_r+0xde0>
  405b9e:	9b12      	ldr	r3, [sp, #72]	; 0x48
  405ba0:	9304      	str	r3, [sp, #16]
  405ba2:	f7ff bad8 	b.w	405156 <_dtoa_r+0x3a6>
  405ba6:	4643      	mov	r3, r8
  405ba8:	f8dd b008 	ldr.w	fp, [sp, #8]
  405bac:	46a0      	mov	r8, r4
  405bae:	461c      	mov	r4, r3
  405bb0:	9b12      	ldr	r3, [sp, #72]	; 0x48
  405bb2:	9304      	str	r3, [sp, #16]
  405bb4:	f7ff babd 	b.w	405132 <_dtoa_r+0x382>
  405bb8:	46b9      	mov	r9, r7
  405bba:	f7ff bb71 	b.w	4052a0 <_dtoa_r+0x4f0>
  405bbe:	f1bc 0f39 	cmp.w	ip, #57	; 0x39
  405bc2:	d0c6      	beq.n	405b52 <_dtoa_r+0xda2>
  405bc4:	f1ba 0f00 	cmp.w	sl, #0
  405bc8:	f77f aebf 	ble.w	40594a <_dtoa_r+0xb9a>
  405bcc:	f105 0c31 	add.w	ip, r5, #49	; 0x31
  405bd0:	e6bb      	b.n	40594a <_dtoa_r+0xb9a>
  405bd2:	f47f aeba 	bne.w	40594a <_dtoa_r+0xb9a>
  405bd6:	f01c 0f01 	tst.w	ip, #1
  405bda:	f43f aeb6 	beq.w	40594a <_dtoa_r+0xb9a>
  405bde:	e6ae      	b.n	40593e <_dtoa_r+0xb8e>
  405be0:	f04f 0800 	mov.w	r8, #0
  405be4:	4646      	mov	r6, r8
  405be6:	e5a9      	b.n	40573c <_dtoa_r+0x98c>
  405be8:	9b20      	ldr	r3, [sp, #128]	; 0x80
  405bea:	2b02      	cmp	r3, #2
  405bec:	dc04      	bgt.n	405bf8 <_dtoa_r+0xe48>
  405bee:	9b0c      	ldr	r3, [sp, #48]	; 0x30
  405bf0:	e602      	b.n	4057f8 <_dtoa_r+0xa48>
  405bf2:	f04f 0802 	mov.w	r8, #2
  405bf6:	e4cd      	b.n	405594 <_dtoa_r+0x7e4>
  405bf8:	9b0c      	ldr	r3, [sp, #48]	; 0x30
  405bfa:	9306      	str	r3, [sp, #24]
  405bfc:	e618      	b.n	405830 <_dtoa_r+0xa80>
  405bfe:	9b20      	ldr	r3, [sp, #128]	; 0x80
  405c00:	2b02      	cmp	r3, #2
  405c02:	dcf9      	bgt.n	405bf8 <_dtoa_r+0xe48>
  405c04:	9b0c      	ldr	r3, [sp, #48]	; 0x30
  405c06:	f7ff bbee 	b.w	4053e6 <_dtoa_r+0x636>
  405c0a:	2500      	movs	r5, #0
  405c0c:	6465      	str	r5, [r4, #68]	; 0x44
  405c0e:	4629      	mov	r1, r5
  405c10:	4620      	mov	r0, r4
  405c12:	f000 fd35 	bl	406680 <_Balloc>
  405c16:	f04f 33ff 	mov.w	r3, #4294967295
  405c1a:	9306      	str	r3, [sp, #24]
  405c1c:	930c      	str	r3, [sp, #48]	; 0x30
  405c1e:	2301      	movs	r3, #1
  405c20:	9007      	str	r0, [sp, #28]
  405c22:	9521      	str	r5, [sp, #132]	; 0x84
  405c24:	6420      	str	r0, [r4, #64]	; 0x40
  405c26:	9309      	str	r3, [sp, #36]	; 0x24
  405c28:	f7ff b9d2 	b.w	404fd0 <_dtoa_r+0x220>
  405c2c:	f43f ab4d 	beq.w	4052ca <_dtoa_r+0x51a>
  405c30:	f1c0 003c 	rsb	r0, r0, #60	; 0x3c
  405c34:	f7ff bb44 	b.w	4052c0 <_dtoa_r+0x510>
  405c38:	2301      	movs	r3, #1
  405c3a:	9309      	str	r3, [sp, #36]	; 0x24
  405c3c:	e559      	b.n	4056f2 <_dtoa_r+0x942>
  405c3e:	2501      	movs	r5, #1
  405c40:	f7ff b990 	b.w	404f64 <_dtoa_r+0x1b4>

00405c44 <__libc_fini_array>:
  405c44:	b538      	push	{r3, r4, r5, lr}
  405c46:	4b08      	ldr	r3, [pc, #32]	; (405c68 <__libc_fini_array+0x24>)
  405c48:	4d08      	ldr	r5, [pc, #32]	; (405c6c <__libc_fini_array+0x28>)
  405c4a:	1aed      	subs	r5, r5, r3
  405c4c:	10ac      	asrs	r4, r5, #2
  405c4e:	bf18      	it	ne
  405c50:	18ed      	addne	r5, r5, r3
  405c52:	d005      	beq.n	405c60 <__libc_fini_array+0x1c>
  405c54:	3c01      	subs	r4, #1
  405c56:	f855 3d04 	ldr.w	r3, [r5, #-4]!
  405c5a:	4798      	blx	r3
  405c5c:	2c00      	cmp	r4, #0
  405c5e:	d1f9      	bne.n	405c54 <__libc_fini_array+0x10>
  405c60:	e8bd 4038 	ldmia.w	sp!, {r3, r4, r5, lr}
  405c64:	f019 bf0e 	b.w	41fa84 <_fini>
  405c68:	0041fa90 	.word	0x0041fa90
  405c6c:	0041fa94 	.word	0x0041fa94

00405c70 <_malloc_trim_r>:
  405c70:	b5f8      	push	{r3, r4, r5, r6, r7, lr}
  405c72:	4f23      	ldr	r7, [pc, #140]	; (405d00 <_malloc_trim_r+0x90>)
  405c74:	460c      	mov	r4, r1
  405c76:	4606      	mov	r6, r0
  405c78:	f000 fcfe 	bl	406678 <__malloc_lock>
  405c7c:	68bb      	ldr	r3, [r7, #8]
  405c7e:	685d      	ldr	r5, [r3, #4]
  405c80:	f025 0503 	bic.w	r5, r5, #3
  405c84:	1b29      	subs	r1, r5, r4
  405c86:	f601 71ef 	addw	r1, r1, #4079	; 0xfef
  405c8a:	f421 617f 	bic.w	r1, r1, #4080	; 0xff0
  405c8e:	f021 010f 	bic.w	r1, r1, #15
  405c92:	f5a1 5480 	sub.w	r4, r1, #4096	; 0x1000
  405c96:	f5b4 5f80 	cmp.w	r4, #4096	; 0x1000
  405c9a:	db07      	blt.n	405cac <_malloc_trim_r+0x3c>
  405c9c:	4630      	mov	r0, r6
  405c9e:	2100      	movs	r1, #0
  405ca0:	f001 fa04 	bl	4070ac <_sbrk_r>
  405ca4:	68bb      	ldr	r3, [r7, #8]
  405ca6:	442b      	add	r3, r5
  405ca8:	4298      	cmp	r0, r3
  405caa:	d004      	beq.n	405cb6 <_malloc_trim_r+0x46>
  405cac:	4630      	mov	r0, r6
  405cae:	f000 fce5 	bl	40667c <__malloc_unlock>
  405cb2:	2000      	movs	r0, #0
  405cb4:	bdf8      	pop	{r3, r4, r5, r6, r7, pc}
  405cb6:	4630      	mov	r0, r6
  405cb8:	4261      	negs	r1, r4
  405cba:	f001 f9f7 	bl	4070ac <_sbrk_r>
  405cbe:	3001      	adds	r0, #1
  405cc0:	d00d      	beq.n	405cde <_malloc_trim_r+0x6e>
  405cc2:	4b10      	ldr	r3, [pc, #64]	; (405d04 <_malloc_trim_r+0x94>)
  405cc4:	68ba      	ldr	r2, [r7, #8]
  405cc6:	6819      	ldr	r1, [r3, #0]
  405cc8:	1b2d      	subs	r5, r5, r4
  405cca:	f045 0501 	orr.w	r5, r5, #1
  405cce:	4630      	mov	r0, r6
  405cd0:	1b09      	subs	r1, r1, r4
  405cd2:	6055      	str	r5, [r2, #4]
  405cd4:	6019      	str	r1, [r3, #0]
  405cd6:	f000 fcd1 	bl	40667c <__malloc_unlock>
  405cda:	2001      	movs	r0, #1
  405cdc:	bdf8      	pop	{r3, r4, r5, r6, r7, pc}
  405cde:	4630      	mov	r0, r6
  405ce0:	2100      	movs	r1, #0
  405ce2:	f001 f9e3 	bl	4070ac <_sbrk_r>
  405ce6:	68ba      	ldr	r2, [r7, #8]
  405ce8:	1a83      	subs	r3, r0, r2
  405cea:	2b0f      	cmp	r3, #15
  405cec:	ddde      	ble.n	405cac <_malloc_trim_r+0x3c>
  405cee:	4c06      	ldr	r4, [pc, #24]	; (405d08 <_malloc_trim_r+0x98>)
  405cf0:	4904      	ldr	r1, [pc, #16]	; (405d04 <_malloc_trim_r+0x94>)
  405cf2:	6824      	ldr	r4, [r4, #0]
  405cf4:	f043 0301 	orr.w	r3, r3, #1
  405cf8:	1b00      	subs	r0, r0, r4
  405cfa:	6053      	str	r3, [r2, #4]
  405cfc:	6008      	str	r0, [r1, #0]
  405cfe:	e7d5      	b.n	405cac <_malloc_trim_r+0x3c>
  405d00:	20000474 	.word	0x20000474
  405d04:	20000cf4 	.word	0x20000cf4
  405d08:	20000880 	.word	0x20000880

00405d0c <_free_r>:
  405d0c:	2900      	cmp	r1, #0
  405d0e:	d04e      	beq.n	405dae <_free_r+0xa2>
  405d10:	e92d 41f0 	stmdb	sp!, {r4, r5, r6, r7, r8, lr}
  405d14:	460c      	mov	r4, r1
  405d16:	4680      	mov	r8, r0
  405d18:	f000 fcae 	bl	406678 <__malloc_lock>
  405d1c:	f854 7c04 	ldr.w	r7, [r4, #-4]
  405d20:	4962      	ldr	r1, [pc, #392]	; (405eac <_free_r+0x1a0>)
  405d22:	f027 0201 	bic.w	r2, r7, #1
  405d26:	f1a4 0508 	sub.w	r5, r4, #8
  405d2a:	18ab      	adds	r3, r5, r2
  405d2c:	688e      	ldr	r6, [r1, #8]
  405d2e:	6858      	ldr	r0, [r3, #4]
  405d30:	429e      	cmp	r6, r3
  405d32:	f020 0003 	bic.w	r0, r0, #3
  405d36:	d05a      	beq.n	405dee <_free_r+0xe2>
  405d38:	07fe      	lsls	r6, r7, #31
  405d3a:	6058      	str	r0, [r3, #4]
  405d3c:	d40b      	bmi.n	405d56 <_free_r+0x4a>
  405d3e:	f854 7c08 	ldr.w	r7, [r4, #-8]
  405d42:	1bed      	subs	r5, r5, r7
  405d44:	f101 0e08 	add.w	lr, r1, #8
  405d48:	68ac      	ldr	r4, [r5, #8]
  405d4a:	4574      	cmp	r4, lr
  405d4c:	443a      	add	r2, r7
  405d4e:	d067      	beq.n	405e20 <_free_r+0x114>
  405d50:	68ef      	ldr	r7, [r5, #12]
  405d52:	60e7      	str	r7, [r4, #12]
  405d54:	60bc      	str	r4, [r7, #8]
  405d56:	181c      	adds	r4, r3, r0
  405d58:	6864      	ldr	r4, [r4, #4]
  405d5a:	07e4      	lsls	r4, r4, #31
  405d5c:	d40c      	bmi.n	405d78 <_free_r+0x6c>
  405d5e:	4f54      	ldr	r7, [pc, #336]	; (405eb0 <_free_r+0x1a4>)
  405d60:	689c      	ldr	r4, [r3, #8]
  405d62:	42bc      	cmp	r4, r7
  405d64:	4402      	add	r2, r0
  405d66:	d07c      	beq.n	405e62 <_free_r+0x156>
  405d68:	68d8      	ldr	r0, [r3, #12]
  405d6a:	60e0      	str	r0, [r4, #12]
  405d6c:	f042 0301 	orr.w	r3, r2, #1
  405d70:	6084      	str	r4, [r0, #8]
  405d72:	606b      	str	r3, [r5, #4]
  405d74:	50aa      	str	r2, [r5, r2]
  405d76:	e003      	b.n	405d80 <_free_r+0x74>
  405d78:	f042 0301 	orr.w	r3, r2, #1
  405d7c:	606b      	str	r3, [r5, #4]
  405d7e:	50aa      	str	r2, [r5, r2]
  405d80:	f5b2 7f00 	cmp.w	r2, #512	; 0x200
  405d84:	d214      	bcs.n	405db0 <_free_r+0xa4>
  405d86:	08d2      	lsrs	r2, r2, #3
  405d88:	eb01 03c2 	add.w	r3, r1, r2, lsl #3
  405d8c:	6848      	ldr	r0, [r1, #4]
  405d8e:	689f      	ldr	r7, [r3, #8]
  405d90:	60af      	str	r7, [r5, #8]
  405d92:	1092      	asrs	r2, r2, #2
  405d94:	2401      	movs	r4, #1
  405d96:	fa04 f202 	lsl.w	r2, r4, r2
  405d9a:	4310      	orrs	r0, r2
  405d9c:	60eb      	str	r3, [r5, #12]
  405d9e:	6048      	str	r0, [r1, #4]
  405da0:	609d      	str	r5, [r3, #8]
  405da2:	60fd      	str	r5, [r7, #12]
  405da4:	4640      	mov	r0, r8
  405da6:	e8bd 41f0 	ldmia.w	sp!, {r4, r5, r6, r7, r8, lr}
  405daa:	f000 bc67 	b.w	40667c <__malloc_unlock>
  405dae:	4770      	bx	lr
  405db0:	0a53      	lsrs	r3, r2, #9
  405db2:	2b04      	cmp	r3, #4
  405db4:	d847      	bhi.n	405e46 <_free_r+0x13a>
  405db6:	0993      	lsrs	r3, r2, #6
  405db8:	f103 0438 	add.w	r4, r3, #56	; 0x38
  405dbc:	0060      	lsls	r0, r4, #1
  405dbe:	eb01 0080 	add.w	r0, r1, r0, lsl #2
  405dc2:	493a      	ldr	r1, [pc, #232]	; (405eac <_free_r+0x1a0>)
  405dc4:	6883      	ldr	r3, [r0, #8]
  405dc6:	4283      	cmp	r3, r0
  405dc8:	d043      	beq.n	405e52 <_free_r+0x146>
  405dca:	6859      	ldr	r1, [r3, #4]
  405dcc:	f021 0103 	bic.w	r1, r1, #3
  405dd0:	4291      	cmp	r1, r2
  405dd2:	d902      	bls.n	405dda <_free_r+0xce>
  405dd4:	689b      	ldr	r3, [r3, #8]
  405dd6:	4298      	cmp	r0, r3
  405dd8:	d1f7      	bne.n	405dca <_free_r+0xbe>
  405dda:	68da      	ldr	r2, [r3, #12]
  405ddc:	60ea      	str	r2, [r5, #12]
  405dde:	60ab      	str	r3, [r5, #8]
  405de0:	4640      	mov	r0, r8
  405de2:	6095      	str	r5, [r2, #8]
  405de4:	60dd      	str	r5, [r3, #12]
  405de6:	e8bd 41f0 	ldmia.w	sp!, {r4, r5, r6, r7, r8, lr}
  405dea:	f000 bc47 	b.w	40667c <__malloc_unlock>
  405dee:	07ff      	lsls	r7, r7, #31
  405df0:	4402      	add	r2, r0
  405df2:	d407      	bmi.n	405e04 <_free_r+0xf8>
  405df4:	f854 3c08 	ldr.w	r3, [r4, #-8]
  405df8:	1aed      	subs	r5, r5, r3
  405dfa:	441a      	add	r2, r3
  405dfc:	68a8      	ldr	r0, [r5, #8]
  405dfe:	68eb      	ldr	r3, [r5, #12]
  405e00:	60c3      	str	r3, [r0, #12]
  405e02:	6098      	str	r0, [r3, #8]
  405e04:	4b2b      	ldr	r3, [pc, #172]	; (405eb4 <_free_r+0x1a8>)
  405e06:	681b      	ldr	r3, [r3, #0]
  405e08:	f042 0001 	orr.w	r0, r2, #1
  405e0c:	429a      	cmp	r2, r3
  405e0e:	6068      	str	r0, [r5, #4]
  405e10:	608d      	str	r5, [r1, #8]
  405e12:	d3c7      	bcc.n	405da4 <_free_r+0x98>
  405e14:	4b28      	ldr	r3, [pc, #160]	; (405eb8 <_free_r+0x1ac>)
  405e16:	4640      	mov	r0, r8
  405e18:	6819      	ldr	r1, [r3, #0]
  405e1a:	f7ff ff29 	bl	405c70 <_malloc_trim_r>
  405e1e:	e7c1      	b.n	405da4 <_free_r+0x98>
  405e20:	1819      	adds	r1, r3, r0
  405e22:	6849      	ldr	r1, [r1, #4]
  405e24:	07c9      	lsls	r1, r1, #31
  405e26:	d409      	bmi.n	405e3c <_free_r+0x130>
  405e28:	68d9      	ldr	r1, [r3, #12]
  405e2a:	689b      	ldr	r3, [r3, #8]
  405e2c:	4402      	add	r2, r0
  405e2e:	f042 0001 	orr.w	r0, r2, #1
  405e32:	60d9      	str	r1, [r3, #12]
  405e34:	608b      	str	r3, [r1, #8]
  405e36:	6068      	str	r0, [r5, #4]
  405e38:	50aa      	str	r2, [r5, r2]
  405e3a:	e7b3      	b.n	405da4 <_free_r+0x98>
  405e3c:	f042 0301 	orr.w	r3, r2, #1
  405e40:	606b      	str	r3, [r5, #4]
  405e42:	50aa      	str	r2, [r5, r2]
  405e44:	e7ae      	b.n	405da4 <_free_r+0x98>
  405e46:	2b14      	cmp	r3, #20
  405e48:	d814      	bhi.n	405e74 <_free_r+0x168>
  405e4a:	f103 045b 	add.w	r4, r3, #91	; 0x5b
  405e4e:	0060      	lsls	r0, r4, #1
  405e50:	e7b5      	b.n	405dbe <_free_r+0xb2>
  405e52:	684a      	ldr	r2, [r1, #4]
  405e54:	10a4      	asrs	r4, r4, #2
  405e56:	2001      	movs	r0, #1
  405e58:	40a0      	lsls	r0, r4
  405e5a:	4302      	orrs	r2, r0
  405e5c:	604a      	str	r2, [r1, #4]
  405e5e:	461a      	mov	r2, r3
  405e60:	e7bc      	b.n	405ddc <_free_r+0xd0>
  405e62:	f042 0301 	orr.w	r3, r2, #1
  405e66:	614d      	str	r5, [r1, #20]
  405e68:	610d      	str	r5, [r1, #16]
  405e6a:	60ec      	str	r4, [r5, #12]
  405e6c:	60ac      	str	r4, [r5, #8]
  405e6e:	606b      	str	r3, [r5, #4]
  405e70:	50aa      	str	r2, [r5, r2]
  405e72:	e797      	b.n	405da4 <_free_r+0x98>
  405e74:	2b54      	cmp	r3, #84	; 0x54
  405e76:	d804      	bhi.n	405e82 <_free_r+0x176>
  405e78:	0b13      	lsrs	r3, r2, #12
  405e7a:	f103 046e 	add.w	r4, r3, #110	; 0x6e
  405e7e:	0060      	lsls	r0, r4, #1
  405e80:	e79d      	b.n	405dbe <_free_r+0xb2>
  405e82:	f5b3 7faa 	cmp.w	r3, #340	; 0x154
  405e86:	d804      	bhi.n	405e92 <_free_r+0x186>
  405e88:	0bd3      	lsrs	r3, r2, #15
  405e8a:	f103 0477 	add.w	r4, r3, #119	; 0x77
  405e8e:	0060      	lsls	r0, r4, #1
  405e90:	e795      	b.n	405dbe <_free_r+0xb2>
  405e92:	f240 5054 	movw	r0, #1364	; 0x554
  405e96:	4283      	cmp	r3, r0
  405e98:	d804      	bhi.n	405ea4 <_free_r+0x198>
  405e9a:	0c93      	lsrs	r3, r2, #18
  405e9c:	f103 047c 	add.w	r4, r3, #124	; 0x7c
  405ea0:	0060      	lsls	r0, r4, #1
  405ea2:	e78c      	b.n	405dbe <_free_r+0xb2>
  405ea4:	20fc      	movs	r0, #252	; 0xfc
  405ea6:	247e      	movs	r4, #126	; 0x7e
  405ea8:	e789      	b.n	405dbe <_free_r+0xb2>
  405eaa:	bf00      	nop
  405eac:	20000474 	.word	0x20000474
  405eb0:	2000047c 	.word	0x2000047c
  405eb4:	2000087c 	.word	0x2000087c
  405eb8:	20000cf0 	.word	0x20000cf0

00405ebc <_localeconv_r>:
  405ebc:	4800      	ldr	r0, [pc, #0]	; (405ec0 <_localeconv_r+0x4>)
  405ebe:	4770      	bx	lr
  405ec0:	2000043c 	.word	0x2000043c

00405ec4 <_malloc_r>:
  405ec4:	e92d 4ff0 	stmdb	sp!, {r4, r5, r6, r7, r8, r9, sl, fp, lr}
  405ec8:	f101 050b 	add.w	r5, r1, #11
  405ecc:	2d16      	cmp	r5, #22
  405ece:	b083      	sub	sp, #12
  405ed0:	4606      	mov	r6, r0
  405ed2:	d927      	bls.n	405f24 <_malloc_r+0x60>
  405ed4:	f035 0507 	bics.w	r5, r5, #7
  405ed8:	f100 80b6 	bmi.w	406048 <_malloc_r+0x184>
  405edc:	42a9      	cmp	r1, r5
  405ede:	f200 80b3 	bhi.w	406048 <_malloc_r+0x184>
  405ee2:	f000 fbc9 	bl	406678 <__malloc_lock>
  405ee6:	f5b5 7ffc 	cmp.w	r5, #504	; 0x1f8
  405eea:	d222      	bcs.n	405f32 <_malloc_r+0x6e>
  405eec:	4fc2      	ldr	r7, [pc, #776]	; (4061f8 <_malloc_r+0x334>)
  405eee:	08e8      	lsrs	r0, r5, #3
  405ef0:	eb07 03c0 	add.w	r3, r7, r0, lsl #3
  405ef4:	68dc      	ldr	r4, [r3, #12]
  405ef6:	429c      	cmp	r4, r3
  405ef8:	f000 81c8 	beq.w	40628c <_malloc_r+0x3c8>
  405efc:	6863      	ldr	r3, [r4, #4]
  405efe:	68e1      	ldr	r1, [r4, #12]
  405f00:	68a5      	ldr	r5, [r4, #8]
  405f02:	f023 0303 	bic.w	r3, r3, #3
  405f06:	4423      	add	r3, r4
  405f08:	4630      	mov	r0, r6
  405f0a:	685a      	ldr	r2, [r3, #4]
  405f0c:	60e9      	str	r1, [r5, #12]
  405f0e:	f042 0201 	orr.w	r2, r2, #1
  405f12:	608d      	str	r5, [r1, #8]
  405f14:	605a      	str	r2, [r3, #4]
  405f16:	f000 fbb1 	bl	40667c <__malloc_unlock>
  405f1a:	3408      	adds	r4, #8
  405f1c:	4620      	mov	r0, r4
  405f1e:	b003      	add	sp, #12
  405f20:	e8bd 8ff0 	ldmia.w	sp!, {r4, r5, r6, r7, r8, r9, sl, fp, pc}
  405f24:	2910      	cmp	r1, #16
  405f26:	f200 808f 	bhi.w	406048 <_malloc_r+0x184>
  405f2a:	f000 fba5 	bl	406678 <__malloc_lock>
  405f2e:	2510      	movs	r5, #16
  405f30:	e7dc      	b.n	405eec <_malloc_r+0x28>
  405f32:	0a68      	lsrs	r0, r5, #9
  405f34:	f000 808f 	beq.w	406056 <_malloc_r+0x192>
  405f38:	2804      	cmp	r0, #4
  405f3a:	f200 8154 	bhi.w	4061e6 <_malloc_r+0x322>
  405f3e:	09a8      	lsrs	r0, r5, #6
  405f40:	3038      	adds	r0, #56	; 0x38
  405f42:	0041      	lsls	r1, r0, #1
  405f44:	4fac      	ldr	r7, [pc, #688]	; (4061f8 <_malloc_r+0x334>)
  405f46:	eb07 0181 	add.w	r1, r7, r1, lsl #2
  405f4a:	68cc      	ldr	r4, [r1, #12]
  405f4c:	42a1      	cmp	r1, r4
  405f4e:	d106      	bne.n	405f5e <_malloc_r+0x9a>
  405f50:	e00c      	b.n	405f6c <_malloc_r+0xa8>
  405f52:	2a00      	cmp	r2, #0
  405f54:	f280 8082 	bge.w	40605c <_malloc_r+0x198>
  405f58:	68e4      	ldr	r4, [r4, #12]
  405f5a:	42a1      	cmp	r1, r4
  405f5c:	d006      	beq.n	405f6c <_malloc_r+0xa8>
  405f5e:	6863      	ldr	r3, [r4, #4]
  405f60:	f023 0303 	bic.w	r3, r3, #3
  405f64:	1b5a      	subs	r2, r3, r5
  405f66:	2a0f      	cmp	r2, #15
  405f68:	ddf3      	ble.n	405f52 <_malloc_r+0x8e>
  405f6a:	3801      	subs	r0, #1
  405f6c:	3001      	adds	r0, #1
  405f6e:	49a2      	ldr	r1, [pc, #648]	; (4061f8 <_malloc_r+0x334>)
  405f70:	693c      	ldr	r4, [r7, #16]
  405f72:	f101 0e08 	add.w	lr, r1, #8
  405f76:	4574      	cmp	r4, lr
  405f78:	f000 817d 	beq.w	406276 <_malloc_r+0x3b2>
  405f7c:	6863      	ldr	r3, [r4, #4]
  405f7e:	f023 0303 	bic.w	r3, r3, #3
  405f82:	1b5a      	subs	r2, r3, r5
  405f84:	2a0f      	cmp	r2, #15
  405f86:	f300 8163 	bgt.w	406250 <_malloc_r+0x38c>
  405f8a:	2a00      	cmp	r2, #0
  405f8c:	f8c1 e014 	str.w	lr, [r1, #20]
  405f90:	f8c1 e010 	str.w	lr, [r1, #16]
  405f94:	da73      	bge.n	40607e <_malloc_r+0x1ba>
  405f96:	f5b3 7f00 	cmp.w	r3, #512	; 0x200
  405f9a:	f080 8139 	bcs.w	406210 <_malloc_r+0x34c>
  405f9e:	08db      	lsrs	r3, r3, #3
  405fa0:	eb01 08c3 	add.w	r8, r1, r3, lsl #3
  405fa4:	ea4f 0ca3 	mov.w	ip, r3, asr #2
  405fa8:	684a      	ldr	r2, [r1, #4]
  405faa:	f8d8 9008 	ldr.w	r9, [r8, #8]
  405fae:	f8c4 9008 	str.w	r9, [r4, #8]
  405fb2:	2301      	movs	r3, #1
  405fb4:	fa03 f30c 	lsl.w	r3, r3, ip
  405fb8:	4313      	orrs	r3, r2
  405fba:	f8c4 800c 	str.w	r8, [r4, #12]
  405fbe:	604b      	str	r3, [r1, #4]
  405fc0:	f8c8 4008 	str.w	r4, [r8, #8]
  405fc4:	f8c9 400c 	str.w	r4, [r9, #12]
  405fc8:	1082      	asrs	r2, r0, #2
  405fca:	2401      	movs	r4, #1
  405fcc:	4094      	lsls	r4, r2
  405fce:	429c      	cmp	r4, r3
  405fd0:	d862      	bhi.n	406098 <_malloc_r+0x1d4>
  405fd2:	4223      	tst	r3, r4
  405fd4:	d106      	bne.n	405fe4 <_malloc_r+0x120>
  405fd6:	f020 0003 	bic.w	r0, r0, #3
  405fda:	0064      	lsls	r4, r4, #1
  405fdc:	4223      	tst	r3, r4
  405fde:	f100 0004 	add.w	r0, r0, #4
  405fe2:	d0fa      	beq.n	405fda <_malloc_r+0x116>
  405fe4:	eb07 08c0 	add.w	r8, r7, r0, lsl #3
  405fe8:	46c4      	mov	ip, r8
  405fea:	4681      	mov	r9, r0
  405fec:	f8dc 300c 	ldr.w	r3, [ip, #12]
  405ff0:	459c      	cmp	ip, r3
  405ff2:	d107      	bne.n	406004 <_malloc_r+0x140>
  405ff4:	e141      	b.n	40627a <_malloc_r+0x3b6>
  405ff6:	2900      	cmp	r1, #0
  405ff8:	f280 8151 	bge.w	40629e <_malloc_r+0x3da>
  405ffc:	68db      	ldr	r3, [r3, #12]
  405ffe:	459c      	cmp	ip, r3
  406000:	f000 813b 	beq.w	40627a <_malloc_r+0x3b6>
  406004:	685a      	ldr	r2, [r3, #4]
  406006:	f022 0203 	bic.w	r2, r2, #3
  40600a:	1b51      	subs	r1, r2, r5
  40600c:	290f      	cmp	r1, #15
  40600e:	ddf2      	ble.n	405ff6 <_malloc_r+0x132>
  406010:	461c      	mov	r4, r3
  406012:	f8d3 c00c 	ldr.w	ip, [r3, #12]
  406016:	f854 8f08 	ldr.w	r8, [r4, #8]!
  40601a:	195a      	adds	r2, r3, r5
  40601c:	f045 0901 	orr.w	r9, r5, #1
  406020:	f041 0501 	orr.w	r5, r1, #1
  406024:	f8c3 9004 	str.w	r9, [r3, #4]
  406028:	4630      	mov	r0, r6
  40602a:	f8c8 c00c 	str.w	ip, [r8, #12]
  40602e:	f8cc 8008 	str.w	r8, [ip, #8]
  406032:	617a      	str	r2, [r7, #20]
  406034:	613a      	str	r2, [r7, #16]
  406036:	f8c2 e00c 	str.w	lr, [r2, #12]
  40603a:	f8c2 e008 	str.w	lr, [r2, #8]
  40603e:	6055      	str	r5, [r2, #4]
  406040:	5051      	str	r1, [r2, r1]
  406042:	f000 fb1b 	bl	40667c <__malloc_unlock>
  406046:	e769      	b.n	405f1c <_malloc_r+0x58>
  406048:	2400      	movs	r4, #0
  40604a:	230c      	movs	r3, #12
  40604c:	4620      	mov	r0, r4
  40604e:	6033      	str	r3, [r6, #0]
  406050:	b003      	add	sp, #12
  406052:	e8bd 8ff0 	ldmia.w	sp!, {r4, r5, r6, r7, r8, r9, sl, fp, pc}
  406056:	217e      	movs	r1, #126	; 0x7e
  406058:	203f      	movs	r0, #63	; 0x3f
  40605a:	e773      	b.n	405f44 <_malloc_r+0x80>
  40605c:	4423      	add	r3, r4
  40605e:	68e1      	ldr	r1, [r4, #12]
  406060:	685a      	ldr	r2, [r3, #4]
  406062:	68a5      	ldr	r5, [r4, #8]
  406064:	f042 0201 	orr.w	r2, r2, #1
  406068:	60e9      	str	r1, [r5, #12]
  40606a:	4630      	mov	r0, r6
  40606c:	608d      	str	r5, [r1, #8]
  40606e:	605a      	str	r2, [r3, #4]
  406070:	f000 fb04 	bl	40667c <__malloc_unlock>
  406074:	3408      	adds	r4, #8
  406076:	4620      	mov	r0, r4
  406078:	b003      	add	sp, #12
  40607a:	e8bd 8ff0 	ldmia.w	sp!, {r4, r5, r6, r7, r8, r9, sl, fp, pc}
  40607e:	4423      	add	r3, r4
  406080:	4630      	mov	r0, r6
  406082:	685a      	ldr	r2, [r3, #4]
  406084:	f042 0201 	orr.w	r2, r2, #1
  406088:	605a      	str	r2, [r3, #4]
  40608a:	f000 faf7 	bl	40667c <__malloc_unlock>
  40608e:	3408      	adds	r4, #8
  406090:	4620      	mov	r0, r4
  406092:	b003      	add	sp, #12
  406094:	e8bd 8ff0 	ldmia.w	sp!, {r4, r5, r6, r7, r8, r9, sl, fp, pc}
  406098:	68bc      	ldr	r4, [r7, #8]
  40609a:	6863      	ldr	r3, [r4, #4]
  40609c:	f023 0803 	bic.w	r8, r3, #3
  4060a0:	4545      	cmp	r5, r8
  4060a2:	d804      	bhi.n	4060ae <_malloc_r+0x1ea>
  4060a4:	ebc5 0308 	rsb	r3, r5, r8
  4060a8:	2b0f      	cmp	r3, #15
  4060aa:	f300 808c 	bgt.w	4061c6 <_malloc_r+0x302>
  4060ae:	4b53      	ldr	r3, [pc, #332]	; (4061fc <_malloc_r+0x338>)
  4060b0:	f8df a158 	ldr.w	sl, [pc, #344]	; 40620c <_malloc_r+0x348>
  4060b4:	681a      	ldr	r2, [r3, #0]
  4060b6:	f8da 3000 	ldr.w	r3, [sl]
  4060ba:	3301      	adds	r3, #1
  4060bc:	442a      	add	r2, r5
  4060be:	eb04 0b08 	add.w	fp, r4, r8
  4060c2:	f000 8150 	beq.w	406366 <_malloc_r+0x4a2>
  4060c6:	f502 5280 	add.w	r2, r2, #4096	; 0x1000
  4060ca:	320f      	adds	r2, #15
  4060cc:	f422 627f 	bic.w	r2, r2, #4080	; 0xff0
  4060d0:	f022 020f 	bic.w	r2, r2, #15
  4060d4:	4611      	mov	r1, r2
  4060d6:	4630      	mov	r0, r6
  4060d8:	9201      	str	r2, [sp, #4]
  4060da:	f000 ffe7 	bl	4070ac <_sbrk_r>
  4060de:	f1b0 3fff 	cmp.w	r0, #4294967295
  4060e2:	4681      	mov	r9, r0
  4060e4:	9a01      	ldr	r2, [sp, #4]
  4060e6:	f000 8147 	beq.w	406378 <_malloc_r+0x4b4>
  4060ea:	4583      	cmp	fp, r0
  4060ec:	f200 80ee 	bhi.w	4062cc <_malloc_r+0x408>
  4060f0:	4b43      	ldr	r3, [pc, #268]	; (406200 <_malloc_r+0x33c>)
  4060f2:	6819      	ldr	r1, [r3, #0]
  4060f4:	45cb      	cmp	fp, r9
  4060f6:	4411      	add	r1, r2
  4060f8:	6019      	str	r1, [r3, #0]
  4060fa:	f000 8142 	beq.w	406382 <_malloc_r+0x4be>
  4060fe:	f8da 0000 	ldr.w	r0, [sl]
  406102:	f8df e108 	ldr.w	lr, [pc, #264]	; 40620c <_malloc_r+0x348>
  406106:	3001      	adds	r0, #1
  406108:	bf1b      	ittet	ne
  40610a:	ebcb 0b09 	rsbne	fp, fp, r9
  40610e:	4459      	addne	r1, fp
  406110:	f8ce 9000 	streq.w	r9, [lr]
  406114:	6019      	strne	r1, [r3, #0]
  406116:	f019 0107 	ands.w	r1, r9, #7
  40611a:	f000 8107 	beq.w	40632c <_malloc_r+0x468>
  40611e:	f1c1 0008 	rsb	r0, r1, #8
  406122:	f5c1 5180 	rsb	r1, r1, #4096	; 0x1000
  406126:	4481      	add	r9, r0
  406128:	3108      	adds	r1, #8
  40612a:	444a      	add	r2, r9
  40612c:	f3c2 020b 	ubfx	r2, r2, #0, #12
  406130:	ebc2 0a01 	rsb	sl, r2, r1
  406134:	4651      	mov	r1, sl
  406136:	4630      	mov	r0, r6
  406138:	9301      	str	r3, [sp, #4]
  40613a:	f000 ffb7 	bl	4070ac <_sbrk_r>
  40613e:	1c43      	adds	r3, r0, #1
  406140:	9b01      	ldr	r3, [sp, #4]
  406142:	f000 812c 	beq.w	40639e <_malloc_r+0x4da>
  406146:	ebc9 0200 	rsb	r2, r9, r0
  40614a:	4452      	add	r2, sl
  40614c:	f042 0201 	orr.w	r2, r2, #1
  406150:	6819      	ldr	r1, [r3, #0]
  406152:	f8c7 9008 	str.w	r9, [r7, #8]
  406156:	4451      	add	r1, sl
  406158:	42bc      	cmp	r4, r7
  40615a:	f8c9 2004 	str.w	r2, [r9, #4]
  40615e:	6019      	str	r1, [r3, #0]
  406160:	f8df a09c 	ldr.w	sl, [pc, #156]	; 406200 <_malloc_r+0x33c>
  406164:	d016      	beq.n	406194 <_malloc_r+0x2d0>
  406166:	f1b8 0f0f 	cmp.w	r8, #15
  40616a:	f240 80ee 	bls.w	40634a <_malloc_r+0x486>
  40616e:	6862      	ldr	r2, [r4, #4]
  406170:	f1a8 030c 	sub.w	r3, r8, #12
  406174:	f023 0307 	bic.w	r3, r3, #7
  406178:	18e0      	adds	r0, r4, r3
  40617a:	f002 0201 	and.w	r2, r2, #1
  40617e:	f04f 0e05 	mov.w	lr, #5
  406182:	431a      	orrs	r2, r3
  406184:	2b0f      	cmp	r3, #15
  406186:	6062      	str	r2, [r4, #4]
  406188:	f8c0 e004 	str.w	lr, [r0, #4]
  40618c:	f8c0 e008 	str.w	lr, [r0, #8]
  406190:	f200 8109 	bhi.w	4063a6 <_malloc_r+0x4e2>
  406194:	4b1b      	ldr	r3, [pc, #108]	; (406204 <_malloc_r+0x340>)
  406196:	68bc      	ldr	r4, [r7, #8]
  406198:	681a      	ldr	r2, [r3, #0]
  40619a:	4291      	cmp	r1, r2
  40619c:	bf88      	it	hi
  40619e:	6019      	strhi	r1, [r3, #0]
  4061a0:	4b19      	ldr	r3, [pc, #100]	; (406208 <_malloc_r+0x344>)
  4061a2:	681a      	ldr	r2, [r3, #0]
  4061a4:	4291      	cmp	r1, r2
  4061a6:	6862      	ldr	r2, [r4, #4]
  4061a8:	bf88      	it	hi
  4061aa:	6019      	strhi	r1, [r3, #0]
  4061ac:	f022 0203 	bic.w	r2, r2, #3
  4061b0:	4295      	cmp	r5, r2
  4061b2:	eba2 0305 	sub.w	r3, r2, r5
  4061b6:	d801      	bhi.n	4061bc <_malloc_r+0x2f8>
  4061b8:	2b0f      	cmp	r3, #15
  4061ba:	dc04      	bgt.n	4061c6 <_malloc_r+0x302>
  4061bc:	4630      	mov	r0, r6
  4061be:	f000 fa5d 	bl	40667c <__malloc_unlock>
  4061c2:	2400      	movs	r4, #0
  4061c4:	e6aa      	b.n	405f1c <_malloc_r+0x58>
  4061c6:	1962      	adds	r2, r4, r5
  4061c8:	f043 0301 	orr.w	r3, r3, #1
  4061cc:	f045 0501 	orr.w	r5, r5, #1
  4061d0:	6065      	str	r5, [r4, #4]
  4061d2:	4630      	mov	r0, r6
  4061d4:	60ba      	str	r2, [r7, #8]
  4061d6:	6053      	str	r3, [r2, #4]
  4061d8:	f000 fa50 	bl	40667c <__malloc_unlock>
  4061dc:	3408      	adds	r4, #8
  4061de:	4620      	mov	r0, r4
  4061e0:	b003      	add	sp, #12
  4061e2:	e8bd 8ff0 	ldmia.w	sp!, {r4, r5, r6, r7, r8, r9, sl, fp, pc}
  4061e6:	2814      	cmp	r0, #20
  4061e8:	d968      	bls.n	4062bc <_malloc_r+0x3f8>
  4061ea:	2854      	cmp	r0, #84	; 0x54
  4061ec:	f200 8097 	bhi.w	40631e <_malloc_r+0x45a>
  4061f0:	0b28      	lsrs	r0, r5, #12
  4061f2:	306e      	adds	r0, #110	; 0x6e
  4061f4:	0041      	lsls	r1, r0, #1
  4061f6:	e6a5      	b.n	405f44 <_malloc_r+0x80>
  4061f8:	20000474 	.word	0x20000474
  4061fc:	20000cf0 	.word	0x20000cf0
  406200:	20000cf4 	.word	0x20000cf4
  406204:	20000cec 	.word	0x20000cec
  406208:	20000ce8 	.word	0x20000ce8
  40620c:	20000880 	.word	0x20000880
  406210:	0a5a      	lsrs	r2, r3, #9
  406212:	2a04      	cmp	r2, #4
  406214:	d955      	bls.n	4062c2 <_malloc_r+0x3fe>
  406216:	2a14      	cmp	r2, #20
  406218:	f200 80a7 	bhi.w	40636a <_malloc_r+0x4a6>
  40621c:	325b      	adds	r2, #91	; 0x5b
  40621e:	ea4f 0c42 	mov.w	ip, r2, lsl #1
  406222:	eb07 0c8c 	add.w	ip, r7, ip, lsl #2
  406226:	f8df 81bc 	ldr.w	r8, [pc, #444]	; 4063e4 <_malloc_r+0x520>
  40622a:	f8dc 1008 	ldr.w	r1, [ip, #8]
  40622e:	4561      	cmp	r1, ip
  406230:	d07f      	beq.n	406332 <_malloc_r+0x46e>
  406232:	684a      	ldr	r2, [r1, #4]
  406234:	f022 0203 	bic.w	r2, r2, #3
  406238:	4293      	cmp	r3, r2
  40623a:	d202      	bcs.n	406242 <_malloc_r+0x37e>
  40623c:	6889      	ldr	r1, [r1, #8]
  40623e:	458c      	cmp	ip, r1
  406240:	d1f7      	bne.n	406232 <_malloc_r+0x36e>
  406242:	68ca      	ldr	r2, [r1, #12]
  406244:	687b      	ldr	r3, [r7, #4]
  406246:	60e2      	str	r2, [r4, #12]
  406248:	60a1      	str	r1, [r4, #8]
  40624a:	6094      	str	r4, [r2, #8]
  40624c:	60cc      	str	r4, [r1, #12]
  40624e:	e6bb      	b.n	405fc8 <_malloc_r+0x104>
  406250:	1963      	adds	r3, r4, r5
  406252:	f042 0701 	orr.w	r7, r2, #1
  406256:	f045 0501 	orr.w	r5, r5, #1
  40625a:	6065      	str	r5, [r4, #4]
  40625c:	4630      	mov	r0, r6
  40625e:	614b      	str	r3, [r1, #20]
  406260:	610b      	str	r3, [r1, #16]
  406262:	f8c3 e00c 	str.w	lr, [r3, #12]
  406266:	f8c3 e008 	str.w	lr, [r3, #8]
  40626a:	605f      	str	r7, [r3, #4]
  40626c:	509a      	str	r2, [r3, r2]
  40626e:	3408      	adds	r4, #8
  406270:	f000 fa04 	bl	40667c <__malloc_unlock>
  406274:	e652      	b.n	405f1c <_malloc_r+0x58>
  406276:	684b      	ldr	r3, [r1, #4]
  406278:	e6a6      	b.n	405fc8 <_malloc_r+0x104>
  40627a:	f109 0901 	add.w	r9, r9, #1
  40627e:	f019 0f03 	tst.w	r9, #3
  406282:	f10c 0c08 	add.w	ip, ip, #8
  406286:	f47f aeb1 	bne.w	405fec <_malloc_r+0x128>
  40628a:	e02c      	b.n	4062e6 <_malloc_r+0x422>
  40628c:	f104 0308 	add.w	r3, r4, #8
  406290:	6964      	ldr	r4, [r4, #20]
  406292:	42a3      	cmp	r3, r4
  406294:	bf08      	it	eq
  406296:	3002      	addeq	r0, #2
  406298:	f43f ae69 	beq.w	405f6e <_malloc_r+0xaa>
  40629c:	e62e      	b.n	405efc <_malloc_r+0x38>
  40629e:	441a      	add	r2, r3
  4062a0:	461c      	mov	r4, r3
  4062a2:	6851      	ldr	r1, [r2, #4]
  4062a4:	68db      	ldr	r3, [r3, #12]
  4062a6:	f854 5f08 	ldr.w	r5, [r4, #8]!
  4062aa:	f041 0101 	orr.w	r1, r1, #1
  4062ae:	6051      	str	r1, [r2, #4]
  4062b0:	4630      	mov	r0, r6
  4062b2:	60eb      	str	r3, [r5, #12]
  4062b4:	609d      	str	r5, [r3, #8]
  4062b6:	f000 f9e1 	bl	40667c <__malloc_unlock>
  4062ba:	e62f      	b.n	405f1c <_malloc_r+0x58>
  4062bc:	305b      	adds	r0, #91	; 0x5b
  4062be:	0041      	lsls	r1, r0, #1
  4062c0:	e640      	b.n	405f44 <_malloc_r+0x80>
  4062c2:	099a      	lsrs	r2, r3, #6
  4062c4:	3238      	adds	r2, #56	; 0x38
  4062c6:	ea4f 0c42 	mov.w	ip, r2, lsl #1
  4062ca:	e7aa      	b.n	406222 <_malloc_r+0x35e>
  4062cc:	42bc      	cmp	r4, r7
  4062ce:	4b45      	ldr	r3, [pc, #276]	; (4063e4 <_malloc_r+0x520>)
  4062d0:	f43f af0e 	beq.w	4060f0 <_malloc_r+0x22c>
  4062d4:	689c      	ldr	r4, [r3, #8]
  4062d6:	6862      	ldr	r2, [r4, #4]
  4062d8:	f022 0203 	bic.w	r2, r2, #3
  4062dc:	e768      	b.n	4061b0 <_malloc_r+0x2ec>
  4062de:	f8d8 8000 	ldr.w	r8, [r8]
  4062e2:	4598      	cmp	r8, r3
  4062e4:	d17c      	bne.n	4063e0 <_malloc_r+0x51c>
  4062e6:	f010 0f03 	tst.w	r0, #3
  4062ea:	f1a8 0308 	sub.w	r3, r8, #8
  4062ee:	f100 30ff 	add.w	r0, r0, #4294967295
  4062f2:	d1f4      	bne.n	4062de <_malloc_r+0x41a>
  4062f4:	687b      	ldr	r3, [r7, #4]
  4062f6:	ea23 0304 	bic.w	r3, r3, r4
  4062fa:	607b      	str	r3, [r7, #4]
  4062fc:	0064      	lsls	r4, r4, #1
  4062fe:	429c      	cmp	r4, r3
  406300:	f63f aeca 	bhi.w	406098 <_malloc_r+0x1d4>
  406304:	2c00      	cmp	r4, #0
  406306:	f43f aec7 	beq.w	406098 <_malloc_r+0x1d4>
  40630a:	4223      	tst	r3, r4
  40630c:	4648      	mov	r0, r9
  40630e:	f47f ae69 	bne.w	405fe4 <_malloc_r+0x120>
  406312:	0064      	lsls	r4, r4, #1
  406314:	4223      	tst	r3, r4
  406316:	f100 0004 	add.w	r0, r0, #4
  40631a:	d0fa      	beq.n	406312 <_malloc_r+0x44e>
  40631c:	e662      	b.n	405fe4 <_malloc_r+0x120>
  40631e:	f5b0 7faa 	cmp.w	r0, #340	; 0x154
  406322:	d818      	bhi.n	406356 <_malloc_r+0x492>
  406324:	0be8      	lsrs	r0, r5, #15
  406326:	3077      	adds	r0, #119	; 0x77
  406328:	0041      	lsls	r1, r0, #1
  40632a:	e60b      	b.n	405f44 <_malloc_r+0x80>
  40632c:	f44f 5180 	mov.w	r1, #4096	; 0x1000
  406330:	e6fb      	b.n	40612a <_malloc_r+0x266>
  406332:	f8d8 3004 	ldr.w	r3, [r8, #4]
  406336:	1092      	asrs	r2, r2, #2
  406338:	f04f 0c01 	mov.w	ip, #1
  40633c:	fa0c f202 	lsl.w	r2, ip, r2
  406340:	4313      	orrs	r3, r2
  406342:	f8c8 3004 	str.w	r3, [r8, #4]
  406346:	460a      	mov	r2, r1
  406348:	e77d      	b.n	406246 <_malloc_r+0x382>
  40634a:	2301      	movs	r3, #1
  40634c:	f8c9 3004 	str.w	r3, [r9, #4]
  406350:	464c      	mov	r4, r9
  406352:	2200      	movs	r2, #0
  406354:	e72c      	b.n	4061b0 <_malloc_r+0x2ec>
  406356:	f240 5354 	movw	r3, #1364	; 0x554
  40635a:	4298      	cmp	r0, r3
  40635c:	d81c      	bhi.n	406398 <_malloc_r+0x4d4>
  40635e:	0ca8      	lsrs	r0, r5, #18
  406360:	307c      	adds	r0, #124	; 0x7c
  406362:	0041      	lsls	r1, r0, #1
  406364:	e5ee      	b.n	405f44 <_malloc_r+0x80>
  406366:	3210      	adds	r2, #16
  406368:	e6b4      	b.n	4060d4 <_malloc_r+0x210>
  40636a:	2a54      	cmp	r2, #84	; 0x54
  40636c:	d823      	bhi.n	4063b6 <_malloc_r+0x4f2>
  40636e:	0b1a      	lsrs	r2, r3, #12
  406370:	326e      	adds	r2, #110	; 0x6e
  406372:	ea4f 0c42 	mov.w	ip, r2, lsl #1
  406376:	e754      	b.n	406222 <_malloc_r+0x35e>
  406378:	68bc      	ldr	r4, [r7, #8]
  40637a:	6862      	ldr	r2, [r4, #4]
  40637c:	f022 0203 	bic.w	r2, r2, #3
  406380:	e716      	b.n	4061b0 <_malloc_r+0x2ec>
  406382:	f3cb 000b 	ubfx	r0, fp, #0, #12
  406386:	2800      	cmp	r0, #0
  406388:	f47f aeb9 	bne.w	4060fe <_malloc_r+0x23a>
  40638c:	4442      	add	r2, r8
  40638e:	68bb      	ldr	r3, [r7, #8]
  406390:	f042 0201 	orr.w	r2, r2, #1
  406394:	605a      	str	r2, [r3, #4]
  406396:	e6fd      	b.n	406194 <_malloc_r+0x2d0>
  406398:	21fc      	movs	r1, #252	; 0xfc
  40639a:	207e      	movs	r0, #126	; 0x7e
  40639c:	e5d2      	b.n	405f44 <_malloc_r+0x80>
  40639e:	2201      	movs	r2, #1
  4063a0:	f04f 0a00 	mov.w	sl, #0
  4063a4:	e6d4      	b.n	406150 <_malloc_r+0x28c>
  4063a6:	f104 0108 	add.w	r1, r4, #8
  4063aa:	4630      	mov	r0, r6
  4063ac:	f7ff fcae 	bl	405d0c <_free_r>
  4063b0:	f8da 1000 	ldr.w	r1, [sl]
  4063b4:	e6ee      	b.n	406194 <_malloc_r+0x2d0>
  4063b6:	f5b2 7faa 	cmp.w	r2, #340	; 0x154
  4063ba:	d804      	bhi.n	4063c6 <_malloc_r+0x502>
  4063bc:	0bda      	lsrs	r2, r3, #15
  4063be:	3277      	adds	r2, #119	; 0x77
  4063c0:	ea4f 0c42 	mov.w	ip, r2, lsl #1
  4063c4:	e72d      	b.n	406222 <_malloc_r+0x35e>
  4063c6:	f240 5154 	movw	r1, #1364	; 0x554
  4063ca:	428a      	cmp	r2, r1
  4063cc:	d804      	bhi.n	4063d8 <_malloc_r+0x514>
  4063ce:	0c9a      	lsrs	r2, r3, #18
  4063d0:	327c      	adds	r2, #124	; 0x7c
  4063d2:	ea4f 0c42 	mov.w	ip, r2, lsl #1
  4063d6:	e724      	b.n	406222 <_malloc_r+0x35e>
  4063d8:	f04f 0cfc 	mov.w	ip, #252	; 0xfc
  4063dc:	227e      	movs	r2, #126	; 0x7e
  4063de:	e720      	b.n	406222 <_malloc_r+0x35e>
  4063e0:	687b      	ldr	r3, [r7, #4]
  4063e2:	e78b      	b.n	4062fc <_malloc_r+0x438>
  4063e4:	20000474 	.word	0x20000474

004063e8 <memchr>:
  4063e8:	0783      	lsls	r3, r0, #30
  4063ea:	b470      	push	{r4, r5, r6}
  4063ec:	b2c9      	uxtb	r1, r1
  4063ee:	d040      	beq.n	406472 <memchr+0x8a>
  4063f0:	1e54      	subs	r4, r2, #1
  4063f2:	2a00      	cmp	r2, #0
  4063f4:	d03f      	beq.n	406476 <memchr+0x8e>
  4063f6:	7803      	ldrb	r3, [r0, #0]
  4063f8:	428b      	cmp	r3, r1
  4063fa:	bf18      	it	ne
  4063fc:	1c43      	addne	r3, r0, #1
  4063fe:	d106      	bne.n	40640e <memchr+0x26>
  406400:	e01d      	b.n	40643e <memchr+0x56>
  406402:	b1f4      	cbz	r4, 406442 <memchr+0x5a>
  406404:	7802      	ldrb	r2, [r0, #0]
  406406:	428a      	cmp	r2, r1
  406408:	f104 34ff 	add.w	r4, r4, #4294967295
  40640c:	d017      	beq.n	40643e <memchr+0x56>
  40640e:	f013 0f03 	tst.w	r3, #3
  406412:	4618      	mov	r0, r3
  406414:	f103 0301 	add.w	r3, r3, #1
  406418:	d1f3      	bne.n	406402 <memchr+0x1a>
  40641a:	2c03      	cmp	r4, #3
  40641c:	d814      	bhi.n	406448 <memchr+0x60>
  40641e:	b184      	cbz	r4, 406442 <memchr+0x5a>
  406420:	7803      	ldrb	r3, [r0, #0]
  406422:	428b      	cmp	r3, r1
  406424:	d00b      	beq.n	40643e <memchr+0x56>
  406426:	1905      	adds	r5, r0, r4
  406428:	1c43      	adds	r3, r0, #1
  40642a:	e002      	b.n	406432 <memchr+0x4a>
  40642c:	7802      	ldrb	r2, [r0, #0]
  40642e:	428a      	cmp	r2, r1
  406430:	d005      	beq.n	40643e <memchr+0x56>
  406432:	42ab      	cmp	r3, r5
  406434:	4618      	mov	r0, r3
  406436:	f103 0301 	add.w	r3, r3, #1
  40643a:	d1f7      	bne.n	40642c <memchr+0x44>
  40643c:	2000      	movs	r0, #0
  40643e:	bc70      	pop	{r4, r5, r6}
  406440:	4770      	bx	lr
  406442:	4620      	mov	r0, r4
  406444:	bc70      	pop	{r4, r5, r6}
  406446:	4770      	bx	lr
  406448:	ea41 2601 	orr.w	r6, r1, r1, lsl #8
  40644c:	4602      	mov	r2, r0
  40644e:	ea46 4606 	orr.w	r6, r6, r6, lsl #16
  406452:	4610      	mov	r0, r2
  406454:	3204      	adds	r2, #4
  406456:	6803      	ldr	r3, [r0, #0]
  406458:	4073      	eors	r3, r6
  40645a:	f1a3 3501 	sub.w	r5, r3, #16843009	; 0x1010101
  40645e:	ea25 0303 	bic.w	r3, r5, r3
  406462:	f013 3f80 	tst.w	r3, #2155905152	; 0x80808080
  406466:	d1da      	bne.n	40641e <memchr+0x36>
  406468:	3c04      	subs	r4, #4
  40646a:	2c03      	cmp	r4, #3
  40646c:	4610      	mov	r0, r2
  40646e:	d8f0      	bhi.n	406452 <memchr+0x6a>
  406470:	e7d5      	b.n	40641e <memchr+0x36>
  406472:	4614      	mov	r4, r2
  406474:	e7d1      	b.n	40641a <memchr+0x32>
  406476:	4610      	mov	r0, r2
  406478:	e7e1      	b.n	40643e <memchr+0x56>
  40647a:	bf00      	nop

0040647c <memcpy>:
  40647c:	4684      	mov	ip, r0
  40647e:	ea41 0300 	orr.w	r3, r1, r0
  406482:	f013 0303 	ands.w	r3, r3, #3
  406486:	d16d      	bne.n	406564 <memcpy+0xe8>
  406488:	3a40      	subs	r2, #64	; 0x40
  40648a:	d341      	bcc.n	406510 <memcpy+0x94>
  40648c:	f851 3b04 	ldr.w	r3, [r1], #4
  406490:	f840 3b04 	str.w	r3, [r0], #4
  406494:	f851 3b04 	ldr.w	r3, [r1], #4
  406498:	f840 3b04 	str.w	r3, [r0], #4
  40649c:	f851 3b04 	ldr.w	r3, [r1], #4
  4064a0:	f840 3b04 	str.w	r3, [r0], #4
  4064a4:	f851 3b04 	ldr.w	r3, [r1], #4
  4064a8:	f840 3b04 	str.w	r3, [r0], #4
  4064ac:	f851 3b04 	ldr.w	r3, [r1], #4
  4064b0:	f840 3b04 	str.w	r3, [r0], #4
  4064b4:	f851 3b04 	ldr.w	r3, [r1], #4
  4064b8:	f840 3b04 	str.w	r3, [r0], #4
  4064bc:	f851 3b04 	ldr.w	r3, [r1], #4
  4064c0:	f840 3b04 	str.w	r3, [r0], #4
  4064c4:	f851 3b04 	ldr.w	r3, [r1], #4
  4064c8:	f840 3b04 	str.w	r3, [r0], #4
  4064cc:	f851 3b04 	ldr.w	r3, [r1], #4
  4064d0:	f840 3b04 	str.w	r3, [r0], #4
  4064d4:	f851 3b04 	ldr.w	r3, [r1], #4
  4064d8:	f840 3b04 	str.w	r3, [r0], #4
  4064dc:	f851 3b04 	ldr.w	r3, [r1], #4
  4064e0:	f840 3b04 	str.w	r3, [r0], #4
  4064e4:	f851 3b04 	ldr.w	r3, [r1], #4
  4064e8:	f840 3b04 	str.w	r3, [r0], #4
  4064ec:	f851 3b04 	ldr.w	r3, [r1], #4
  4064f0:	f840 3b04 	str.w	r3, [r0], #4
  4064f4:	f851 3b04 	ldr.w	r3, [r1], #4
  4064f8:	f840 3b04 	str.w	r3, [r0], #4
  4064fc:	f851 3b04 	ldr.w	r3, [r1], #4
  406500:	f840 3b04 	str.w	r3, [r0], #4
  406504:	f851 3b04 	ldr.w	r3, [r1], #4
  406508:	f840 3b04 	str.w	r3, [r0], #4
  40650c:	3a40      	subs	r2, #64	; 0x40
  40650e:	d2bd      	bcs.n	40648c <memcpy+0x10>
  406510:	3230      	adds	r2, #48	; 0x30
  406512:	d311      	bcc.n	406538 <memcpy+0xbc>
  406514:	f851 3b04 	ldr.w	r3, [r1], #4
  406518:	f840 3b04 	str.w	r3, [r0], #4
  40651c:	f851 3b04 	ldr.w	r3, [r1], #4
  406520:	f840 3b04 	str.w	r3, [r0], #4
  406524:	f851 3b04 	ldr.w	r3, [r1], #4
  406528:	f840 3b04 	str.w	r3, [r0], #4
  40652c:	f851 3b04 	ldr.w	r3, [r1], #4
  406530:	f840 3b04 	str.w	r3, [r0], #4
  406534:	3a10      	subs	r2, #16
  406536:	d2ed      	bcs.n	406514 <memcpy+0x98>
  406538:	320c      	adds	r2, #12
  40653a:	d305      	bcc.n	406548 <memcpy+0xcc>
  40653c:	f851 3b04 	ldr.w	r3, [r1], #4
  406540:	f840 3b04 	str.w	r3, [r0], #4
  406544:	3a04      	subs	r2, #4
  406546:	d2f9      	bcs.n	40653c <memcpy+0xc0>
  406548:	3204      	adds	r2, #4
  40654a:	d008      	beq.n	40655e <memcpy+0xe2>
  40654c:	07d2      	lsls	r2, r2, #31
  40654e:	bf1c      	itt	ne
  406550:	f811 3b01 	ldrbne.w	r3, [r1], #1
  406554:	f800 3b01 	strbne.w	r3, [r0], #1
  406558:	d301      	bcc.n	40655e <memcpy+0xe2>
  40655a:	880b      	ldrh	r3, [r1, #0]
  40655c:	8003      	strh	r3, [r0, #0]
  40655e:	4660      	mov	r0, ip
  406560:	4770      	bx	lr
  406562:	bf00      	nop
  406564:	2a08      	cmp	r2, #8
  406566:	d313      	bcc.n	406590 <memcpy+0x114>
  406568:	078b      	lsls	r3, r1, #30
  40656a:	d08d      	beq.n	406488 <memcpy+0xc>
  40656c:	f010 0303 	ands.w	r3, r0, #3
  406570:	d08a      	beq.n	406488 <memcpy+0xc>
  406572:	f1c3 0304 	rsb	r3, r3, #4
  406576:	1ad2      	subs	r2, r2, r3
  406578:	07db      	lsls	r3, r3, #31
  40657a:	bf1c      	itt	ne
  40657c:	f811 3b01 	ldrbne.w	r3, [r1], #1
  406580:	f800 3b01 	strbne.w	r3, [r0], #1
  406584:	d380      	bcc.n	406488 <memcpy+0xc>
  406586:	f831 3b02 	ldrh.w	r3, [r1], #2
  40658a:	f820 3b02 	strh.w	r3, [r0], #2
  40658e:	e77b      	b.n	406488 <memcpy+0xc>
  406590:	3a04      	subs	r2, #4
  406592:	d3d9      	bcc.n	406548 <memcpy+0xcc>
  406594:	3a01      	subs	r2, #1
  406596:	f811 3b01 	ldrb.w	r3, [r1], #1
  40659a:	f800 3b01 	strb.w	r3, [r0], #1
  40659e:	d2f9      	bcs.n	406594 <memcpy+0x118>
  4065a0:	780b      	ldrb	r3, [r1, #0]
  4065a2:	7003      	strb	r3, [r0, #0]
  4065a4:	784b      	ldrb	r3, [r1, #1]
  4065a6:	7043      	strb	r3, [r0, #1]
  4065a8:	788b      	ldrb	r3, [r1, #2]
  4065aa:	7083      	strb	r3, [r0, #2]
  4065ac:	4660      	mov	r0, ip
  4065ae:	4770      	bx	lr

004065b0 <memmove>:
  4065b0:	4288      	cmp	r0, r1
  4065b2:	b5f0      	push	{r4, r5, r6, r7, lr}
  4065b4:	d90d      	bls.n	4065d2 <memmove+0x22>
  4065b6:	188b      	adds	r3, r1, r2
  4065b8:	4298      	cmp	r0, r3
  4065ba:	d20a      	bcs.n	4065d2 <memmove+0x22>
  4065bc:	1881      	adds	r1, r0, r2
  4065be:	2a00      	cmp	r2, #0
  4065c0:	d054      	beq.n	40666c <memmove+0xbc>
  4065c2:	1a9a      	subs	r2, r3, r2
  4065c4:	f813 4d01 	ldrb.w	r4, [r3, #-1]!
  4065c8:	f801 4d01 	strb.w	r4, [r1, #-1]!
  4065cc:	4293      	cmp	r3, r2
  4065ce:	d1f9      	bne.n	4065c4 <memmove+0x14>
  4065d0:	bdf0      	pop	{r4, r5, r6, r7, pc}
  4065d2:	2a0f      	cmp	r2, #15
  4065d4:	d948      	bls.n	406668 <memmove+0xb8>
  4065d6:	ea40 0301 	orr.w	r3, r0, r1
  4065da:	079b      	lsls	r3, r3, #30
  4065dc:	d147      	bne.n	40666e <memmove+0xbe>
  4065de:	f100 0410 	add.w	r4, r0, #16
  4065e2:	f101 0310 	add.w	r3, r1, #16
  4065e6:	4615      	mov	r5, r2
  4065e8:	f853 6c10 	ldr.w	r6, [r3, #-16]
  4065ec:	f844 6c10 	str.w	r6, [r4, #-16]
  4065f0:	f853 6c0c 	ldr.w	r6, [r3, #-12]
  4065f4:	f844 6c0c 	str.w	r6, [r4, #-12]
  4065f8:	f853 6c08 	ldr.w	r6, [r3, #-8]
  4065fc:	f844 6c08 	str.w	r6, [r4, #-8]
  406600:	3d10      	subs	r5, #16
  406602:	f853 6c04 	ldr.w	r6, [r3, #-4]
  406606:	f844 6c04 	str.w	r6, [r4, #-4]
  40660a:	2d0f      	cmp	r5, #15
  40660c:	f103 0310 	add.w	r3, r3, #16
  406610:	f104 0410 	add.w	r4, r4, #16
  406614:	d8e8      	bhi.n	4065e8 <memmove+0x38>
  406616:	f1a2 0310 	sub.w	r3, r2, #16
  40661a:	f023 030f 	bic.w	r3, r3, #15
  40661e:	f002 0e0f 	and.w	lr, r2, #15
  406622:	3310      	adds	r3, #16
  406624:	f1be 0f03 	cmp.w	lr, #3
  406628:	4419      	add	r1, r3
  40662a:	4403      	add	r3, r0
  40662c:	d921      	bls.n	406672 <memmove+0xc2>
  40662e:	1f1e      	subs	r6, r3, #4
  406630:	460d      	mov	r5, r1
  406632:	4674      	mov	r4, lr
  406634:	3c04      	subs	r4, #4
  406636:	f855 7b04 	ldr.w	r7, [r5], #4
  40663a:	f846 7f04 	str.w	r7, [r6, #4]!
  40663e:	2c03      	cmp	r4, #3
  406640:	d8f8      	bhi.n	406634 <memmove+0x84>
  406642:	f1ae 0404 	sub.w	r4, lr, #4
  406646:	f024 0403 	bic.w	r4, r4, #3
  40664a:	3404      	adds	r4, #4
  40664c:	4423      	add	r3, r4
  40664e:	4421      	add	r1, r4
  406650:	f002 0203 	and.w	r2, r2, #3
  406654:	b152      	cbz	r2, 40666c <memmove+0xbc>
  406656:	3b01      	subs	r3, #1
  406658:	440a      	add	r2, r1
  40665a:	f811 4b01 	ldrb.w	r4, [r1], #1
  40665e:	f803 4f01 	strb.w	r4, [r3, #1]!
  406662:	4291      	cmp	r1, r2
  406664:	d1f9      	bne.n	40665a <memmove+0xaa>
  406666:	bdf0      	pop	{r4, r5, r6, r7, pc}
  406668:	4603      	mov	r3, r0
  40666a:	e7f3      	b.n	406654 <memmove+0xa4>
  40666c:	bdf0      	pop	{r4, r5, r6, r7, pc}
  40666e:	4603      	mov	r3, r0
  406670:	e7f1      	b.n	406656 <memmove+0xa6>
  406672:	4672      	mov	r2, lr
  406674:	e7ee      	b.n	406654 <memmove+0xa4>
  406676:	bf00      	nop

00406678 <__malloc_lock>:
  406678:	4770      	bx	lr
  40667a:	bf00      	nop

0040667c <__malloc_unlock>:
  40667c:	4770      	bx	lr
  40667e:	bf00      	nop

00406680 <_Balloc>:
  406680:	6cc3      	ldr	r3, [r0, #76]	; 0x4c
  406682:	b570      	push	{r4, r5, r6, lr}
  406684:	4605      	mov	r5, r0
  406686:	460c      	mov	r4, r1
  406688:	b14b      	cbz	r3, 40669e <_Balloc+0x1e>
  40668a:	f853 0024 	ldr.w	r0, [r3, r4, lsl #2]
  40668e:	b180      	cbz	r0, 4066b2 <_Balloc+0x32>
  406690:	6802      	ldr	r2, [r0, #0]
  406692:	f843 2024 	str.w	r2, [r3, r4, lsl #2]
  406696:	2300      	movs	r3, #0
  406698:	6103      	str	r3, [r0, #16]
  40669a:	60c3      	str	r3, [r0, #12]
  40669c:	bd70      	pop	{r4, r5, r6, pc}
  40669e:	2104      	movs	r1, #4
  4066a0:	2221      	movs	r2, #33	; 0x21
  4066a2:	f000 fde9 	bl	407278 <_calloc_r>
  4066a6:	64e8      	str	r0, [r5, #76]	; 0x4c
  4066a8:	4603      	mov	r3, r0
  4066aa:	2800      	cmp	r0, #0
  4066ac:	d1ed      	bne.n	40668a <_Balloc+0xa>
  4066ae:	2000      	movs	r0, #0
  4066b0:	bd70      	pop	{r4, r5, r6, pc}
  4066b2:	2101      	movs	r1, #1
  4066b4:	fa01 f604 	lsl.w	r6, r1, r4
  4066b8:	1d72      	adds	r2, r6, #5
  4066ba:	4628      	mov	r0, r5
  4066bc:	0092      	lsls	r2, r2, #2
  4066be:	f000 fddb 	bl	407278 <_calloc_r>
  4066c2:	2800      	cmp	r0, #0
  4066c4:	d0f3      	beq.n	4066ae <_Balloc+0x2e>
  4066c6:	6044      	str	r4, [r0, #4]
  4066c8:	6086      	str	r6, [r0, #8]
  4066ca:	e7e4      	b.n	406696 <_Balloc+0x16>

004066cc <_Bfree>:
  4066cc:	b131      	cbz	r1, 4066dc <_Bfree+0x10>
  4066ce:	6cc3      	ldr	r3, [r0, #76]	; 0x4c
  4066d0:	684a      	ldr	r2, [r1, #4]
  4066d2:	f853 0022 	ldr.w	r0, [r3, r2, lsl #2]
  4066d6:	6008      	str	r0, [r1, #0]
  4066d8:	f843 1022 	str.w	r1, [r3, r2, lsl #2]
  4066dc:	4770      	bx	lr
  4066de:	bf00      	nop

004066e0 <__multadd>:
  4066e0:	b5f0      	push	{r4, r5, r6, r7, lr}
  4066e2:	690c      	ldr	r4, [r1, #16]
  4066e4:	b083      	sub	sp, #12
  4066e6:	460d      	mov	r5, r1
  4066e8:	4606      	mov	r6, r0
  4066ea:	f101 0e14 	add.w	lr, r1, #20
  4066ee:	2700      	movs	r7, #0
  4066f0:	f8de 1000 	ldr.w	r1, [lr]
  4066f4:	b288      	uxth	r0, r1
  4066f6:	0c09      	lsrs	r1, r1, #16
  4066f8:	fb02 3300 	mla	r3, r2, r0, r3
  4066fc:	fb02 f101 	mul.w	r1, r2, r1
  406700:	eb01 4113 	add.w	r1, r1, r3, lsr #16
  406704:	3701      	adds	r7, #1
  406706:	b29b      	uxth	r3, r3
  406708:	eb03 4301 	add.w	r3, r3, r1, lsl #16
  40670c:	42bc      	cmp	r4, r7
  40670e:	f84e 3b04 	str.w	r3, [lr], #4
  406712:	ea4f 4311 	mov.w	r3, r1, lsr #16
  406716:	dceb      	bgt.n	4066f0 <__multadd+0x10>
  406718:	b13b      	cbz	r3, 40672a <__multadd+0x4a>
  40671a:	68aa      	ldr	r2, [r5, #8]
  40671c:	4294      	cmp	r4, r2
  40671e:	da07      	bge.n	406730 <__multadd+0x50>
  406720:	eb05 0284 	add.w	r2, r5, r4, lsl #2
  406724:	3401      	adds	r4, #1
  406726:	6153      	str	r3, [r2, #20]
  406728:	612c      	str	r4, [r5, #16]
  40672a:	4628      	mov	r0, r5
  40672c:	b003      	add	sp, #12
  40672e:	bdf0      	pop	{r4, r5, r6, r7, pc}
  406730:	6869      	ldr	r1, [r5, #4]
  406732:	9301      	str	r3, [sp, #4]
  406734:	3101      	adds	r1, #1
  406736:	4630      	mov	r0, r6
  406738:	f7ff ffa2 	bl	406680 <_Balloc>
  40673c:	692a      	ldr	r2, [r5, #16]
  40673e:	3202      	adds	r2, #2
  406740:	f105 010c 	add.w	r1, r5, #12
  406744:	4607      	mov	r7, r0
  406746:	0092      	lsls	r2, r2, #2
  406748:	300c      	adds	r0, #12
  40674a:	f7ff fe97 	bl	40647c <memcpy>
  40674e:	6cf2      	ldr	r2, [r6, #76]	; 0x4c
  406750:	6869      	ldr	r1, [r5, #4]
  406752:	9b01      	ldr	r3, [sp, #4]
  406754:	f852 0021 	ldr.w	r0, [r2, r1, lsl #2]
  406758:	6028      	str	r0, [r5, #0]
  40675a:	f842 5021 	str.w	r5, [r2, r1, lsl #2]
  40675e:	463d      	mov	r5, r7
  406760:	e7de      	b.n	406720 <__multadd+0x40>
  406762:	bf00      	nop

00406764 <__hi0bits>:
  406764:	0c03      	lsrs	r3, r0, #16
  406766:	041b      	lsls	r3, r3, #16
  406768:	b9b3      	cbnz	r3, 406798 <__hi0bits+0x34>
  40676a:	0400      	lsls	r0, r0, #16
  40676c:	2310      	movs	r3, #16
  40676e:	f010 4f7f 	tst.w	r0, #4278190080	; 0xff000000
  406772:	bf04      	itt	eq
  406774:	0200      	lsleq	r0, r0, #8
  406776:	3308      	addeq	r3, #8
  406778:	f010 4f70 	tst.w	r0, #4026531840	; 0xf0000000
  40677c:	bf04      	itt	eq
  40677e:	0100      	lsleq	r0, r0, #4
  406780:	3304      	addeq	r3, #4
  406782:	f010 4f40 	tst.w	r0, #3221225472	; 0xc0000000
  406786:	bf04      	itt	eq
  406788:	0080      	lsleq	r0, r0, #2
  40678a:	3302      	addeq	r3, #2
  40678c:	2800      	cmp	r0, #0
  40678e:	db07      	blt.n	4067a0 <__hi0bits+0x3c>
  406790:	0042      	lsls	r2, r0, #1
  406792:	d403      	bmi.n	40679c <__hi0bits+0x38>
  406794:	2020      	movs	r0, #32
  406796:	4770      	bx	lr
  406798:	2300      	movs	r3, #0
  40679a:	e7e8      	b.n	40676e <__hi0bits+0xa>
  40679c:	1c58      	adds	r0, r3, #1
  40679e:	4770      	bx	lr
  4067a0:	4618      	mov	r0, r3
  4067a2:	4770      	bx	lr

004067a4 <__lo0bits>:
  4067a4:	6803      	ldr	r3, [r0, #0]
  4067a6:	f013 0207 	ands.w	r2, r3, #7
  4067aa:	d007      	beq.n	4067bc <__lo0bits+0x18>
  4067ac:	07d9      	lsls	r1, r3, #31
  4067ae:	d420      	bmi.n	4067f2 <__lo0bits+0x4e>
  4067b0:	079a      	lsls	r2, r3, #30
  4067b2:	d420      	bmi.n	4067f6 <__lo0bits+0x52>
  4067b4:	089b      	lsrs	r3, r3, #2
  4067b6:	6003      	str	r3, [r0, #0]
  4067b8:	2002      	movs	r0, #2
  4067ba:	4770      	bx	lr
  4067bc:	b299      	uxth	r1, r3
  4067be:	b909      	cbnz	r1, 4067c4 <__lo0bits+0x20>
  4067c0:	0c1b      	lsrs	r3, r3, #16
  4067c2:	2210      	movs	r2, #16
  4067c4:	f013 0fff 	tst.w	r3, #255	; 0xff
  4067c8:	bf04      	itt	eq
  4067ca:	0a1b      	lsreq	r3, r3, #8
  4067cc:	3208      	addeq	r2, #8
  4067ce:	0719      	lsls	r1, r3, #28
  4067d0:	bf04      	itt	eq
  4067d2:	091b      	lsreq	r3, r3, #4
  4067d4:	3204      	addeq	r2, #4
  4067d6:	0799      	lsls	r1, r3, #30
  4067d8:	bf04      	itt	eq
  4067da:	089b      	lsreq	r3, r3, #2
  4067dc:	3202      	addeq	r2, #2
  4067de:	07d9      	lsls	r1, r3, #31
  4067e0:	d404      	bmi.n	4067ec <__lo0bits+0x48>
  4067e2:	085b      	lsrs	r3, r3, #1
  4067e4:	d101      	bne.n	4067ea <__lo0bits+0x46>
  4067e6:	2020      	movs	r0, #32
  4067e8:	4770      	bx	lr
  4067ea:	3201      	adds	r2, #1
  4067ec:	6003      	str	r3, [r0, #0]
  4067ee:	4610      	mov	r0, r2
  4067f0:	4770      	bx	lr
  4067f2:	2000      	movs	r0, #0
  4067f4:	4770      	bx	lr
  4067f6:	085b      	lsrs	r3, r3, #1
  4067f8:	6003      	str	r3, [r0, #0]
  4067fa:	2001      	movs	r0, #1
  4067fc:	4770      	bx	lr
  4067fe:	bf00      	nop

00406800 <__i2b>:
  406800:	b510      	push	{r4, lr}
  406802:	460c      	mov	r4, r1
  406804:	2101      	movs	r1, #1
  406806:	f7ff ff3b 	bl	406680 <_Balloc>
  40680a:	2201      	movs	r2, #1
  40680c:	6144      	str	r4, [r0, #20]
  40680e:	6102      	str	r2, [r0, #16]
  406810:	bd10      	pop	{r4, pc}
  406812:	bf00      	nop

00406814 <__multiply>:
  406814:	e92d 4ff0 	stmdb	sp!, {r4, r5, r6, r7, r8, r9, sl, fp, lr}
  406818:	690f      	ldr	r7, [r1, #16]
  40681a:	6916      	ldr	r6, [r2, #16]
  40681c:	42b7      	cmp	r7, r6
  40681e:	b083      	sub	sp, #12
  406820:	460d      	mov	r5, r1
  406822:	4614      	mov	r4, r2
  406824:	f2c0 808d 	blt.w	406942 <__multiply+0x12e>
  406828:	4633      	mov	r3, r6
  40682a:	463e      	mov	r6, r7
  40682c:	461f      	mov	r7, r3
  40682e:	68ab      	ldr	r3, [r5, #8]
  406830:	6869      	ldr	r1, [r5, #4]
  406832:	eb06 0807 	add.w	r8, r6, r7
  406836:	4598      	cmp	r8, r3
  406838:	bfc8      	it	gt
  40683a:	3101      	addgt	r1, #1
  40683c:	f7ff ff20 	bl	406680 <_Balloc>
  406840:	f100 0c14 	add.w	ip, r0, #20
  406844:	eb0c 0988 	add.w	r9, ip, r8, lsl #2
  406848:	45cc      	cmp	ip, r9
  40684a:	9000      	str	r0, [sp, #0]
  40684c:	d205      	bcs.n	40685a <__multiply+0x46>
  40684e:	4663      	mov	r3, ip
  406850:	2100      	movs	r1, #0
  406852:	f843 1b04 	str.w	r1, [r3], #4
  406856:	4599      	cmp	r9, r3
  406858:	d8fb      	bhi.n	406852 <__multiply+0x3e>
  40685a:	f104 0214 	add.w	r2, r4, #20
  40685e:	eb02 0a87 	add.w	sl, r2, r7, lsl #2
  406862:	f105 0314 	add.w	r3, r5, #20
  406866:	4552      	cmp	r2, sl
  406868:	eb03 0e86 	add.w	lr, r3, r6, lsl #2
  40686c:	d254      	bcs.n	406918 <__multiply+0x104>
  40686e:	f8cd 9004 	str.w	r9, [sp, #4]
  406872:	4699      	mov	r9, r3
  406874:	f852 3b04 	ldr.w	r3, [r2], #4
  406878:	fa1f fb83 	uxth.w	fp, r3
  40687c:	f1bb 0f00 	cmp.w	fp, #0
  406880:	d020      	beq.n	4068c4 <__multiply+0xb0>
  406882:	2000      	movs	r0, #0
  406884:	464f      	mov	r7, r9
  406886:	4666      	mov	r6, ip
  406888:	4605      	mov	r5, r0
  40688a:	e000      	b.n	40688e <__multiply+0x7a>
  40688c:	461e      	mov	r6, r3
  40688e:	f857 4b04 	ldr.w	r4, [r7], #4
  406892:	6830      	ldr	r0, [r6, #0]
  406894:	b2a1      	uxth	r1, r4
  406896:	b283      	uxth	r3, r0
  406898:	fb0b 3101 	mla	r1, fp, r1, r3
  40689c:	0c24      	lsrs	r4, r4, #16
  40689e:	0c00      	lsrs	r0, r0, #16
  4068a0:	194b      	adds	r3, r1, r5
  4068a2:	fb0b 0004 	mla	r0, fp, r4, r0
  4068a6:	eb00 4013 	add.w	r0, r0, r3, lsr #16
  4068aa:	b299      	uxth	r1, r3
  4068ac:	4633      	mov	r3, r6
  4068ae:	ea41 4100 	orr.w	r1, r1, r0, lsl #16
  4068b2:	45be      	cmp	lr, r7
  4068b4:	ea4f 4510 	mov.w	r5, r0, lsr #16
  4068b8:	f843 1b04 	str.w	r1, [r3], #4
  4068bc:	d8e6      	bhi.n	40688c <__multiply+0x78>
  4068be:	6075      	str	r5, [r6, #4]
  4068c0:	f852 3c04 	ldr.w	r3, [r2, #-4]
  4068c4:	ea5f 4b13 	movs.w	fp, r3, lsr #16
  4068c8:	d020      	beq.n	40690c <__multiply+0xf8>
  4068ca:	f8dc 3000 	ldr.w	r3, [ip]
  4068ce:	4667      	mov	r7, ip
  4068d0:	4618      	mov	r0, r3
  4068d2:	464d      	mov	r5, r9
  4068d4:	2100      	movs	r1, #0
  4068d6:	e000      	b.n	4068da <__multiply+0xc6>
  4068d8:	4637      	mov	r7, r6
  4068da:	882c      	ldrh	r4, [r5, #0]
  4068dc:	0c00      	lsrs	r0, r0, #16
  4068de:	fb0b 0004 	mla	r0, fp, r4, r0
  4068e2:	4401      	add	r1, r0
  4068e4:	b29c      	uxth	r4, r3
  4068e6:	463e      	mov	r6, r7
  4068e8:	ea44 4301 	orr.w	r3, r4, r1, lsl #16
  4068ec:	f846 3b04 	str.w	r3, [r6], #4
  4068f0:	6878      	ldr	r0, [r7, #4]
  4068f2:	f855 4b04 	ldr.w	r4, [r5], #4
  4068f6:	b283      	uxth	r3, r0
  4068f8:	0c24      	lsrs	r4, r4, #16
  4068fa:	fb0b 3404 	mla	r4, fp, r4, r3
  4068fe:	eb04 4311 	add.w	r3, r4, r1, lsr #16
  406902:	45ae      	cmp	lr, r5
  406904:	ea4f 4113 	mov.w	r1, r3, lsr #16
  406908:	d8e6      	bhi.n	4068d8 <__multiply+0xc4>
  40690a:	607b      	str	r3, [r7, #4]
  40690c:	4592      	cmp	sl, r2
  40690e:	f10c 0c04 	add.w	ip, ip, #4
  406912:	d8af      	bhi.n	406874 <__multiply+0x60>
  406914:	f8dd 9004 	ldr.w	r9, [sp, #4]
  406918:	f1b8 0f00 	cmp.w	r8, #0
  40691c:	dd0b      	ble.n	406936 <__multiply+0x122>
  40691e:	f859 3c04 	ldr.w	r3, [r9, #-4]
  406922:	f1a9 0904 	sub.w	r9, r9, #4
  406926:	b11b      	cbz	r3, 406930 <__multiply+0x11c>
  406928:	e005      	b.n	406936 <__multiply+0x122>
  40692a:	f859 3d04 	ldr.w	r3, [r9, #-4]!
  40692e:	b913      	cbnz	r3, 406936 <__multiply+0x122>
  406930:	f1b8 0801 	subs.w	r8, r8, #1
  406934:	d1f9      	bne.n	40692a <__multiply+0x116>
  406936:	9800      	ldr	r0, [sp, #0]
  406938:	f8c0 8010 	str.w	r8, [r0, #16]
  40693c:	b003      	add	sp, #12
  40693e:	e8bd 8ff0 	ldmia.w	sp!, {r4, r5, r6, r7, r8, r9, sl, fp, pc}
  406942:	4615      	mov	r5, r2
  406944:	460c      	mov	r4, r1
  406946:	e772      	b.n	40682e <__multiply+0x1a>

00406948 <__pow5mult>:
  406948:	f012 0303 	ands.w	r3, r2, #3
  40694c:	e92d 41f0 	stmdb	sp!, {r4, r5, r6, r7, r8, lr}
  406950:	4614      	mov	r4, r2
  406952:	4607      	mov	r7, r0
  406954:	460e      	mov	r6, r1
  406956:	d12d      	bne.n	4069b4 <__pow5mult+0x6c>
  406958:	10a4      	asrs	r4, r4, #2
  40695a:	d01c      	beq.n	406996 <__pow5mult+0x4e>
  40695c:	6cbd      	ldr	r5, [r7, #72]	; 0x48
  40695e:	b395      	cbz	r5, 4069c6 <__pow5mult+0x7e>
  406960:	07e3      	lsls	r3, r4, #31
  406962:	f04f 0800 	mov.w	r8, #0
  406966:	d406      	bmi.n	406976 <__pow5mult+0x2e>
  406968:	1064      	asrs	r4, r4, #1
  40696a:	d014      	beq.n	406996 <__pow5mult+0x4e>
  40696c:	6828      	ldr	r0, [r5, #0]
  40696e:	b1a8      	cbz	r0, 40699c <__pow5mult+0x54>
  406970:	4605      	mov	r5, r0
  406972:	07e3      	lsls	r3, r4, #31
  406974:	d5f8      	bpl.n	406968 <__pow5mult+0x20>
  406976:	4638      	mov	r0, r7
  406978:	4631      	mov	r1, r6
  40697a:	462a      	mov	r2, r5
  40697c:	f7ff ff4a 	bl	406814 <__multiply>
  406980:	b1b6      	cbz	r6, 4069b0 <__pow5mult+0x68>
  406982:	6872      	ldr	r2, [r6, #4]
  406984:	6cfb      	ldr	r3, [r7, #76]	; 0x4c
  406986:	1064      	asrs	r4, r4, #1
  406988:	f853 1022 	ldr.w	r1, [r3, r2, lsl #2]
  40698c:	6031      	str	r1, [r6, #0]
  40698e:	f843 6022 	str.w	r6, [r3, r2, lsl #2]
  406992:	4606      	mov	r6, r0
  406994:	d1ea      	bne.n	40696c <__pow5mult+0x24>
  406996:	4630      	mov	r0, r6
  406998:	e8bd 81f0 	ldmia.w	sp!, {r4, r5, r6, r7, r8, pc}
  40699c:	4629      	mov	r1, r5
  40699e:	462a      	mov	r2, r5
  4069a0:	4638      	mov	r0, r7
  4069a2:	f7ff ff37 	bl	406814 <__multiply>
  4069a6:	6028      	str	r0, [r5, #0]
  4069a8:	f8c0 8000 	str.w	r8, [r0]
  4069ac:	4605      	mov	r5, r0
  4069ae:	e7e0      	b.n	406972 <__pow5mult+0x2a>
  4069b0:	4606      	mov	r6, r0
  4069b2:	e7d9      	b.n	406968 <__pow5mult+0x20>
  4069b4:	1e5a      	subs	r2, r3, #1
  4069b6:	4d0b      	ldr	r5, [pc, #44]	; (4069e4 <__pow5mult+0x9c>)
  4069b8:	2300      	movs	r3, #0
  4069ba:	f855 2022 	ldr.w	r2, [r5, r2, lsl #2]
  4069be:	f7ff fe8f 	bl	4066e0 <__multadd>
  4069c2:	4606      	mov	r6, r0
  4069c4:	e7c8      	b.n	406958 <__pow5mult+0x10>
  4069c6:	2101      	movs	r1, #1
  4069c8:	4638      	mov	r0, r7
  4069ca:	f7ff fe59 	bl	406680 <_Balloc>
  4069ce:	f240 2171 	movw	r1, #625	; 0x271
  4069d2:	2201      	movs	r2, #1
  4069d4:	2300      	movs	r3, #0
  4069d6:	6141      	str	r1, [r0, #20]
  4069d8:	6102      	str	r2, [r0, #16]
  4069da:	4605      	mov	r5, r0
  4069dc:	64b8      	str	r0, [r7, #72]	; 0x48
  4069de:	6003      	str	r3, [r0, #0]
  4069e0:	e7be      	b.n	406960 <__pow5mult+0x18>
  4069e2:	bf00      	nop
  4069e4:	0041fa38 	.word	0x0041fa38

004069e8 <__lshift>:
  4069e8:	e92d 47f0 	stmdb	sp!, {r4, r5, r6, r7, r8, r9, sl, lr}
  4069ec:	690f      	ldr	r7, [r1, #16]
  4069ee:	688b      	ldr	r3, [r1, #8]
  4069f0:	ea4f 1962 	mov.w	r9, r2, asr #5
  4069f4:	444f      	add	r7, r9
  4069f6:	1c7d      	adds	r5, r7, #1
  4069f8:	429d      	cmp	r5, r3
  4069fa:	460e      	mov	r6, r1
  4069fc:	4614      	mov	r4, r2
  4069fe:	6849      	ldr	r1, [r1, #4]
  406a00:	4680      	mov	r8, r0
  406a02:	dd04      	ble.n	406a0e <__lshift+0x26>
  406a04:	005b      	lsls	r3, r3, #1
  406a06:	429d      	cmp	r5, r3
  406a08:	f101 0101 	add.w	r1, r1, #1
  406a0c:	dcfa      	bgt.n	406a04 <__lshift+0x1c>
  406a0e:	4640      	mov	r0, r8
  406a10:	f7ff fe36 	bl	406680 <_Balloc>
  406a14:	f1b9 0f00 	cmp.w	r9, #0
  406a18:	f100 0114 	add.w	r1, r0, #20
  406a1c:	dd09      	ble.n	406a32 <__lshift+0x4a>
  406a1e:	2300      	movs	r3, #0
  406a20:	469e      	mov	lr, r3
  406a22:	460a      	mov	r2, r1
  406a24:	3301      	adds	r3, #1
  406a26:	454b      	cmp	r3, r9
  406a28:	f842 eb04 	str.w	lr, [r2], #4
  406a2c:	d1fa      	bne.n	406a24 <__lshift+0x3c>
  406a2e:	eb01 0183 	add.w	r1, r1, r3, lsl #2
  406a32:	6932      	ldr	r2, [r6, #16]
  406a34:	f106 0314 	add.w	r3, r6, #20
  406a38:	f014 0c1f 	ands.w	ip, r4, #31
  406a3c:	eb03 0e82 	add.w	lr, r3, r2, lsl #2
  406a40:	d01f      	beq.n	406a82 <__lshift+0x9a>
  406a42:	f1cc 0920 	rsb	r9, ip, #32
  406a46:	2200      	movs	r2, #0
  406a48:	681c      	ldr	r4, [r3, #0]
  406a4a:	fa04 f40c 	lsl.w	r4, r4, ip
  406a4e:	4314      	orrs	r4, r2
  406a50:	468a      	mov	sl, r1
  406a52:	f841 4b04 	str.w	r4, [r1], #4
  406a56:	f853 4b04 	ldr.w	r4, [r3], #4
  406a5a:	459e      	cmp	lr, r3
  406a5c:	fa24 f209 	lsr.w	r2, r4, r9
  406a60:	d8f2      	bhi.n	406a48 <__lshift+0x60>
  406a62:	f8ca 2004 	str.w	r2, [sl, #4]
  406a66:	b102      	cbz	r2, 406a6a <__lshift+0x82>
  406a68:	1cbd      	adds	r5, r7, #2
  406a6a:	f8d8 304c 	ldr.w	r3, [r8, #76]	; 0x4c
  406a6e:	6872      	ldr	r2, [r6, #4]
  406a70:	3d01      	subs	r5, #1
  406a72:	f853 1022 	ldr.w	r1, [r3, r2, lsl #2]
  406a76:	6105      	str	r5, [r0, #16]
  406a78:	6031      	str	r1, [r6, #0]
  406a7a:	f843 6022 	str.w	r6, [r3, r2, lsl #2]
  406a7e:	e8bd 87f0 	ldmia.w	sp!, {r4, r5, r6, r7, r8, r9, sl, pc}
  406a82:	3904      	subs	r1, #4
  406a84:	f853 2b04 	ldr.w	r2, [r3], #4
  406a88:	f841 2f04 	str.w	r2, [r1, #4]!
  406a8c:	459e      	cmp	lr, r3
  406a8e:	d8f9      	bhi.n	406a84 <__lshift+0x9c>
  406a90:	e7eb      	b.n	406a6a <__lshift+0x82>
  406a92:	bf00      	nop

00406a94 <__mcmp>:
  406a94:	6902      	ldr	r2, [r0, #16]
  406a96:	690b      	ldr	r3, [r1, #16]
  406a98:	1ad2      	subs	r2, r2, r3
  406a9a:	d113      	bne.n	406ac4 <__mcmp+0x30>
  406a9c:	009b      	lsls	r3, r3, #2
  406a9e:	3014      	adds	r0, #20
  406aa0:	3114      	adds	r1, #20
  406aa2:	4419      	add	r1, r3
  406aa4:	b410      	push	{r4}
  406aa6:	4403      	add	r3, r0
  406aa8:	e001      	b.n	406aae <__mcmp+0x1a>
  406aaa:	4298      	cmp	r0, r3
  406aac:	d20c      	bcs.n	406ac8 <__mcmp+0x34>
  406aae:	f853 4d04 	ldr.w	r4, [r3, #-4]!
  406ab2:	f851 2d04 	ldr.w	r2, [r1, #-4]!
  406ab6:	4294      	cmp	r4, r2
  406ab8:	d0f7      	beq.n	406aaa <__mcmp+0x16>
  406aba:	d309      	bcc.n	406ad0 <__mcmp+0x3c>
  406abc:	2001      	movs	r0, #1
  406abe:	f85d 4b04 	ldr.w	r4, [sp], #4
  406ac2:	4770      	bx	lr
  406ac4:	4610      	mov	r0, r2
  406ac6:	4770      	bx	lr
  406ac8:	2000      	movs	r0, #0
  406aca:	f85d 4b04 	ldr.w	r4, [sp], #4
  406ace:	4770      	bx	lr
  406ad0:	f04f 30ff 	mov.w	r0, #4294967295
  406ad4:	f85d 4b04 	ldr.w	r4, [sp], #4
  406ad8:	4770      	bx	lr
  406ada:	bf00      	nop

00406adc <__mdiff>:
  406adc:	e92d 41f0 	stmdb	sp!, {r4, r5, r6, r7, r8, lr}
  406ae0:	460e      	mov	r6, r1
  406ae2:	4605      	mov	r5, r0
  406ae4:	4611      	mov	r1, r2
  406ae6:	4630      	mov	r0, r6
  406ae8:	4614      	mov	r4, r2
  406aea:	f7ff ffd3 	bl	406a94 <__mcmp>
  406aee:	1e07      	subs	r7, r0, #0
  406af0:	d054      	beq.n	406b9c <__mdiff+0xc0>
  406af2:	db4d      	blt.n	406b90 <__mdiff+0xb4>
  406af4:	f04f 0800 	mov.w	r8, #0
  406af8:	6871      	ldr	r1, [r6, #4]
  406afa:	4628      	mov	r0, r5
  406afc:	f7ff fdc0 	bl	406680 <_Balloc>
  406b00:	6937      	ldr	r7, [r6, #16]
  406b02:	6923      	ldr	r3, [r4, #16]
  406b04:	f8c0 800c 	str.w	r8, [r0, #12]
  406b08:	3614      	adds	r6, #20
  406b0a:	f104 0214 	add.w	r2, r4, #20
  406b0e:	eb02 0c83 	add.w	ip, r2, r3, lsl #2
  406b12:	f100 0514 	add.w	r5, r0, #20
  406b16:	eb06 0e87 	add.w	lr, r6, r7, lsl #2
  406b1a:	2300      	movs	r3, #0
  406b1c:	f856 8b04 	ldr.w	r8, [r6], #4
  406b20:	f852 4b04 	ldr.w	r4, [r2], #4
  406b24:	fa13 f388 	uxtah	r3, r3, r8
  406b28:	b2a1      	uxth	r1, r4
  406b2a:	0c24      	lsrs	r4, r4, #16
  406b2c:	1a59      	subs	r1, r3, r1
  406b2e:	ebc4 4318 	rsb	r3, r4, r8, lsr #16
  406b32:	eb03 4321 	add.w	r3, r3, r1, asr #16
  406b36:	b289      	uxth	r1, r1
  406b38:	ea41 4103 	orr.w	r1, r1, r3, lsl #16
  406b3c:	4594      	cmp	ip, r2
  406b3e:	f845 1b04 	str.w	r1, [r5], #4
  406b42:	ea4f 4323 	mov.w	r3, r3, asr #16
  406b46:	4634      	mov	r4, r6
  406b48:	d8e8      	bhi.n	406b1c <__mdiff+0x40>
  406b4a:	45b6      	cmp	lr, r6
  406b4c:	46ac      	mov	ip, r5
  406b4e:	d915      	bls.n	406b7c <__mdiff+0xa0>
  406b50:	f854 2b04 	ldr.w	r2, [r4], #4
  406b54:	fa13 f182 	uxtah	r1, r3, r2
  406b58:	0c13      	lsrs	r3, r2, #16
  406b5a:	eb03 4321 	add.w	r3, r3, r1, asr #16
  406b5e:	b289      	uxth	r1, r1
  406b60:	ea41 4103 	orr.w	r1, r1, r3, lsl #16
  406b64:	45a6      	cmp	lr, r4
  406b66:	f845 1b04 	str.w	r1, [r5], #4
  406b6a:	ea4f 4323 	mov.w	r3, r3, asr #16
  406b6e:	d8ef      	bhi.n	406b50 <__mdiff+0x74>
  406b70:	43f6      	mvns	r6, r6
  406b72:	4476      	add	r6, lr
  406b74:	f026 0503 	bic.w	r5, r6, #3
  406b78:	3504      	adds	r5, #4
  406b7a:	4465      	add	r5, ip
  406b7c:	3d04      	subs	r5, #4
  406b7e:	b921      	cbnz	r1, 406b8a <__mdiff+0xae>
  406b80:	f855 3d04 	ldr.w	r3, [r5, #-4]!
  406b84:	3f01      	subs	r7, #1
  406b86:	2b00      	cmp	r3, #0
  406b88:	d0fa      	beq.n	406b80 <__mdiff+0xa4>
  406b8a:	6107      	str	r7, [r0, #16]
  406b8c:	e8bd 81f0 	ldmia.w	sp!, {r4, r5, r6, r7, r8, pc}
  406b90:	4633      	mov	r3, r6
  406b92:	f04f 0801 	mov.w	r8, #1
  406b96:	4626      	mov	r6, r4
  406b98:	461c      	mov	r4, r3
  406b9a:	e7ad      	b.n	406af8 <__mdiff+0x1c>
  406b9c:	4628      	mov	r0, r5
  406b9e:	4639      	mov	r1, r7
  406ba0:	f7ff fd6e 	bl	406680 <_Balloc>
  406ba4:	2301      	movs	r3, #1
  406ba6:	6147      	str	r7, [r0, #20]
  406ba8:	6103      	str	r3, [r0, #16]
  406baa:	e8bd 81f0 	ldmia.w	sp!, {r4, r5, r6, r7, r8, pc}
  406bae:	bf00      	nop

00406bb0 <__d2b>:
  406bb0:	e92d 41f0 	stmdb	sp!, {r4, r5, r6, r7, r8, lr}
  406bb4:	b082      	sub	sp, #8
  406bb6:	2101      	movs	r1, #1
  406bb8:	461c      	mov	r4, r3
  406bba:	f3c3 570a 	ubfx	r7, r3, #20, #11
  406bbe:	4615      	mov	r5, r2
  406bc0:	9e08      	ldr	r6, [sp, #32]
  406bc2:	f7ff fd5d 	bl	406680 <_Balloc>
  406bc6:	f3c4 0413 	ubfx	r4, r4, #0, #20
  406bca:	4680      	mov	r8, r0
  406bcc:	b10f      	cbz	r7, 406bd2 <__d2b+0x22>
  406bce:	f444 1480 	orr.w	r4, r4, #1048576	; 0x100000
  406bd2:	9401      	str	r4, [sp, #4]
  406bd4:	b31d      	cbz	r5, 406c1e <__d2b+0x6e>
  406bd6:	a802      	add	r0, sp, #8
  406bd8:	f840 5d08 	str.w	r5, [r0, #-8]!
  406bdc:	f7ff fde2 	bl	4067a4 <__lo0bits>
  406be0:	2800      	cmp	r0, #0
  406be2:	d134      	bne.n	406c4e <__d2b+0x9e>
  406be4:	e89d 000c 	ldmia.w	sp, {r2, r3}
  406be8:	f8c8 2014 	str.w	r2, [r8, #20]
  406bec:	2b00      	cmp	r3, #0
  406bee:	bf14      	ite	ne
  406bf0:	2402      	movne	r4, #2
  406bf2:	2401      	moveq	r4, #1
  406bf4:	f8c8 3018 	str.w	r3, [r8, #24]
  406bf8:	f8c8 4010 	str.w	r4, [r8, #16]
  406bfc:	b9df      	cbnz	r7, 406c36 <__d2b+0x86>
  406bfe:	eb08 0384 	add.w	r3, r8, r4, lsl #2
  406c02:	f2a0 4032 	subw	r0, r0, #1074	; 0x432
  406c06:	6030      	str	r0, [r6, #0]
  406c08:	6918      	ldr	r0, [r3, #16]
  406c0a:	f7ff fdab 	bl	406764 <__hi0bits>
  406c0e:	9b09      	ldr	r3, [sp, #36]	; 0x24
  406c10:	ebc0 1044 	rsb	r0, r0, r4, lsl #5
  406c14:	6018      	str	r0, [r3, #0]
  406c16:	4640      	mov	r0, r8
  406c18:	b002      	add	sp, #8
  406c1a:	e8bd 81f0 	ldmia.w	sp!, {r4, r5, r6, r7, r8, pc}
  406c1e:	a801      	add	r0, sp, #4
  406c20:	f7ff fdc0 	bl	4067a4 <__lo0bits>
  406c24:	2401      	movs	r4, #1
  406c26:	9b01      	ldr	r3, [sp, #4]
  406c28:	f8c8 3014 	str.w	r3, [r8, #20]
  406c2c:	3020      	adds	r0, #32
  406c2e:	f8c8 4010 	str.w	r4, [r8, #16]
  406c32:	2f00      	cmp	r7, #0
  406c34:	d0e3      	beq.n	406bfe <__d2b+0x4e>
  406c36:	9b09      	ldr	r3, [sp, #36]	; 0x24
  406c38:	f2a7 4733 	subw	r7, r7, #1075	; 0x433
  406c3c:	4407      	add	r7, r0
  406c3e:	f1c0 0035 	rsb	r0, r0, #53	; 0x35
  406c42:	6037      	str	r7, [r6, #0]
  406c44:	6018      	str	r0, [r3, #0]
  406c46:	4640      	mov	r0, r8
  406c48:	b002      	add	sp, #8
  406c4a:	e8bd 81f0 	ldmia.w	sp!, {r4, r5, r6, r7, r8, pc}
  406c4e:	e89d 000c 	ldmia.w	sp, {r2, r3}
  406c52:	f1c0 0120 	rsb	r1, r0, #32
  406c56:	fa03 f101 	lsl.w	r1, r3, r1
  406c5a:	430a      	orrs	r2, r1
  406c5c:	40c3      	lsrs	r3, r0
  406c5e:	9301      	str	r3, [sp, #4]
  406c60:	f8c8 2014 	str.w	r2, [r8, #20]
  406c64:	e7c2      	b.n	406bec <__d2b+0x3c>
  406c66:	bf00      	nop

00406c68 <_realloc_r>:
  406c68:	e92d 4ff0 	stmdb	sp!, {r4, r5, r6, r7, r8, r9, sl, fp, lr}
  406c6c:	4617      	mov	r7, r2
  406c6e:	b083      	sub	sp, #12
  406c70:	460e      	mov	r6, r1
  406c72:	2900      	cmp	r1, #0
  406c74:	f000 80e7 	beq.w	406e46 <_realloc_r+0x1de>
  406c78:	4681      	mov	r9, r0
  406c7a:	f107 050b 	add.w	r5, r7, #11
  406c7e:	f7ff fcfb 	bl	406678 <__malloc_lock>
  406c82:	f856 3c04 	ldr.w	r3, [r6, #-4]
  406c86:	2d16      	cmp	r5, #22
  406c88:	f023 0403 	bic.w	r4, r3, #3
  406c8c:	f1a6 0808 	sub.w	r8, r6, #8
  406c90:	d84c      	bhi.n	406d2c <_realloc_r+0xc4>
  406c92:	2210      	movs	r2, #16
  406c94:	4615      	mov	r5, r2
  406c96:	42af      	cmp	r7, r5
  406c98:	d84d      	bhi.n	406d36 <_realloc_r+0xce>
  406c9a:	4294      	cmp	r4, r2
  406c9c:	f280 8084 	bge.w	406da8 <_realloc_r+0x140>
  406ca0:	f8df b3ac 	ldr.w	fp, [pc, #940]	; 407050 <_realloc_r+0x3e8>
  406ca4:	f8db 0008 	ldr.w	r0, [fp, #8]
  406ca8:	eb08 0104 	add.w	r1, r8, r4
  406cac:	4288      	cmp	r0, r1
  406cae:	f000 80d6 	beq.w	406e5e <_realloc_r+0x1f6>
  406cb2:	6848      	ldr	r0, [r1, #4]
  406cb4:	f020 0e01 	bic.w	lr, r0, #1
  406cb8:	448e      	add	lr, r1
  406cba:	f8de e004 	ldr.w	lr, [lr, #4]
  406cbe:	f01e 0f01 	tst.w	lr, #1
  406cc2:	d13f      	bne.n	406d44 <_realloc_r+0xdc>
  406cc4:	f020 0003 	bic.w	r0, r0, #3
  406cc8:	4420      	add	r0, r4
  406cca:	4290      	cmp	r0, r2
  406ccc:	f280 80c1 	bge.w	406e52 <_realloc_r+0x1ea>
  406cd0:	07db      	lsls	r3, r3, #31
  406cd2:	f100 808f 	bmi.w	406df4 <_realloc_r+0x18c>
  406cd6:	f856 3c08 	ldr.w	r3, [r6, #-8]
  406cda:	ebc3 0a08 	rsb	sl, r3, r8
  406cde:	f8da 3004 	ldr.w	r3, [sl, #4]
  406ce2:	f023 0303 	bic.w	r3, r3, #3
  406ce6:	eb00 0e03 	add.w	lr, r0, r3
  406cea:	4596      	cmp	lr, r2
  406cec:	db34      	blt.n	406d58 <_realloc_r+0xf0>
  406cee:	68cb      	ldr	r3, [r1, #12]
  406cf0:	688a      	ldr	r2, [r1, #8]
  406cf2:	4657      	mov	r7, sl
  406cf4:	60d3      	str	r3, [r2, #12]
  406cf6:	609a      	str	r2, [r3, #8]
  406cf8:	f857 1f08 	ldr.w	r1, [r7, #8]!
  406cfc:	f8da 300c 	ldr.w	r3, [sl, #12]
  406d00:	60cb      	str	r3, [r1, #12]
  406d02:	1f22      	subs	r2, r4, #4
  406d04:	2a24      	cmp	r2, #36	; 0x24
  406d06:	6099      	str	r1, [r3, #8]
  406d08:	f200 8136 	bhi.w	406f78 <_realloc_r+0x310>
  406d0c:	2a13      	cmp	r2, #19
  406d0e:	f240 80fd 	bls.w	406f0c <_realloc_r+0x2a4>
  406d12:	6833      	ldr	r3, [r6, #0]
  406d14:	f8ca 3008 	str.w	r3, [sl, #8]
  406d18:	6873      	ldr	r3, [r6, #4]
  406d1a:	f8ca 300c 	str.w	r3, [sl, #12]
  406d1e:	2a1b      	cmp	r2, #27
  406d20:	f200 8140 	bhi.w	406fa4 <_realloc_r+0x33c>
  406d24:	3608      	adds	r6, #8
  406d26:	f10a 0310 	add.w	r3, sl, #16
  406d2a:	e0f0      	b.n	406f0e <_realloc_r+0x2a6>
  406d2c:	f025 0507 	bic.w	r5, r5, #7
  406d30:	2d00      	cmp	r5, #0
  406d32:	462a      	mov	r2, r5
  406d34:	daaf      	bge.n	406c96 <_realloc_r+0x2e>
  406d36:	230c      	movs	r3, #12
  406d38:	2000      	movs	r0, #0
  406d3a:	f8c9 3000 	str.w	r3, [r9]
  406d3e:	b003      	add	sp, #12
  406d40:	e8bd 8ff0 	ldmia.w	sp!, {r4, r5, r6, r7, r8, r9, sl, fp, pc}
  406d44:	07d9      	lsls	r1, r3, #31
  406d46:	d455      	bmi.n	406df4 <_realloc_r+0x18c>
  406d48:	f856 3c08 	ldr.w	r3, [r6, #-8]
  406d4c:	ebc3 0a08 	rsb	sl, r3, r8
  406d50:	f8da 3004 	ldr.w	r3, [sl, #4]
  406d54:	f023 0303 	bic.w	r3, r3, #3
  406d58:	4423      	add	r3, r4
  406d5a:	4293      	cmp	r3, r2
  406d5c:	db4a      	blt.n	406df4 <_realloc_r+0x18c>
  406d5e:	4657      	mov	r7, sl
  406d60:	f8da 100c 	ldr.w	r1, [sl, #12]
  406d64:	f857 0f08 	ldr.w	r0, [r7, #8]!
  406d68:	1f22      	subs	r2, r4, #4
  406d6a:	2a24      	cmp	r2, #36	; 0x24
  406d6c:	60c1      	str	r1, [r0, #12]
  406d6e:	6088      	str	r0, [r1, #8]
  406d70:	f200 810e 	bhi.w	406f90 <_realloc_r+0x328>
  406d74:	2a13      	cmp	r2, #19
  406d76:	f240 8109 	bls.w	406f8c <_realloc_r+0x324>
  406d7a:	6831      	ldr	r1, [r6, #0]
  406d7c:	f8ca 1008 	str.w	r1, [sl, #8]
  406d80:	6871      	ldr	r1, [r6, #4]
  406d82:	f8ca 100c 	str.w	r1, [sl, #12]
  406d86:	2a1b      	cmp	r2, #27
  406d88:	f200 8121 	bhi.w	406fce <_realloc_r+0x366>
  406d8c:	3608      	adds	r6, #8
  406d8e:	f10a 0210 	add.w	r2, sl, #16
  406d92:	6831      	ldr	r1, [r6, #0]
  406d94:	6011      	str	r1, [r2, #0]
  406d96:	6871      	ldr	r1, [r6, #4]
  406d98:	6051      	str	r1, [r2, #4]
  406d9a:	68b1      	ldr	r1, [r6, #8]
  406d9c:	6091      	str	r1, [r2, #8]
  406d9e:	461c      	mov	r4, r3
  406da0:	f8da 3004 	ldr.w	r3, [sl, #4]
  406da4:	463e      	mov	r6, r7
  406da6:	46d0      	mov	r8, sl
  406da8:	1b62      	subs	r2, r4, r5
  406daa:	2a0f      	cmp	r2, #15
  406dac:	f003 0301 	and.w	r3, r3, #1
  406db0:	d80e      	bhi.n	406dd0 <_realloc_r+0x168>
  406db2:	4323      	orrs	r3, r4
  406db4:	4444      	add	r4, r8
  406db6:	f8c8 3004 	str.w	r3, [r8, #4]
  406dba:	6863      	ldr	r3, [r4, #4]
  406dbc:	f043 0301 	orr.w	r3, r3, #1
  406dc0:	6063      	str	r3, [r4, #4]
  406dc2:	4648      	mov	r0, r9
  406dc4:	f7ff fc5a 	bl	40667c <__malloc_unlock>
  406dc8:	4630      	mov	r0, r6
  406dca:	b003      	add	sp, #12
  406dcc:	e8bd 8ff0 	ldmia.w	sp!, {r4, r5, r6, r7, r8, r9, sl, fp, pc}
  406dd0:	eb08 0105 	add.w	r1, r8, r5
  406dd4:	431d      	orrs	r5, r3
  406dd6:	f042 0301 	orr.w	r3, r2, #1
  406dda:	440a      	add	r2, r1
  406ddc:	f8c8 5004 	str.w	r5, [r8, #4]
  406de0:	604b      	str	r3, [r1, #4]
  406de2:	6853      	ldr	r3, [r2, #4]
  406de4:	f043 0301 	orr.w	r3, r3, #1
  406de8:	3108      	adds	r1, #8
  406dea:	6053      	str	r3, [r2, #4]
  406dec:	4648      	mov	r0, r9
  406dee:	f7fe ff8d 	bl	405d0c <_free_r>
  406df2:	e7e6      	b.n	406dc2 <_realloc_r+0x15a>
  406df4:	4639      	mov	r1, r7
  406df6:	4648      	mov	r0, r9
  406df8:	f7ff f864 	bl	405ec4 <_malloc_r>
  406dfc:	4607      	mov	r7, r0
  406dfe:	b1d8      	cbz	r0, 406e38 <_realloc_r+0x1d0>
  406e00:	f856 3c04 	ldr.w	r3, [r6, #-4]
  406e04:	f023 0201 	bic.w	r2, r3, #1
  406e08:	4442      	add	r2, r8
  406e0a:	f1a0 0108 	sub.w	r1, r0, #8
  406e0e:	4291      	cmp	r1, r2
  406e10:	f000 80ac 	beq.w	406f6c <_realloc_r+0x304>
  406e14:	1f22      	subs	r2, r4, #4
  406e16:	2a24      	cmp	r2, #36	; 0x24
  406e18:	f200 8099 	bhi.w	406f4e <_realloc_r+0x2e6>
  406e1c:	2a13      	cmp	r2, #19
  406e1e:	d86a      	bhi.n	406ef6 <_realloc_r+0x28e>
  406e20:	4603      	mov	r3, r0
  406e22:	4632      	mov	r2, r6
  406e24:	6811      	ldr	r1, [r2, #0]
  406e26:	6019      	str	r1, [r3, #0]
  406e28:	6851      	ldr	r1, [r2, #4]
  406e2a:	6059      	str	r1, [r3, #4]
  406e2c:	6892      	ldr	r2, [r2, #8]
  406e2e:	609a      	str	r2, [r3, #8]
  406e30:	4631      	mov	r1, r6
  406e32:	4648      	mov	r0, r9
  406e34:	f7fe ff6a 	bl	405d0c <_free_r>
  406e38:	4648      	mov	r0, r9
  406e3a:	f7ff fc1f 	bl	40667c <__malloc_unlock>
  406e3e:	4638      	mov	r0, r7
  406e40:	b003      	add	sp, #12
  406e42:	e8bd 8ff0 	ldmia.w	sp!, {r4, r5, r6, r7, r8, r9, sl, fp, pc}
  406e46:	4611      	mov	r1, r2
  406e48:	b003      	add	sp, #12
  406e4a:	e8bd 4ff0 	ldmia.w	sp!, {r4, r5, r6, r7, r8, r9, sl, fp, lr}
  406e4e:	f7ff b839 	b.w	405ec4 <_malloc_r>
  406e52:	68ca      	ldr	r2, [r1, #12]
  406e54:	6889      	ldr	r1, [r1, #8]
  406e56:	4604      	mov	r4, r0
  406e58:	60ca      	str	r2, [r1, #12]
  406e5a:	6091      	str	r1, [r2, #8]
  406e5c:	e7a4      	b.n	406da8 <_realloc_r+0x140>
  406e5e:	6841      	ldr	r1, [r0, #4]
  406e60:	f021 0103 	bic.w	r1, r1, #3
  406e64:	4421      	add	r1, r4
  406e66:	f105 0010 	add.w	r0, r5, #16
  406e6a:	4281      	cmp	r1, r0
  406e6c:	da5b      	bge.n	406f26 <_realloc_r+0x2be>
  406e6e:	07db      	lsls	r3, r3, #31
  406e70:	d4c0      	bmi.n	406df4 <_realloc_r+0x18c>
  406e72:	f856 3c08 	ldr.w	r3, [r6, #-8]
  406e76:	ebc3 0a08 	rsb	sl, r3, r8
  406e7a:	f8da 3004 	ldr.w	r3, [sl, #4]
  406e7e:	f023 0303 	bic.w	r3, r3, #3
  406e82:	eb01 0c03 	add.w	ip, r1, r3
  406e86:	4560      	cmp	r0, ip
  406e88:	f73f af66 	bgt.w	406d58 <_realloc_r+0xf0>
  406e8c:	4657      	mov	r7, sl
  406e8e:	f8da 300c 	ldr.w	r3, [sl, #12]
  406e92:	f857 1f08 	ldr.w	r1, [r7, #8]!
  406e96:	1f22      	subs	r2, r4, #4
  406e98:	2a24      	cmp	r2, #36	; 0x24
  406e9a:	60cb      	str	r3, [r1, #12]
  406e9c:	6099      	str	r1, [r3, #8]
  406e9e:	f200 80b8 	bhi.w	407012 <_realloc_r+0x3aa>
  406ea2:	2a13      	cmp	r2, #19
  406ea4:	f240 80a9 	bls.w	406ffa <_realloc_r+0x392>
  406ea8:	6833      	ldr	r3, [r6, #0]
  406eaa:	f8ca 3008 	str.w	r3, [sl, #8]
  406eae:	6873      	ldr	r3, [r6, #4]
  406eb0:	f8ca 300c 	str.w	r3, [sl, #12]
  406eb4:	2a1b      	cmp	r2, #27
  406eb6:	f200 80b5 	bhi.w	407024 <_realloc_r+0x3bc>
  406eba:	3608      	adds	r6, #8
  406ebc:	f10a 0310 	add.w	r3, sl, #16
  406ec0:	6832      	ldr	r2, [r6, #0]
  406ec2:	601a      	str	r2, [r3, #0]
  406ec4:	6872      	ldr	r2, [r6, #4]
  406ec6:	605a      	str	r2, [r3, #4]
  406ec8:	68b2      	ldr	r2, [r6, #8]
  406eca:	609a      	str	r2, [r3, #8]
  406ecc:	eb0a 0205 	add.w	r2, sl, r5
  406ed0:	ebc5 030c 	rsb	r3, r5, ip
  406ed4:	f043 0301 	orr.w	r3, r3, #1
  406ed8:	f8cb 2008 	str.w	r2, [fp, #8]
  406edc:	6053      	str	r3, [r2, #4]
  406ede:	f8da 3004 	ldr.w	r3, [sl, #4]
  406ee2:	f003 0301 	and.w	r3, r3, #1
  406ee6:	431d      	orrs	r5, r3
  406ee8:	4648      	mov	r0, r9
  406eea:	f8ca 5004 	str.w	r5, [sl, #4]
  406eee:	f7ff fbc5 	bl	40667c <__malloc_unlock>
  406ef2:	4638      	mov	r0, r7
  406ef4:	e769      	b.n	406dca <_realloc_r+0x162>
  406ef6:	6833      	ldr	r3, [r6, #0]
  406ef8:	6003      	str	r3, [r0, #0]
  406efa:	6873      	ldr	r3, [r6, #4]
  406efc:	6043      	str	r3, [r0, #4]
  406efe:	2a1b      	cmp	r2, #27
  406f00:	d829      	bhi.n	406f56 <_realloc_r+0x2ee>
  406f02:	f100 0308 	add.w	r3, r0, #8
  406f06:	f106 0208 	add.w	r2, r6, #8
  406f0a:	e78b      	b.n	406e24 <_realloc_r+0x1bc>
  406f0c:	463b      	mov	r3, r7
  406f0e:	6832      	ldr	r2, [r6, #0]
  406f10:	601a      	str	r2, [r3, #0]
  406f12:	6872      	ldr	r2, [r6, #4]
  406f14:	605a      	str	r2, [r3, #4]
  406f16:	68b2      	ldr	r2, [r6, #8]
  406f18:	609a      	str	r2, [r3, #8]
  406f1a:	463e      	mov	r6, r7
  406f1c:	4674      	mov	r4, lr
  406f1e:	f8da 3004 	ldr.w	r3, [sl, #4]
  406f22:	46d0      	mov	r8, sl
  406f24:	e740      	b.n	406da8 <_realloc_r+0x140>
  406f26:	eb08 0205 	add.w	r2, r8, r5
  406f2a:	1b4b      	subs	r3, r1, r5
  406f2c:	f043 0301 	orr.w	r3, r3, #1
  406f30:	f8cb 2008 	str.w	r2, [fp, #8]
  406f34:	6053      	str	r3, [r2, #4]
  406f36:	f856 3c04 	ldr.w	r3, [r6, #-4]
  406f3a:	f003 0301 	and.w	r3, r3, #1
  406f3e:	431d      	orrs	r5, r3
  406f40:	4648      	mov	r0, r9
  406f42:	f846 5c04 	str.w	r5, [r6, #-4]
  406f46:	f7ff fb99 	bl	40667c <__malloc_unlock>
  406f4a:	4630      	mov	r0, r6
  406f4c:	e73d      	b.n	406dca <_realloc_r+0x162>
  406f4e:	4631      	mov	r1, r6
  406f50:	f7ff fb2e 	bl	4065b0 <memmove>
  406f54:	e76c      	b.n	406e30 <_realloc_r+0x1c8>
  406f56:	68b3      	ldr	r3, [r6, #8]
  406f58:	6083      	str	r3, [r0, #8]
  406f5a:	68f3      	ldr	r3, [r6, #12]
  406f5c:	60c3      	str	r3, [r0, #12]
  406f5e:	2a24      	cmp	r2, #36	; 0x24
  406f60:	d02c      	beq.n	406fbc <_realloc_r+0x354>
  406f62:	f100 0310 	add.w	r3, r0, #16
  406f66:	f106 0210 	add.w	r2, r6, #16
  406f6a:	e75b      	b.n	406e24 <_realloc_r+0x1bc>
  406f6c:	f850 2c04 	ldr.w	r2, [r0, #-4]
  406f70:	f022 0203 	bic.w	r2, r2, #3
  406f74:	4414      	add	r4, r2
  406f76:	e717      	b.n	406da8 <_realloc_r+0x140>
  406f78:	4631      	mov	r1, r6
  406f7a:	4638      	mov	r0, r7
  406f7c:	4674      	mov	r4, lr
  406f7e:	463e      	mov	r6, r7
  406f80:	f7ff fb16 	bl	4065b0 <memmove>
  406f84:	46d0      	mov	r8, sl
  406f86:	f8da 3004 	ldr.w	r3, [sl, #4]
  406f8a:	e70d      	b.n	406da8 <_realloc_r+0x140>
  406f8c:	463a      	mov	r2, r7
  406f8e:	e700      	b.n	406d92 <_realloc_r+0x12a>
  406f90:	4631      	mov	r1, r6
  406f92:	4638      	mov	r0, r7
  406f94:	461c      	mov	r4, r3
  406f96:	463e      	mov	r6, r7
  406f98:	f7ff fb0a 	bl	4065b0 <memmove>
  406f9c:	46d0      	mov	r8, sl
  406f9e:	f8da 3004 	ldr.w	r3, [sl, #4]
  406fa2:	e701      	b.n	406da8 <_realloc_r+0x140>
  406fa4:	68b3      	ldr	r3, [r6, #8]
  406fa6:	f8ca 3010 	str.w	r3, [sl, #16]
  406faa:	68f3      	ldr	r3, [r6, #12]
  406fac:	f8ca 3014 	str.w	r3, [sl, #20]
  406fb0:	2a24      	cmp	r2, #36	; 0x24
  406fb2:	d018      	beq.n	406fe6 <_realloc_r+0x37e>
  406fb4:	3610      	adds	r6, #16
  406fb6:	f10a 0318 	add.w	r3, sl, #24
  406fba:	e7a8      	b.n	406f0e <_realloc_r+0x2a6>
  406fbc:	6933      	ldr	r3, [r6, #16]
  406fbe:	6103      	str	r3, [r0, #16]
  406fc0:	6973      	ldr	r3, [r6, #20]
  406fc2:	6143      	str	r3, [r0, #20]
  406fc4:	f106 0218 	add.w	r2, r6, #24
  406fc8:	f100 0318 	add.w	r3, r0, #24
  406fcc:	e72a      	b.n	406e24 <_realloc_r+0x1bc>
  406fce:	68b1      	ldr	r1, [r6, #8]
  406fd0:	f8ca 1010 	str.w	r1, [sl, #16]
  406fd4:	68f1      	ldr	r1, [r6, #12]
  406fd6:	f8ca 1014 	str.w	r1, [sl, #20]
  406fda:	2a24      	cmp	r2, #36	; 0x24
  406fdc:	d00f      	beq.n	406ffe <_realloc_r+0x396>
  406fde:	3610      	adds	r6, #16
  406fe0:	f10a 0218 	add.w	r2, sl, #24
  406fe4:	e6d5      	b.n	406d92 <_realloc_r+0x12a>
  406fe6:	6933      	ldr	r3, [r6, #16]
  406fe8:	f8ca 3018 	str.w	r3, [sl, #24]
  406fec:	6973      	ldr	r3, [r6, #20]
  406fee:	f8ca 301c 	str.w	r3, [sl, #28]
  406ff2:	3618      	adds	r6, #24
  406ff4:	f10a 0320 	add.w	r3, sl, #32
  406ff8:	e789      	b.n	406f0e <_realloc_r+0x2a6>
  406ffa:	463b      	mov	r3, r7
  406ffc:	e760      	b.n	406ec0 <_realloc_r+0x258>
  406ffe:	6932      	ldr	r2, [r6, #16]
  407000:	f8ca 2018 	str.w	r2, [sl, #24]
  407004:	6972      	ldr	r2, [r6, #20]
  407006:	f8ca 201c 	str.w	r2, [sl, #28]
  40700a:	3618      	adds	r6, #24
  40700c:	f10a 0220 	add.w	r2, sl, #32
  407010:	e6bf      	b.n	406d92 <_realloc_r+0x12a>
  407012:	4631      	mov	r1, r6
  407014:	4638      	mov	r0, r7
  407016:	f8cd c004 	str.w	ip, [sp, #4]
  40701a:	f7ff fac9 	bl	4065b0 <memmove>
  40701e:	f8dd c004 	ldr.w	ip, [sp, #4]
  407022:	e753      	b.n	406ecc <_realloc_r+0x264>
  407024:	68b3      	ldr	r3, [r6, #8]
  407026:	f8ca 3010 	str.w	r3, [sl, #16]
  40702a:	68f3      	ldr	r3, [r6, #12]
  40702c:	f8ca 3014 	str.w	r3, [sl, #20]
  407030:	2a24      	cmp	r2, #36	; 0x24
  407032:	d003      	beq.n	40703c <_realloc_r+0x3d4>
  407034:	3610      	adds	r6, #16
  407036:	f10a 0318 	add.w	r3, sl, #24
  40703a:	e741      	b.n	406ec0 <_realloc_r+0x258>
  40703c:	6933      	ldr	r3, [r6, #16]
  40703e:	f8ca 3018 	str.w	r3, [sl, #24]
  407042:	6973      	ldr	r3, [r6, #20]
  407044:	f8ca 301c 	str.w	r3, [sl, #28]
  407048:	3618      	adds	r6, #24
  40704a:	f10a 0320 	add.w	r3, sl, #32
  40704e:	e737      	b.n	406ec0 <_realloc_r+0x258>
  407050:	20000474 	.word	0x20000474

00407054 <__fpclassifyd>:
  407054:	b410      	push	{r4}
  407056:	f031 4400 	bics.w	r4, r1, #2147483648	; 0x80000000
  40705a:	d008      	beq.n	40706e <__fpclassifyd+0x1a>
  40705c:	4b11      	ldr	r3, [pc, #68]	; (4070a4 <__fpclassifyd+0x50>)
  40705e:	f5a1 1280 	sub.w	r2, r1, #1048576	; 0x100000
  407062:	429a      	cmp	r2, r3
  407064:	d808      	bhi.n	407078 <__fpclassifyd+0x24>
  407066:	2004      	movs	r0, #4
  407068:	f85d 4b04 	ldr.w	r4, [sp], #4
  40706c:	4770      	bx	lr
  40706e:	b918      	cbnz	r0, 407078 <__fpclassifyd+0x24>
  407070:	2002      	movs	r0, #2
  407072:	f85d 4b04 	ldr.w	r4, [sp], #4
  407076:	4770      	bx	lr
  407078:	f101 41ff 	add.w	r1, r1, #2139095040	; 0x7f800000
  40707c:	4b09      	ldr	r3, [pc, #36]	; (4070a4 <__fpclassifyd+0x50>)
  40707e:	f501 01e0 	add.w	r1, r1, #7340032	; 0x700000
  407082:	4299      	cmp	r1, r3
  407084:	d9ef      	bls.n	407066 <__fpclassifyd+0x12>
  407086:	f5b4 1f80 	cmp.w	r4, #1048576	; 0x100000
  40708a:	d201      	bcs.n	407090 <__fpclassifyd+0x3c>
  40708c:	2003      	movs	r0, #3
  40708e:	e7eb      	b.n	407068 <__fpclassifyd+0x14>
  407090:	4b05      	ldr	r3, [pc, #20]	; (4070a8 <__fpclassifyd+0x54>)
  407092:	429c      	cmp	r4, r3
  407094:	d001      	beq.n	40709a <__fpclassifyd+0x46>
  407096:	2000      	movs	r0, #0
  407098:	e7e6      	b.n	407068 <__fpclassifyd+0x14>
  40709a:	fab0 f080 	clz	r0, r0
  40709e:	0940      	lsrs	r0, r0, #5
  4070a0:	e7e2      	b.n	407068 <__fpclassifyd+0x14>
  4070a2:	bf00      	nop
  4070a4:	7fdfffff 	.word	0x7fdfffff
  4070a8:	7ff00000 	.word	0x7ff00000

004070ac <_sbrk_r>:
  4070ac:	b538      	push	{r3, r4, r5, lr}
  4070ae:	4c07      	ldr	r4, [pc, #28]	; (4070cc <_sbrk_r+0x20>)
  4070b0:	2300      	movs	r3, #0
  4070b2:	4605      	mov	r5, r0
  4070b4:	4608      	mov	r0, r1
  4070b6:	6023      	str	r3, [r4, #0]
  4070b8:	f7fa f9f0 	bl	40149c <_sbrk>
  4070bc:	1c43      	adds	r3, r0, #1
  4070be:	d000      	beq.n	4070c2 <_sbrk_r+0x16>
  4070c0:	bd38      	pop	{r3, r4, r5, pc}
  4070c2:	6823      	ldr	r3, [r4, #0]
  4070c4:	2b00      	cmp	r3, #0
  4070c6:	d0fb      	beq.n	4070c0 <_sbrk_r+0x14>
  4070c8:	602b      	str	r3, [r5, #0]
  4070ca:	bd38      	pop	{r3, r4, r5, pc}
  4070cc:	20000d38 	.word	0x20000d38

004070d0 <__ssprint_r>:
  4070d0:	e92d 4ff0 	stmdb	sp!, {r4, r5, r6, r7, r8, r9, sl, fp, lr}
  4070d4:	6893      	ldr	r3, [r2, #8]
  4070d6:	f8d2 8000 	ldr.w	r8, [r2]
  4070da:	b083      	sub	sp, #12
  4070dc:	4691      	mov	r9, r2
  4070de:	2b00      	cmp	r3, #0
  4070e0:	d072      	beq.n	4071c8 <__ssprint_r+0xf8>
  4070e2:	4607      	mov	r7, r0
  4070e4:	f04f 0b00 	mov.w	fp, #0
  4070e8:	6808      	ldr	r0, [r1, #0]
  4070ea:	688b      	ldr	r3, [r1, #8]
  4070ec:	460d      	mov	r5, r1
  4070ee:	465c      	mov	r4, fp
  4070f0:	2c00      	cmp	r4, #0
  4070f2:	d045      	beq.n	407180 <__ssprint_r+0xb0>
  4070f4:	429c      	cmp	r4, r3
  4070f6:	461e      	mov	r6, r3
  4070f8:	469a      	mov	sl, r3
  4070fa:	d348      	bcc.n	40718e <__ssprint_r+0xbe>
  4070fc:	89ab      	ldrh	r3, [r5, #12]
  4070fe:	f413 6f90 	tst.w	r3, #1152	; 0x480
  407102:	d02d      	beq.n	407160 <__ssprint_r+0x90>
  407104:	696e      	ldr	r6, [r5, #20]
  407106:	6929      	ldr	r1, [r5, #16]
  407108:	eb06 0646 	add.w	r6, r6, r6, lsl #1
  40710c:	ebc1 0a00 	rsb	sl, r1, r0
  407110:	eb06 76d6 	add.w	r6, r6, r6, lsr #31
  407114:	1c60      	adds	r0, r4, #1
  407116:	1076      	asrs	r6, r6, #1
  407118:	4450      	add	r0, sl
  40711a:	4286      	cmp	r6, r0
  40711c:	4632      	mov	r2, r6
  40711e:	bf3c      	itt	cc
  407120:	4606      	movcc	r6, r0
  407122:	4632      	movcc	r2, r6
  407124:	055b      	lsls	r3, r3, #21
  407126:	d535      	bpl.n	407194 <__ssprint_r+0xc4>
  407128:	4611      	mov	r1, r2
  40712a:	4638      	mov	r0, r7
  40712c:	f7fe feca 	bl	405ec4 <_malloc_r>
  407130:	2800      	cmp	r0, #0
  407132:	d039      	beq.n	4071a8 <__ssprint_r+0xd8>
  407134:	4652      	mov	r2, sl
  407136:	6929      	ldr	r1, [r5, #16]
  407138:	9001      	str	r0, [sp, #4]
  40713a:	f7ff f99f 	bl	40647c <memcpy>
  40713e:	89aa      	ldrh	r2, [r5, #12]
  407140:	9b01      	ldr	r3, [sp, #4]
  407142:	f422 6290 	bic.w	r2, r2, #1152	; 0x480
  407146:	f042 0280 	orr.w	r2, r2, #128	; 0x80
  40714a:	81aa      	strh	r2, [r5, #12]
  40714c:	ebca 0206 	rsb	r2, sl, r6
  407150:	eb03 000a 	add.w	r0, r3, sl
  407154:	616e      	str	r6, [r5, #20]
  407156:	612b      	str	r3, [r5, #16]
  407158:	6028      	str	r0, [r5, #0]
  40715a:	60aa      	str	r2, [r5, #8]
  40715c:	4626      	mov	r6, r4
  40715e:	46a2      	mov	sl, r4
  407160:	4652      	mov	r2, sl
  407162:	4659      	mov	r1, fp
  407164:	f7ff fa24 	bl	4065b0 <memmove>
  407168:	f8d9 2008 	ldr.w	r2, [r9, #8]
  40716c:	68ab      	ldr	r3, [r5, #8]
  40716e:	6828      	ldr	r0, [r5, #0]
  407170:	1b9b      	subs	r3, r3, r6
  407172:	4450      	add	r0, sl
  407174:	1b14      	subs	r4, r2, r4
  407176:	60ab      	str	r3, [r5, #8]
  407178:	6028      	str	r0, [r5, #0]
  40717a:	f8c9 4008 	str.w	r4, [r9, #8]
  40717e:	b31c      	cbz	r4, 4071c8 <__ssprint_r+0xf8>
  407180:	f8d8 b000 	ldr.w	fp, [r8]
  407184:	f8d8 4004 	ldr.w	r4, [r8, #4]
  407188:	f108 0808 	add.w	r8, r8, #8
  40718c:	e7b0      	b.n	4070f0 <__ssprint_r+0x20>
  40718e:	4626      	mov	r6, r4
  407190:	46a2      	mov	sl, r4
  407192:	e7e5      	b.n	407160 <__ssprint_r+0x90>
  407194:	4638      	mov	r0, r7
  407196:	f7ff fd67 	bl	406c68 <_realloc_r>
  40719a:	4603      	mov	r3, r0
  40719c:	2800      	cmp	r0, #0
  40719e:	d1d5      	bne.n	40714c <__ssprint_r+0x7c>
  4071a0:	4638      	mov	r0, r7
  4071a2:	6929      	ldr	r1, [r5, #16]
  4071a4:	f7fe fdb2 	bl	405d0c <_free_r>
  4071a8:	230c      	movs	r3, #12
  4071aa:	603b      	str	r3, [r7, #0]
  4071ac:	89ab      	ldrh	r3, [r5, #12]
  4071ae:	2200      	movs	r2, #0
  4071b0:	f043 0340 	orr.w	r3, r3, #64	; 0x40
  4071b4:	f04f 30ff 	mov.w	r0, #4294967295
  4071b8:	81ab      	strh	r3, [r5, #12]
  4071ba:	f8c9 2008 	str.w	r2, [r9, #8]
  4071be:	f8c9 2004 	str.w	r2, [r9, #4]
  4071c2:	b003      	add	sp, #12
  4071c4:	e8bd 8ff0 	ldmia.w	sp!, {r4, r5, r6, r7, r8, r9, sl, fp, pc}
  4071c8:	2000      	movs	r0, #0
  4071ca:	f8c9 0004 	str.w	r0, [r9, #4]
  4071ce:	b003      	add	sp, #12
  4071d0:	e8bd 8ff0 	ldmia.w	sp!, {r4, r5, r6, r7, r8, r9, sl, fp, pc}

004071d4 <__register_exitproc>:
  4071d4:	e92d 47f0 	stmdb	sp!, {r4, r5, r6, r7, r8, r9, sl, lr}
  4071d8:	4c25      	ldr	r4, [pc, #148]	; (407270 <__register_exitproc+0x9c>)
  4071da:	6825      	ldr	r5, [r4, #0]
  4071dc:	f8d5 4148 	ldr.w	r4, [r5, #328]	; 0x148
  4071e0:	4606      	mov	r6, r0
  4071e2:	4688      	mov	r8, r1
  4071e4:	4692      	mov	sl, r2
  4071e6:	4699      	mov	r9, r3
  4071e8:	b3cc      	cbz	r4, 40725e <__register_exitproc+0x8a>
  4071ea:	6860      	ldr	r0, [r4, #4]
  4071ec:	281f      	cmp	r0, #31
  4071ee:	dc18      	bgt.n	407222 <__register_exitproc+0x4e>
  4071f0:	1c43      	adds	r3, r0, #1
  4071f2:	b17e      	cbz	r6, 407214 <__register_exitproc+0x40>
  4071f4:	eb04 0580 	add.w	r5, r4, r0, lsl #2
  4071f8:	2101      	movs	r1, #1
  4071fa:	f8c5 a088 	str.w	sl, [r5, #136]	; 0x88
  4071fe:	f8d4 7188 	ldr.w	r7, [r4, #392]	; 0x188
  407202:	fa01 f200 	lsl.w	r2, r1, r0
  407206:	4317      	orrs	r7, r2
  407208:	2e02      	cmp	r6, #2
  40720a:	f8c4 7188 	str.w	r7, [r4, #392]	; 0x188
  40720e:	f8c5 9108 	str.w	r9, [r5, #264]	; 0x108
  407212:	d01e      	beq.n	407252 <__register_exitproc+0x7e>
  407214:	3002      	adds	r0, #2
  407216:	6063      	str	r3, [r4, #4]
  407218:	f844 8020 	str.w	r8, [r4, r0, lsl #2]
  40721c:	2000      	movs	r0, #0
  40721e:	e8bd 87f0 	ldmia.w	sp!, {r4, r5, r6, r7, r8, r9, sl, pc}
  407222:	4b14      	ldr	r3, [pc, #80]	; (407274 <__register_exitproc+0xa0>)
  407224:	b303      	cbz	r3, 407268 <__register_exitproc+0x94>
  407226:	f44f 70c8 	mov.w	r0, #400	; 0x190
  40722a:	f3af 8000 	nop.w
  40722e:	4604      	mov	r4, r0
  407230:	b1d0      	cbz	r0, 407268 <__register_exitproc+0x94>
  407232:	f8d5 3148 	ldr.w	r3, [r5, #328]	; 0x148
  407236:	2700      	movs	r7, #0
  407238:	e880 0088 	stmia.w	r0, {r3, r7}
  40723c:	f8c5 4148 	str.w	r4, [r5, #328]	; 0x148
  407240:	4638      	mov	r0, r7
  407242:	2301      	movs	r3, #1
  407244:	f8c4 7188 	str.w	r7, [r4, #392]	; 0x188
  407248:	f8c4 718c 	str.w	r7, [r4, #396]	; 0x18c
  40724c:	2e00      	cmp	r6, #0
  40724e:	d0e1      	beq.n	407214 <__register_exitproc+0x40>
  407250:	e7d0      	b.n	4071f4 <__register_exitproc+0x20>
  407252:	f8d4 118c 	ldr.w	r1, [r4, #396]	; 0x18c
  407256:	430a      	orrs	r2, r1
  407258:	f8c4 218c 	str.w	r2, [r4, #396]	; 0x18c
  40725c:	e7da      	b.n	407214 <__register_exitproc+0x40>
  40725e:	f505 74a6 	add.w	r4, r5, #332	; 0x14c
  407262:	f8c5 4148 	str.w	r4, [r5, #328]	; 0x148
  407266:	e7c0      	b.n	4071ea <__register_exitproc+0x16>
  407268:	f04f 30ff 	mov.w	r0, #4294967295
  40726c:	e8bd 87f0 	ldmia.w	sp!, {r4, r5, r6, r7, r8, r9, sl, pc}
  407270:	0041f8ec 	.word	0x0041f8ec
  407274:	00000000 	.word	0x00000000

00407278 <_calloc_r>:
  407278:	b510      	push	{r4, lr}
  40727a:	fb02 f101 	mul.w	r1, r2, r1
  40727e:	f7fe fe21 	bl	405ec4 <_malloc_r>
  407282:	4604      	mov	r4, r0
  407284:	b168      	cbz	r0, 4072a2 <_calloc_r+0x2a>
  407286:	f850 2c04 	ldr.w	r2, [r0, #-4]
  40728a:	f022 0203 	bic.w	r2, r2, #3
  40728e:	3a04      	subs	r2, #4
  407290:	2a24      	cmp	r2, #36	; 0x24
  407292:	d818      	bhi.n	4072c6 <_calloc_r+0x4e>
  407294:	2a13      	cmp	r2, #19
  407296:	d806      	bhi.n	4072a6 <_calloc_r+0x2e>
  407298:	4603      	mov	r3, r0
  40729a:	2200      	movs	r2, #0
  40729c:	601a      	str	r2, [r3, #0]
  40729e:	605a      	str	r2, [r3, #4]
  4072a0:	609a      	str	r2, [r3, #8]
  4072a2:	4620      	mov	r0, r4
  4072a4:	bd10      	pop	{r4, pc}
  4072a6:	2300      	movs	r3, #0
  4072a8:	2a1b      	cmp	r2, #27
  4072aa:	6003      	str	r3, [r0, #0]
  4072ac:	6043      	str	r3, [r0, #4]
  4072ae:	d90f      	bls.n	4072d0 <_calloc_r+0x58>
  4072b0:	2a24      	cmp	r2, #36	; 0x24
  4072b2:	6083      	str	r3, [r0, #8]
  4072b4:	60c3      	str	r3, [r0, #12]
  4072b6:	bf05      	ittet	eq
  4072b8:	6103      	streq	r3, [r0, #16]
  4072ba:	6143      	streq	r3, [r0, #20]
  4072bc:	f100 0310 	addne.w	r3, r0, #16
  4072c0:	f100 0318 	addeq.w	r3, r0, #24
  4072c4:	e7e9      	b.n	40729a <_calloc_r+0x22>
  4072c6:	2100      	movs	r1, #0
  4072c8:	f7fc f9b6 	bl	403638 <memset>
  4072cc:	4620      	mov	r0, r4
  4072ce:	bd10      	pop	{r4, pc}
  4072d0:	f100 0308 	add.w	r3, r0, #8
  4072d4:	e7e1      	b.n	40729a <_calloc_r+0x22>
  4072d6:	bf00      	nop

004072d8 <__aeabi_uldivmod>:
  4072d8:	b953      	cbnz	r3, 4072f0 <__aeabi_uldivmod+0x18>
  4072da:	b94a      	cbnz	r2, 4072f0 <__aeabi_uldivmod+0x18>
  4072dc:	2900      	cmp	r1, #0
  4072de:	bf08      	it	eq
  4072e0:	2800      	cmpeq	r0, #0
  4072e2:	bf1c      	itt	ne
  4072e4:	f04f 31ff 	movne.w	r1, #4294967295
  4072e8:	f04f 30ff 	movne.w	r0, #4294967295
  4072ec:	f000 b83c 	b.w	407368 <__aeabi_idiv0>
  4072f0:	b082      	sub	sp, #8
  4072f2:	46ec      	mov	ip, sp
  4072f4:	e92d 5000 	stmdb	sp!, {ip, lr}
  4072f8:	f000 f81e 	bl	407338 <__gnu_uldivmod_helper>
  4072fc:	f8dd e004 	ldr.w	lr, [sp, #4]
  407300:	b002      	add	sp, #8
  407302:	bc0c      	pop	{r2, r3}
  407304:	4770      	bx	lr
  407306:	bf00      	nop

00407308 <__gnu_ldivmod_helper>:
  407308:	e92d 41f0 	stmdb	sp!, {r4, r5, r6, r7, r8, lr}
  40730c:	9c06      	ldr	r4, [sp, #24]
  40730e:	4615      	mov	r5, r2
  407310:	4606      	mov	r6, r0
  407312:	460f      	mov	r7, r1
  407314:	4698      	mov	r8, r3
  407316:	f000 f829 	bl	40736c <__divdi3>
  40731a:	fb05 f301 	mul.w	r3, r5, r1
  40731e:	fb00 3808 	mla	r8, r0, r8, r3
  407322:	fba5 2300 	umull	r2, r3, r5, r0
  407326:	1ab2      	subs	r2, r6, r2
  407328:	4443      	add	r3, r8
  40732a:	eb67 0303 	sbc.w	r3, r7, r3
  40732e:	e9c4 2300 	strd	r2, r3, [r4]
  407332:	e8bd 81f0 	ldmia.w	sp!, {r4, r5, r6, r7, r8, pc}
  407336:	bf00      	nop

00407338 <__gnu_uldivmod_helper>:
  407338:	e92d 41f0 	stmdb	sp!, {r4, r5, r6, r7, r8, lr}
  40733c:	9c06      	ldr	r4, [sp, #24]
  40733e:	4690      	mov	r8, r2
  407340:	4606      	mov	r6, r0
  407342:	460f      	mov	r7, r1
  407344:	461d      	mov	r5, r3
  407346:	f000 f95f 	bl	407608 <__udivdi3>
  40734a:	fb00 f505 	mul.w	r5, r0, r5
  40734e:	fba0 2308 	umull	r2, r3, r0, r8
  407352:	fb08 5501 	mla	r5, r8, r1, r5
  407356:	1ab2      	subs	r2, r6, r2
  407358:	442b      	add	r3, r5
  40735a:	eb67 0303 	sbc.w	r3, r7, r3
  40735e:	e9c4 2300 	strd	r2, r3, [r4]
  407362:	e8bd 81f0 	ldmia.w	sp!, {r4, r5, r6, r7, r8, pc}
  407366:	bf00      	nop

00407368 <__aeabi_idiv0>:
  407368:	4770      	bx	lr
  40736a:	bf00      	nop

0040736c <__divdi3>:
  40736c:	2900      	cmp	r1, #0
  40736e:	e92d 43f0 	stmdb	sp!, {r4, r5, r6, r7, r8, r9, lr}
  407372:	f2c0 80a6 	blt.w	4074c2 <__divdi3+0x156>
  407376:	2600      	movs	r6, #0
  407378:	2b00      	cmp	r3, #0
  40737a:	f2c0 809c 	blt.w	4074b6 <__divdi3+0x14a>
  40737e:	4688      	mov	r8, r1
  407380:	4694      	mov	ip, r2
  407382:	469e      	mov	lr, r3
  407384:	4615      	mov	r5, r2
  407386:	4604      	mov	r4, r0
  407388:	460f      	mov	r7, r1
  40738a:	2b00      	cmp	r3, #0
  40738c:	d13d      	bne.n	40740a <__divdi3+0x9e>
  40738e:	428a      	cmp	r2, r1
  407390:	d959      	bls.n	407446 <__divdi3+0xda>
  407392:	fab2 f382 	clz	r3, r2
  407396:	b13b      	cbz	r3, 4073a8 <__divdi3+0x3c>
  407398:	f1c3 0220 	rsb	r2, r3, #32
  40739c:	409f      	lsls	r7, r3
  40739e:	fa20 f202 	lsr.w	r2, r0, r2
  4073a2:	409d      	lsls	r5, r3
  4073a4:	4317      	orrs	r7, r2
  4073a6:	409c      	lsls	r4, r3
  4073a8:	0c29      	lsrs	r1, r5, #16
  4073aa:	0c22      	lsrs	r2, r4, #16
  4073ac:	fbb7 fef1 	udiv	lr, r7, r1
  4073b0:	b2a8      	uxth	r0, r5
  4073b2:	fb01 771e 	mls	r7, r1, lr, r7
  4073b6:	ea42 4707 	orr.w	r7, r2, r7, lsl #16
  4073ba:	fb00 f30e 	mul.w	r3, r0, lr
  4073be:	42bb      	cmp	r3, r7
  4073c0:	d90a      	bls.n	4073d8 <__divdi3+0x6c>
  4073c2:	197f      	adds	r7, r7, r5
  4073c4:	f10e 32ff 	add.w	r2, lr, #4294967295
  4073c8:	f080 8105 	bcs.w	4075d6 <__divdi3+0x26a>
  4073cc:	42bb      	cmp	r3, r7
  4073ce:	f240 8102 	bls.w	4075d6 <__divdi3+0x26a>
  4073d2:	f1ae 0e02 	sub.w	lr, lr, #2
  4073d6:	442f      	add	r7, r5
  4073d8:	1aff      	subs	r7, r7, r3
  4073da:	b2a4      	uxth	r4, r4
  4073dc:	fbb7 f3f1 	udiv	r3, r7, r1
  4073e0:	fb01 7713 	mls	r7, r1, r3, r7
  4073e4:	ea44 4707 	orr.w	r7, r4, r7, lsl #16
  4073e8:	fb00 f003 	mul.w	r0, r0, r3
  4073ec:	42b8      	cmp	r0, r7
  4073ee:	d908      	bls.n	407402 <__divdi3+0x96>
  4073f0:	197f      	adds	r7, r7, r5
  4073f2:	f103 32ff 	add.w	r2, r3, #4294967295
  4073f6:	f080 80f0 	bcs.w	4075da <__divdi3+0x26e>
  4073fa:	42b8      	cmp	r0, r7
  4073fc:	f240 80ed 	bls.w	4075da <__divdi3+0x26e>
  407400:	3b02      	subs	r3, #2
  407402:	ea43 430e 	orr.w	r3, r3, lr, lsl #16
  407406:	2200      	movs	r2, #0
  407408:	e003      	b.n	407412 <__divdi3+0xa6>
  40740a:	428b      	cmp	r3, r1
  40740c:	d90f      	bls.n	40742e <__divdi3+0xc2>
  40740e:	2200      	movs	r2, #0
  407410:	4613      	mov	r3, r2
  407412:	1c34      	adds	r4, r6, #0
  407414:	bf18      	it	ne
  407416:	2401      	movne	r4, #1
  407418:	4260      	negs	r0, r4
  40741a:	f04f 0500 	mov.w	r5, #0
  40741e:	eb65 0145 	sbc.w	r1, r5, r5, lsl #1
  407422:	4058      	eors	r0, r3
  407424:	4051      	eors	r1, r2
  407426:	1900      	adds	r0, r0, r4
  407428:	4169      	adcs	r1, r5
  40742a:	e8bd 83f0 	ldmia.w	sp!, {r4, r5, r6, r7, r8, r9, pc}
  40742e:	fab3 f283 	clz	r2, r3
  407432:	2a00      	cmp	r2, #0
  407434:	f040 8086 	bne.w	407544 <__divdi3+0x1d8>
  407438:	428b      	cmp	r3, r1
  40743a:	d302      	bcc.n	407442 <__divdi3+0xd6>
  40743c:	4584      	cmp	ip, r0
  40743e:	f200 80db 	bhi.w	4075f8 <__divdi3+0x28c>
  407442:	2301      	movs	r3, #1
  407444:	e7e5      	b.n	407412 <__divdi3+0xa6>
  407446:	b912      	cbnz	r2, 40744e <__divdi3+0xe2>
  407448:	2301      	movs	r3, #1
  40744a:	fbb3 f5f2 	udiv	r5, r3, r2
  40744e:	fab5 f085 	clz	r0, r5
  407452:	2800      	cmp	r0, #0
  407454:	d13b      	bne.n	4074ce <__divdi3+0x162>
  407456:	1b78      	subs	r0, r7, r5
  407458:	ea4f 4e15 	mov.w	lr, r5, lsr #16
  40745c:	fa1f fc85 	uxth.w	ip, r5
  407460:	2201      	movs	r2, #1
  407462:	fbb0 f8fe 	udiv	r8, r0, lr
  407466:	0c21      	lsrs	r1, r4, #16
  407468:	fb0e 0718 	mls	r7, lr, r8, r0
  40746c:	ea41 4707 	orr.w	r7, r1, r7, lsl #16
  407470:	fb0c f308 	mul.w	r3, ip, r8
  407474:	42bb      	cmp	r3, r7
  407476:	d907      	bls.n	407488 <__divdi3+0x11c>
  407478:	197f      	adds	r7, r7, r5
  40747a:	f108 31ff 	add.w	r1, r8, #4294967295
  40747e:	d202      	bcs.n	407486 <__divdi3+0x11a>
  407480:	42bb      	cmp	r3, r7
  407482:	f200 80bd 	bhi.w	407600 <__divdi3+0x294>
  407486:	4688      	mov	r8, r1
  407488:	1aff      	subs	r7, r7, r3
  40748a:	b2a4      	uxth	r4, r4
  40748c:	fbb7 f3fe 	udiv	r3, r7, lr
  407490:	fb0e 7713 	mls	r7, lr, r3, r7
  407494:	ea44 4707 	orr.w	r7, r4, r7, lsl #16
  407498:	fb0c fc03 	mul.w	ip, ip, r3
  40749c:	45bc      	cmp	ip, r7
  40749e:	d907      	bls.n	4074b0 <__divdi3+0x144>
  4074a0:	197f      	adds	r7, r7, r5
  4074a2:	f103 31ff 	add.w	r1, r3, #4294967295
  4074a6:	d202      	bcs.n	4074ae <__divdi3+0x142>
  4074a8:	45bc      	cmp	ip, r7
  4074aa:	f200 80a7 	bhi.w	4075fc <__divdi3+0x290>
  4074ae:	460b      	mov	r3, r1
  4074b0:	ea43 4308 	orr.w	r3, r3, r8, lsl #16
  4074b4:	e7ad      	b.n	407412 <__divdi3+0xa6>
  4074b6:	4252      	negs	r2, r2
  4074b8:	ea6f 0606 	mvn.w	r6, r6
  4074bc:	eb63 0343 	sbc.w	r3, r3, r3, lsl #1
  4074c0:	e75d      	b.n	40737e <__divdi3+0x12>
  4074c2:	4240      	negs	r0, r0
  4074c4:	eb61 0141 	sbc.w	r1, r1, r1, lsl #1
  4074c8:	f04f 36ff 	mov.w	r6, #4294967295
  4074cc:	e754      	b.n	407378 <__divdi3+0xc>
  4074ce:	f1c0 0220 	rsb	r2, r0, #32
  4074d2:	fa24 f102 	lsr.w	r1, r4, r2
  4074d6:	fa07 f300 	lsl.w	r3, r7, r0
  4074da:	4085      	lsls	r5, r0
  4074dc:	ea4f 4e15 	mov.w	lr, r5, lsr #16
  4074e0:	40d7      	lsrs	r7, r2
  4074e2:	4319      	orrs	r1, r3
  4074e4:	fbb7 f2fe 	udiv	r2, r7, lr
  4074e8:	0c0b      	lsrs	r3, r1, #16
  4074ea:	fb0e 7712 	mls	r7, lr, r2, r7
  4074ee:	fa1f fc85 	uxth.w	ip, r5
  4074f2:	ea43 4307 	orr.w	r3, r3, r7, lsl #16
  4074f6:	fb0c f702 	mul.w	r7, ip, r2
  4074fa:	429f      	cmp	r7, r3
  4074fc:	fa04 f400 	lsl.w	r4, r4, r0
  407500:	d907      	bls.n	407512 <__divdi3+0x1a6>
  407502:	195b      	adds	r3, r3, r5
  407504:	f102 30ff 	add.w	r0, r2, #4294967295
  407508:	d274      	bcs.n	4075f4 <__divdi3+0x288>
  40750a:	429f      	cmp	r7, r3
  40750c:	d972      	bls.n	4075f4 <__divdi3+0x288>
  40750e:	3a02      	subs	r2, #2
  407510:	442b      	add	r3, r5
  407512:	1bdf      	subs	r7, r3, r7
  407514:	b289      	uxth	r1, r1
  407516:	fbb7 f8fe 	udiv	r8, r7, lr
  40751a:	fb0e 7318 	mls	r3, lr, r8, r7
  40751e:	ea41 4303 	orr.w	r3, r1, r3, lsl #16
  407522:	fb0c f708 	mul.w	r7, ip, r8
  407526:	429f      	cmp	r7, r3
  407528:	d908      	bls.n	40753c <__divdi3+0x1d0>
  40752a:	195b      	adds	r3, r3, r5
  40752c:	f108 31ff 	add.w	r1, r8, #4294967295
  407530:	d25c      	bcs.n	4075ec <__divdi3+0x280>
  407532:	429f      	cmp	r7, r3
  407534:	d95a      	bls.n	4075ec <__divdi3+0x280>
  407536:	f1a8 0802 	sub.w	r8, r8, #2
  40753a:	442b      	add	r3, r5
  40753c:	1bd8      	subs	r0, r3, r7
  40753e:	ea48 4202 	orr.w	r2, r8, r2, lsl #16
  407542:	e78e      	b.n	407462 <__divdi3+0xf6>
  407544:	f1c2 0320 	rsb	r3, r2, #32
  407548:	fa2c f103 	lsr.w	r1, ip, r3
  40754c:	fa0e fe02 	lsl.w	lr, lr, r2
  407550:	fa20 f703 	lsr.w	r7, r0, r3
  407554:	ea41 0e0e 	orr.w	lr, r1, lr
  407558:	fa08 f002 	lsl.w	r0, r8, r2
  40755c:	fa28 f103 	lsr.w	r1, r8, r3
  407560:	ea4f 451e 	mov.w	r5, lr, lsr #16
  407564:	4338      	orrs	r0, r7
  407566:	fbb1 f8f5 	udiv	r8, r1, r5
  40756a:	0c03      	lsrs	r3, r0, #16
  40756c:	fb05 1118 	mls	r1, r5, r8, r1
  407570:	fa1f f78e 	uxth.w	r7, lr
  407574:	ea43 4101 	orr.w	r1, r3, r1, lsl #16
  407578:	fb07 f308 	mul.w	r3, r7, r8
  40757c:	428b      	cmp	r3, r1
  40757e:	fa0c fc02 	lsl.w	ip, ip, r2
  407582:	d909      	bls.n	407598 <__divdi3+0x22c>
  407584:	eb11 010e 	adds.w	r1, r1, lr
  407588:	f108 39ff 	add.w	r9, r8, #4294967295
  40758c:	d230      	bcs.n	4075f0 <__divdi3+0x284>
  40758e:	428b      	cmp	r3, r1
  407590:	d92e      	bls.n	4075f0 <__divdi3+0x284>
  407592:	f1a8 0802 	sub.w	r8, r8, #2
  407596:	4471      	add	r1, lr
  407598:	1ac9      	subs	r1, r1, r3
  40759a:	b280      	uxth	r0, r0
  40759c:	fbb1 f3f5 	udiv	r3, r1, r5
  4075a0:	fb05 1113 	mls	r1, r5, r3, r1
  4075a4:	ea40 4101 	orr.w	r1, r0, r1, lsl #16
  4075a8:	fb07 f703 	mul.w	r7, r7, r3
  4075ac:	428f      	cmp	r7, r1
  4075ae:	d908      	bls.n	4075c2 <__divdi3+0x256>
  4075b0:	eb11 010e 	adds.w	r1, r1, lr
  4075b4:	f103 30ff 	add.w	r0, r3, #4294967295
  4075b8:	d216      	bcs.n	4075e8 <__divdi3+0x27c>
  4075ba:	428f      	cmp	r7, r1
  4075bc:	d914      	bls.n	4075e8 <__divdi3+0x27c>
  4075be:	3b02      	subs	r3, #2
  4075c0:	4471      	add	r1, lr
  4075c2:	ea43 4308 	orr.w	r3, r3, r8, lsl #16
  4075c6:	1bc9      	subs	r1, r1, r7
  4075c8:	fba3 890c 	umull	r8, r9, r3, ip
  4075cc:	4549      	cmp	r1, r9
  4075ce:	d309      	bcc.n	4075e4 <__divdi3+0x278>
  4075d0:	d005      	beq.n	4075de <__divdi3+0x272>
  4075d2:	2200      	movs	r2, #0
  4075d4:	e71d      	b.n	407412 <__divdi3+0xa6>
  4075d6:	4696      	mov	lr, r2
  4075d8:	e6fe      	b.n	4073d8 <__divdi3+0x6c>
  4075da:	4613      	mov	r3, r2
  4075dc:	e711      	b.n	407402 <__divdi3+0x96>
  4075de:	4094      	lsls	r4, r2
  4075e0:	4544      	cmp	r4, r8
  4075e2:	d2f6      	bcs.n	4075d2 <__divdi3+0x266>
  4075e4:	3b01      	subs	r3, #1
  4075e6:	e7f4      	b.n	4075d2 <__divdi3+0x266>
  4075e8:	4603      	mov	r3, r0
  4075ea:	e7ea      	b.n	4075c2 <__divdi3+0x256>
  4075ec:	4688      	mov	r8, r1
  4075ee:	e7a5      	b.n	40753c <__divdi3+0x1d0>
  4075f0:	46c8      	mov	r8, r9
  4075f2:	e7d1      	b.n	407598 <__divdi3+0x22c>
  4075f4:	4602      	mov	r2, r0
  4075f6:	e78c      	b.n	407512 <__divdi3+0x1a6>
  4075f8:	4613      	mov	r3, r2
  4075fa:	e70a      	b.n	407412 <__divdi3+0xa6>
  4075fc:	3b02      	subs	r3, #2
  4075fe:	e757      	b.n	4074b0 <__divdi3+0x144>
  407600:	f1a8 0802 	sub.w	r8, r8, #2
  407604:	442f      	add	r7, r5
  407606:	e73f      	b.n	407488 <__divdi3+0x11c>

00407608 <__udivdi3>:
  407608:	e92d 41f0 	stmdb	sp!, {r4, r5, r6, r7, r8, lr}
  40760c:	2b00      	cmp	r3, #0
  40760e:	d144      	bne.n	40769a <__udivdi3+0x92>
  407610:	428a      	cmp	r2, r1
  407612:	4615      	mov	r5, r2
  407614:	4604      	mov	r4, r0
  407616:	d94f      	bls.n	4076b8 <__udivdi3+0xb0>
  407618:	fab2 f782 	clz	r7, r2
  40761c:	460e      	mov	r6, r1
  40761e:	b14f      	cbz	r7, 407634 <__udivdi3+0x2c>
  407620:	f1c7 0320 	rsb	r3, r7, #32
  407624:	40b9      	lsls	r1, r7
  407626:	fa20 f603 	lsr.w	r6, r0, r3
  40762a:	fa02 f507 	lsl.w	r5, r2, r7
  40762e:	430e      	orrs	r6, r1
  407630:	fa00 f407 	lsl.w	r4, r0, r7
  407634:	ea4f 4e15 	mov.w	lr, r5, lsr #16
  407638:	0c23      	lsrs	r3, r4, #16
  40763a:	fbb6 f0fe 	udiv	r0, r6, lr
  40763e:	b2af      	uxth	r7, r5
  407640:	fb0e 6110 	mls	r1, lr, r0, r6
  407644:	ea43 4301 	orr.w	r3, r3, r1, lsl #16
  407648:	fb07 f100 	mul.w	r1, r7, r0
  40764c:	4299      	cmp	r1, r3
  40764e:	d909      	bls.n	407664 <__udivdi3+0x5c>
  407650:	195b      	adds	r3, r3, r5
  407652:	f100 32ff 	add.w	r2, r0, #4294967295
  407656:	f080 80ec 	bcs.w	407832 <__udivdi3+0x22a>
  40765a:	4299      	cmp	r1, r3
  40765c:	f240 80e9 	bls.w	407832 <__udivdi3+0x22a>
  407660:	3802      	subs	r0, #2
  407662:	442b      	add	r3, r5
  407664:	1a5a      	subs	r2, r3, r1
  407666:	b2a4      	uxth	r4, r4
  407668:	fbb2 f3fe 	udiv	r3, r2, lr
  40766c:	fb0e 2213 	mls	r2, lr, r3, r2
  407670:	ea44 4202 	orr.w	r2, r4, r2, lsl #16
  407674:	fb07 f703 	mul.w	r7, r7, r3
  407678:	4297      	cmp	r7, r2
  40767a:	d908      	bls.n	40768e <__udivdi3+0x86>
  40767c:	1952      	adds	r2, r2, r5
  40767e:	f103 31ff 	add.w	r1, r3, #4294967295
  407682:	f080 80d8 	bcs.w	407836 <__udivdi3+0x22e>
  407686:	4297      	cmp	r7, r2
  407688:	f240 80d5 	bls.w	407836 <__udivdi3+0x22e>
  40768c:	3b02      	subs	r3, #2
  40768e:	ea43 4000 	orr.w	r0, r3, r0, lsl #16
  407692:	2600      	movs	r6, #0
  407694:	4631      	mov	r1, r6
  407696:	e8bd 81f0 	ldmia.w	sp!, {r4, r5, r6, r7, r8, pc}
  40769a:	428b      	cmp	r3, r1
  40769c:	d847      	bhi.n	40772e <__udivdi3+0x126>
  40769e:	fab3 f683 	clz	r6, r3
  4076a2:	2e00      	cmp	r6, #0
  4076a4:	d148      	bne.n	407738 <__udivdi3+0x130>
  4076a6:	428b      	cmp	r3, r1
  4076a8:	d302      	bcc.n	4076b0 <__udivdi3+0xa8>
  4076aa:	4282      	cmp	r2, r0
  4076ac:	f200 80cd 	bhi.w	40784a <__udivdi3+0x242>
  4076b0:	2001      	movs	r0, #1
  4076b2:	4631      	mov	r1, r6
  4076b4:	e8bd 81f0 	ldmia.w	sp!, {r4, r5, r6, r7, r8, pc}
  4076b8:	b912      	cbnz	r2, 4076c0 <__udivdi3+0xb8>
  4076ba:	2501      	movs	r5, #1
  4076bc:	fbb5 f5f2 	udiv	r5, r5, r2
  4076c0:	fab5 f885 	clz	r8, r5
  4076c4:	f1b8 0f00 	cmp.w	r8, #0
  4076c8:	d177      	bne.n	4077ba <__udivdi3+0x1b2>
  4076ca:	1b4a      	subs	r2, r1, r5
  4076cc:	ea4f 4e15 	mov.w	lr, r5, lsr #16
  4076d0:	b2af      	uxth	r7, r5
  4076d2:	2601      	movs	r6, #1
  4076d4:	fbb2 f0fe 	udiv	r0, r2, lr
  4076d8:	0c23      	lsrs	r3, r4, #16
  4076da:	fb0e 2110 	mls	r1, lr, r0, r2
  4076de:	ea43 4101 	orr.w	r1, r3, r1, lsl #16
  4076e2:	fb07 f300 	mul.w	r3, r7, r0
  4076e6:	428b      	cmp	r3, r1
  4076e8:	d907      	bls.n	4076fa <__udivdi3+0xf2>
  4076ea:	1949      	adds	r1, r1, r5
  4076ec:	f100 32ff 	add.w	r2, r0, #4294967295
  4076f0:	d202      	bcs.n	4076f8 <__udivdi3+0xf0>
  4076f2:	428b      	cmp	r3, r1
  4076f4:	f200 80ba 	bhi.w	40786c <__udivdi3+0x264>
  4076f8:	4610      	mov	r0, r2
  4076fa:	1ac9      	subs	r1, r1, r3
  4076fc:	b2a4      	uxth	r4, r4
  4076fe:	fbb1 f3fe 	udiv	r3, r1, lr
  407702:	fb0e 1113 	mls	r1, lr, r3, r1
  407706:	ea44 4401 	orr.w	r4, r4, r1, lsl #16
  40770a:	fb07 f703 	mul.w	r7, r7, r3
  40770e:	42a7      	cmp	r7, r4
  407710:	d908      	bls.n	407724 <__udivdi3+0x11c>
  407712:	1964      	adds	r4, r4, r5
  407714:	f103 32ff 	add.w	r2, r3, #4294967295
  407718:	f080 808f 	bcs.w	40783a <__udivdi3+0x232>
  40771c:	42a7      	cmp	r7, r4
  40771e:	f240 808c 	bls.w	40783a <__udivdi3+0x232>
  407722:	3b02      	subs	r3, #2
  407724:	ea43 4000 	orr.w	r0, r3, r0, lsl #16
  407728:	4631      	mov	r1, r6
  40772a:	e8bd 81f0 	ldmia.w	sp!, {r4, r5, r6, r7, r8, pc}
  40772e:	2600      	movs	r6, #0
  407730:	4630      	mov	r0, r6
  407732:	4631      	mov	r1, r6
  407734:	e8bd 81f0 	ldmia.w	sp!, {r4, r5, r6, r7, r8, pc}
  407738:	f1c6 0420 	rsb	r4, r6, #32
  40773c:	fa22 f504 	lsr.w	r5, r2, r4
  407740:	40b3      	lsls	r3, r6
  407742:	432b      	orrs	r3, r5
  407744:	fa20 fc04 	lsr.w	ip, r0, r4
  407748:	fa01 f706 	lsl.w	r7, r1, r6
  40774c:	fa21 f504 	lsr.w	r5, r1, r4
  407750:	ea4f 4e13 	mov.w	lr, r3, lsr #16
  407754:	ea4c 0707 	orr.w	r7, ip, r7
  407758:	fbb5 f8fe 	udiv	r8, r5, lr
  40775c:	0c39      	lsrs	r1, r7, #16
  40775e:	fb0e 5518 	mls	r5, lr, r8, r5
  407762:	fa1f fc83 	uxth.w	ip, r3
  407766:	ea41 4505 	orr.w	r5, r1, r5, lsl #16
  40776a:	fb0c f108 	mul.w	r1, ip, r8
  40776e:	42a9      	cmp	r1, r5
  407770:	fa02 f206 	lsl.w	r2, r2, r6
  407774:	d904      	bls.n	407780 <__udivdi3+0x178>
  407776:	18ed      	adds	r5, r5, r3
  407778:	f108 34ff 	add.w	r4, r8, #4294967295
  40777c:	d367      	bcc.n	40784e <__udivdi3+0x246>
  40777e:	46a0      	mov	r8, r4
  407780:	1a6d      	subs	r5, r5, r1
  407782:	b2bf      	uxth	r7, r7
  407784:	fbb5 f4fe 	udiv	r4, r5, lr
  407788:	fb0e 5514 	mls	r5, lr, r4, r5
  40778c:	ea47 4105 	orr.w	r1, r7, r5, lsl #16
  407790:	fb0c fc04 	mul.w	ip, ip, r4
  407794:	458c      	cmp	ip, r1
  407796:	d904      	bls.n	4077a2 <__udivdi3+0x19a>
  407798:	18c9      	adds	r1, r1, r3
  40779a:	f104 35ff 	add.w	r5, r4, #4294967295
  40779e:	d35c      	bcc.n	40785a <__udivdi3+0x252>
  4077a0:	462c      	mov	r4, r5
  4077a2:	ea44 4408 	orr.w	r4, r4, r8, lsl #16
  4077a6:	ebcc 0101 	rsb	r1, ip, r1
  4077aa:	fba4 2302 	umull	r2, r3, r4, r2
  4077ae:	4299      	cmp	r1, r3
  4077b0:	d348      	bcc.n	407844 <__udivdi3+0x23c>
  4077b2:	d044      	beq.n	40783e <__udivdi3+0x236>
  4077b4:	4620      	mov	r0, r4
  4077b6:	2600      	movs	r6, #0
  4077b8:	e76c      	b.n	407694 <__udivdi3+0x8c>
  4077ba:	f1c8 0420 	rsb	r4, r8, #32
  4077be:	fa01 f308 	lsl.w	r3, r1, r8
  4077c2:	fa05 f508 	lsl.w	r5, r5, r8
  4077c6:	fa20 f704 	lsr.w	r7, r0, r4
  4077ca:	40e1      	lsrs	r1, r4
  4077cc:	ea4f 4e15 	mov.w	lr, r5, lsr #16
  4077d0:	431f      	orrs	r7, r3
  4077d2:	fbb1 f6fe 	udiv	r6, r1, lr
  4077d6:	0c3a      	lsrs	r2, r7, #16
  4077d8:	fb0e 1116 	mls	r1, lr, r6, r1
  4077dc:	fa1f fc85 	uxth.w	ip, r5
  4077e0:	ea42 4301 	orr.w	r3, r2, r1, lsl #16
  4077e4:	fb0c f206 	mul.w	r2, ip, r6
  4077e8:	429a      	cmp	r2, r3
  4077ea:	fa00 f408 	lsl.w	r4, r0, r8
  4077ee:	d907      	bls.n	407800 <__udivdi3+0x1f8>
  4077f0:	195b      	adds	r3, r3, r5
  4077f2:	f106 31ff 	add.w	r1, r6, #4294967295
  4077f6:	d237      	bcs.n	407868 <__udivdi3+0x260>
  4077f8:	429a      	cmp	r2, r3
  4077fa:	d935      	bls.n	407868 <__udivdi3+0x260>
  4077fc:	3e02      	subs	r6, #2
  4077fe:	442b      	add	r3, r5
  407800:	1a9b      	subs	r3, r3, r2
  407802:	b2bf      	uxth	r7, r7
  407804:	fbb3 f0fe 	udiv	r0, r3, lr
  407808:	fb0e 3310 	mls	r3, lr, r0, r3
  40780c:	ea47 4303 	orr.w	r3, r7, r3, lsl #16
  407810:	fb0c f100 	mul.w	r1, ip, r0
  407814:	4299      	cmp	r1, r3
  407816:	d907      	bls.n	407828 <__udivdi3+0x220>
  407818:	195b      	adds	r3, r3, r5
  40781a:	f100 32ff 	add.w	r2, r0, #4294967295
  40781e:	d221      	bcs.n	407864 <__udivdi3+0x25c>
  407820:	4299      	cmp	r1, r3
  407822:	d91f      	bls.n	407864 <__udivdi3+0x25c>
  407824:	3802      	subs	r0, #2
  407826:	442b      	add	r3, r5
  407828:	1a5a      	subs	r2, r3, r1
  40782a:	ea40 4606 	orr.w	r6, r0, r6, lsl #16
  40782e:	4667      	mov	r7, ip
  407830:	e750      	b.n	4076d4 <__udivdi3+0xcc>
  407832:	4610      	mov	r0, r2
  407834:	e716      	b.n	407664 <__udivdi3+0x5c>
  407836:	460b      	mov	r3, r1
  407838:	e729      	b.n	40768e <__udivdi3+0x86>
  40783a:	4613      	mov	r3, r2
  40783c:	e772      	b.n	407724 <__udivdi3+0x11c>
  40783e:	40b0      	lsls	r0, r6
  407840:	4290      	cmp	r0, r2
  407842:	d2b7      	bcs.n	4077b4 <__udivdi3+0x1ac>
  407844:	1e60      	subs	r0, r4, #1
  407846:	2600      	movs	r6, #0
  407848:	e724      	b.n	407694 <__udivdi3+0x8c>
  40784a:	4630      	mov	r0, r6
  40784c:	e722      	b.n	407694 <__udivdi3+0x8c>
  40784e:	42a9      	cmp	r1, r5
  407850:	d995      	bls.n	40777e <__udivdi3+0x176>
  407852:	f1a8 0802 	sub.w	r8, r8, #2
  407856:	441d      	add	r5, r3
  407858:	e792      	b.n	407780 <__udivdi3+0x178>
  40785a:	458c      	cmp	ip, r1
  40785c:	d9a0      	bls.n	4077a0 <__udivdi3+0x198>
  40785e:	3c02      	subs	r4, #2
  407860:	4419      	add	r1, r3
  407862:	e79e      	b.n	4077a2 <__udivdi3+0x19a>
  407864:	4610      	mov	r0, r2
  407866:	e7df      	b.n	407828 <__udivdi3+0x220>
  407868:	460e      	mov	r6, r1
  40786a:	e7c9      	b.n	407800 <__udivdi3+0x1f8>
  40786c:	3802      	subs	r0, #2
  40786e:	4429      	add	r1, r5
  407870:	e743      	b.n	4076fa <__udivdi3+0xf2>
  407872:	bf00      	nop

00407874 <p_uc_charset10x14>:
	...
  407890:	ccff ccff 0000 0000 0000 0000 0000 0000     ................
  4078a0:	00f0 00f0 0000 0000 00f0 00f0 0000 0000     ................
  4078b0:	c00c c00c fcff fcff c00c c00c fcff fcff     ................
  4078c0:	c00c c00c 600c 701e 303f 3033 fcff fcff     .....`.p?030....
  4078d0:	3033 f033 e039 c018 0060 0cf0 3cf0 f060     303.9...`....<`.
  4078e0:	c003 000f 183c 3cf0 3cc0 1800 f03c f87f     ....<..<.<..<...
  4078f0:	1cc3 8cc7 cccf ecdc 7878 3030 fc00 cc00     ........xx00....
  407900:	0000 0000 0000 0044 00ec 00f8 0070 0000     ......D.....p...
	...
  407918:	c00f f03f 7878 1860 0cc0 0cc0 0000 0000     ..?.xx`.........
  407928:	0000 0000 0cc0 0cc0 1860 7878 f03f c00f     ........`.xx?...
  407938:	0000 0000 600c e00e c007 8003 f83f f83f     .....`......?.?.
  407948:	8003 c007 e00e 600c 0003 0003 0003 0003     .......`........
  407958:	f03f f03f 0003 0003 0003 0003 4400 ec00     ?.?..........D..
  407968:	f800 7000 0000 0000 0000 0000 0000 0000     ...p............
  407978:	0003 0003 0003 0003 0003 0003 0003 0003     ................
  407988:	0003 0003 1800 3c00 3c00 1800 0000 0000     .......<.<......
	...
  4079a0:	0000 0c00 3c00 f000 c003 000f 003c 00f0     .....<......<...
  4079b0:	00c0 0000 f03f f87f fce0 ccc1 8cc3 0cc7     ....?...........
  4079c0:	0cce 1cfc f87f f03f 0000 0000 0c30 0c70     ......?.....0.p.
  4079d0:	fcff fcff 0c00 0c00 0000 0000 0c30 1c70     ............0.p.
  4079e0:	3ce0 7cc0 ecc0 ccc1 8cc3 0ce7 0c7e 0c3c     .<.|........~.<.
  4079f0:	3030 3870 1ce0 0cc0 0cc0 0cc3 0cc3 1ce3     00p8............
  407a00:	f87f f03c c003 c007 c00e c01c c038 c070     ..<.........8.p.
  407a10:	fcff fcff c000 c000 30fc 38fc 1ccc 0ccc     .........0.8....
  407a20:	0ccc 0ccc 0ccc 1cce f8c7 f0c3 f03f f87f     ............?...
  407a30:	1ce3 0cc3 0cc3 0cc3 0cc3 9ce3 f871 f030     ............q.0.
  407a40:	00c0 00c0 00c0 00c0 fcc3 fcc7 00ce 00dc     ................
  407a50:	00f8 00f0 f03c f87f 9ce7 0cc3 0cc3 0cc3     ....<...........
  407a60:	0cc3 9ce7 f87f f03c 003c 007e 0ce7 0cc3     ......<.<.~.....
  407a70:	1cc3 38c3 70c3 e0e7 c07f 803f 0000 0000     ...8.p....?.....
  407a80:	0000 6018 f03c f03c 6018 0000 0000 0000     ...`<.<..`......
  407a90:	0000 0000 0000 4418 ec3c f83c 7018 0000     .......D<.<..p..
  407aa0:	0000 0000 0000 0003 8007 c00f e01c 7038     ..............8p
  407ab0:	3870 1ce0 0cc0 0000 c00c c00c c00c c00c     p8..............
  407ac0:	c00c c00c c00c c00c c00c c00c 0000 0cc0     ................
  407ad0:	1ce0 3870 7038 e01c c00f 8007 0003 0000     ..p88p..........
  407ae0:	0030 0070 00e0 00c0 ecc1 ecc3 00c3 00e6     0.p.............
  407af0:	007e 003c f030 f871 9ce3 0cc3 fcc3 fcc3     ~.<.0.q.........
  407b00:	0cc0 1ce0 f87f f03f fc3f fc7f c0e0 c0c0     ......?.?.......
  407b10:	c0c0 c0c0 c0c0 c0e0 fc7f fc3f fcff fcff     ..........?.....
  407b20:	0cc3 0cc3 0cc3 0cc3 0cc3 9ce7 f87f f03c     ..............<.
  407b30:	f03f f87f 1ce0 0cc0 0cc0 0cc0 0cc0 1ce0     ?...............
  407b40:	3870 3030 fcff fcff 0cc0 0cc0 0cc0 0cc0     p800............
  407b50:	0cc0 1ce0 f87f f03f fcff fcff 0cc3 0cc3     ......?.........
  407b60:	0cc3 0cc3 0cc3 0cc3 0cc0 0cc0 fcff fcff     ................
  407b70:	00c3 00c3 00c3 00c3 00c3 00c3 00c0 00c0     ................
  407b80:	f03f f87f 1ce0 0cc0 0cc0 0cc3 0cc3 1ce3     ?...............
  407b90:	f873 f033 fcff fcff 0003 0003 0003 0003     s.3.............
  407ba0:	0003 0003 fcff fcff 0000 0000 0cc0 0cc0     ................
  407bb0:	fcff fcff 0cc0 0cc0 0000 0000 3000 3800     .............0.8
  407bc0:	1cc0 0cc0 0cc0 1cc0 f8ff f0ff 00c0 00c0     ................
  407bd0:	fcff fcff 8007 8007 c00f e01c 7038 3870     ............8pp8
  407be0:	1ce0 0cc0 fcff fcff 0c00 0c00 0c00 0c00     ................
  407bf0:	0c00 0c00 0c00 0c00 fcff fcff 0070 0038     ............p.8.
  407c00:	001f 001f 0038 0070 fcff fcff fcff fcff     ....8.p.........
  407c10:	001c 000e 0007 8003 c001 e000 fcff fcff     ................
  407c20:	f03f f87f 1ce0 0cc0 0cc0 0cc0 0cc0 1ce0     ?...............
  407c30:	f87f f03f fcff fcff 00c3 00c3 00c3 00c3     ..?.............
  407c40:	00c3 00e7 007e 003c f03f f87f 1ce0 0cc0     ....~.<.?.......
  407c50:	ccc0 ecc0 7cc0 38e0 fc7f ec3f fcff fcff     .....|.8..?.....
  407c60:	00c3 80c3 80c3 c0c3 c0c3 70e7 3c7e 1c3c     ...........p~<<.
  407c70:	183c 1c7e 0ce7 0cc3 0cc3 0cc3 0cc3 9cc3     <.~.............
  407c80:	f8e1 f060 00c0 00c0 00c0 00c0 fcff fcff     ..`.............
  407c90:	00c0 00c0 00c0 00c0 f0ff f8ff 1c00 0c00     ................
  407ca0:	0c00 0c00 0c00 1c00 f8ff f0ff c0ff e0ff     ................
  407cb0:	7000 3800 1c00 1c00 3800 7000 e0ff c0ff     .p.8.....8.p....
  407cc0:	f0ff f8ff 1c00 3c00 f800 f800 3c00 1c00     .......<.....<..
  407cd0:	f8ff f0ff 3cf0 7cf8 e01c c00f 8007 8007     .....<.|........
  407ce0:	c00f e01c 7cf8 3cf0 00fc 00fe 0007 8003     .....|.<........
  407cf0:	fc01 fc01 8003 0007 00fe 00fc 3cc0 7cc0     .............<.|
  407d00:	ecc0 ccc1 8cc3 0cc7 0cce 0cdc 0cf8 0cf0     ................
  407d10:	0000 0000 fcff fcff 0cc0 0cc0 0cc0 0000     ................
  407d20:	0000 0000 0030 0030 000c 000c 0003 0003     ....0.0.........
  407d30:	c000 c000 3000 3000 0000 0000 0cc0 0cc0     .....0.0........
  407d40:	0cc0 fcff fcff 0000 0000 0000 000c 001c     ................
  407d50:	0038 0070 00e0 00e0 0070 0038 001c 000c     8.p.....p.8.....
  407d60:	0c00 0c00 0c00 0c00 0c00 0c00 0c00 0c00     ................
  407d70:	0c00 0c00 0000 0000 00c0 00e0 0070 0038     ............p.8.
  407d80:	0018 0000 0000 0000 3000 7806 fc0e cc0c     .........0.x....
  407d90:	cc0c cc0c cc0c cc0e fc07 f803 fcff fcff     ................
  407da0:	0c03 0c03 0c03 0c03 0c03 9c03 f801 f000     ................
  407db0:	f003 f807 1c0e 0c0c 0c0c 0c0c 0c0c 1c0e     ................
  407dc0:	3807 3003 f000 f801 9c03 0c03 0c03 0c03     .8.0............
  407dd0:	0c03 0c03 fcff fcff f003 f807 dc0e cc0c     ................
  407de0:	cc0c cc0c cc0c dc0e d807 9003 0000 0003     ................
  407df0:	fc3f fc7f 00e3 00e3 0070 0030 0000 0000     ?.......p.0.....
  407e00:	1803 9c07 cc0f cc0c cc0c cc0c cc0c dc0c     ................
  407e10:	f80f f007 fcff fcff 0003 0003 0003 0003     ................
  407e20:	8003 fc01 fc00 0000 0000 0000 0000 0000     ................
  407e30:	fc1b fc1b 0000 0000 0000 0000 0000 3000     ...............0
  407e40:	3800 1c00 0c00 0c00 1c00 f8cf f0cf 0000     .8..............
  407e50:	0000 fcff fcff e000 e001 f003 3807 1c0e     .............8..
  407e60:	0c0c 0000 0000 0000 0cc0 0cc0 fcff fcff     ................
  407e70:	0c00 0c00 0000 0000 fc0f fc0f 000e 0007     ................
  407e80:	c003 c003 0007 000e fc0f fc0f fc0f fc0f     ................
  407e90:	0003 0007 000e 000c 000c 000e fc07 fc03     ................
  407ea0:	f003 f807 1c0e 0c0c 0c0c 0c0c 0c0c 1c0e     ................
  407eb0:	f807 f003 fc0f fc0f c00c c00c c00c c00c     ................
  407ec0:	c00c c00f 8007 0003 0003 8007 c00f c00c     ................
  407ed0:	c00c c00c c00c c00c fc0f fc0f fc0f fc0f     ................
  407ee0:	8003 0007 000e 000c 000c 000e 0007 0003     ................
  407ef0:	1803 9c07 cc0f cc0c cc0c cc0c cc0c fc0c     ................
  407f00:	780e 3006 0000 000c 000c f0ff f8ff 1c0c     .x.0............
  407f10:	1c0c 380c 300c 0000 f00f f80f 1c00 0c00     ...8.0..........
  407f20:	0c00 0c00 0c00 1c00 f80f f00f c00f e00f     ................
  407f30:	7000 3800 1c00 1c00 3800 7000 e00f c00f     .p.8.....8.p....
  407f40:	f00f f80f 1c00 1c00 f800 f800 1c00 1c00     ................
  407f50:	f80f f00f 0c0c 1c0e 3807 f003 e001 e001     .........8......
  407f60:	f003 3807 1c0e 0c0c 000c 000e 0c07 9c03     ...8............
  407f70:	f801 f001 8003 0007 000e 000c 0c0c 1c0c     ................
  407f80:	3c0c 7c0c ec0c cc0d 8c0f 0c0f 0c0e 0c0c     .<.|............
  407f90:	0000 0003 8007 f03f f87c 1ce0 0cc0 0cc0     ......?.|.......
  407fa0:	0cc0 0000 0c03 0c03 fc3f fc7f 0ce3 0cc3     ........?.......
  407fb0:	0cc0 0ce0 0c70 0c30 0000 0cc0 0cc0 0cc0     ....p.0.........
  407fc0:	1ce0 f87c f03f 8007 0003 0000 00c0 00c0     ..|.?...........
  407fd0:	00c0 00c0 00c0 00c0 00c0 00c0 00c0 00c0     ................
  407fe0:	fcff fcff fcff fcff fcff fcff fcff fcff     ................
  407ff0:	fcff fcff                                   ....

00407ff4 <image_data_maua>:
  407ff4:	ffff 00ff ffff 00ff ffff 00ff ffff 00ff     ................
  408004:	ffff 00ff ffff 00ff ffff 00ff ffff 00ff     ................
  408014:	ffff 00ff ffff 00ff ffff 00ff ffff 00ff     ................
  408024:	ffff 00ff ffff 00ff ffff 00ff ffff 00ff     ................
  408034:	ffff 00ff ffff 00ff ffff 00ff ffff 00ff     ................
  408044:	ffff 00ff ffff 00ff ffff 00ff ffff 00ff     ................
  408054:	ffff 00ff ffff 00ff ffff 00ff ffff 00ff     ................
  408064:	ffff 00ff ffff 00ff ffff 00ff ffff 00ff     ................
  408074:	ffff 00ff ffff 00ff ffff 00ff ffff 00ff     ................
  408084:	ffff 00ff ffff 00ff ffff 00ff ffff 00ff     ................
  408094:	ffff 00ff ffff 00ff ffff 00ff ffff 00ff     ................
  4080a4:	ffff 00ff ffff 00ff ffff 00ff ffff 00ff     ................
  4080b4:	ffff 00ff ffff 00ff ffff 00ff ffff 00ff     ................
  4080c4:	ffff 00ff ffff 00ff ffff 00ff ffff 00ff     ................
  4080d4:	ffff 00ff ffff 00ff ffff 00ff ffff 00ff     ................
  4080e4:	ffff 00ff ffff 00ff ffff 00ff ffff 00ff     ................
  4080f4:	ffff 00ff ffff 00ff ffff 00ff ffff 00ff     ................
  408104:	ffff 00ff ffff 00ff ffff 00ff ffff 00ff     ................
  408114:	ffff 00ff ffff 00ff ffff 00ff ffff 00ff     ................
  408124:	ffff 00ff ffff 00ff ffff 00ff ffff 00ff     ................
  408134:	ffff 00ff ffff 00ff ffff 00ff ffff 00ff     ................
  408144:	ffff 00ff ffff 00ff ffff 00ff ffff 00ff     ................
  408154:	ffff 00ff ffff 00ff ffff 00ff ffff 00ff     ................
  408164:	ffff 00ff ffff 00ff ffff 00ff ffff 00ff     ................
  408174:	ffff 00ff ffff 00ff ffff 00ff ffff 00ff     ................
  408184:	ffff 00ff ffff 00ff ffff 00ff ffff 00ff     ................
  408194:	ffff 00ff ffff 00ff ffff 00ff ffff 00ff     ................
  4081a4:	ffff 00ff ffff 00ff ffff 00ff ffff 00ff     ................
  4081b4:	ffff 00ff ffff 00ff ffff 00ff ffff 00ff     ................
  4081c4:	ffff 00ff ffff 00ff ffff 00ff ffff 00ff     ................
  4081d4:	ffff 00ff ffff 00ff ffff 00ff ffff 00ff     ................
  4081e4:	ffff 00ff ffff 00ff ffff 00ff ffff 00ff     ................
  4081f4:	ffff 00ff ffff 00ff ffff 00ff ffff 00ff     ................
  408204:	ffff 00ff ffff 00ff ffff 00ff ffff 00ff     ................
  408214:	ffff 00ff ffff 00ff ffff 00ff ffff 00ff     ................
  408224:	ffff 00ff ffff 00ff ffff 00ff ffff 00ff     ................
  408234:	ffff 00ff ffff 00ff ffff 00ff ffff 00ff     ................
  408244:	ffff 00ff ffff 00ff ffff 00ff ffff 00ff     ................
  408254:	ffff 00ff ffff 00ff ffff 00ff ffff 00ff     ................
  408264:	ffff 00ff ffff 00ff ffff 00ff ffff 00ff     ................
  408274:	ffff 00ff ffff 00ff ffff 00ff ffff 00ff     ................
  408284:	ffff 00ff ffff 00ff ffff 00ff ffff 00ff     ................
  408294:	ffff 00ff ffff 00ff ffff 00ff ffff 00ff     ................
  4082a4:	ffff 00ff ffff 00ff ffff 00ff ffff 00ff     ................
  4082b4:	ffff 00ff ffff 00ff ffff 00ff ffff 00ff     ................
  4082c4:	ffff 00ff ffff 00ff ffff 00ff ffff 00ff     ................
  4082d4:	ffff 00ff ffff 00ff ffff 00ff ffff 00ff     ................
  4082e4:	ffff 00ff ffff 00ff ffff 00ff ffff 00ff     ................
  4082f4:	ffff 00ff ffff 00ff ffff 00ff ffff 00ff     ................
  408304:	ffff 00ff ffff 00ff ffff 00ff ffff 00ff     ................
  408314:	ffff 00ff ffff 00ff ffff 00ff ffff 00ff     ................
  408324:	ffff 00ff ffff 00ff ffff 00ff ffff 00ff     ................
  408334:	ffff 00ff ffff 00ff ffff 00ff ffff 00ff     ................
  408344:	ffff 00ff ffff 00ff ffff 00ff ffff 00ff     ................
  408354:	ffff 00ff ffff 00ff ffff 00ff ffff 00ff     ................
  408364:	ffff 00ff ffff 00ff ffff 00ff ffff 00ff     ................
  408374:	ffff 00ff ffff 00ff ffff 00ff ffff 00ff     ................
  408384:	ffff 00ff ffff 00ff ffff 00ff ffff 00ff     ................
  408394:	ffff 00ff ffff 00ff ffff 00ff ffff 00ff     ................
  4083a4:	ffff 00ff ffff 00ff ffff 00ff ffff 00ff     ................
  4083b4:	ffff 00ff ffff 00ff ffff 00ff ffff 00ff     ................
  4083c4:	ffff 00ff ffff 00ff ffff 00ff ffff 00ff     ................
  4083d4:	ffff 00ff ffff 00ff ffff 00ff ffff 00ff     ................
  4083e4:	ffff 00ff ffff 00ff ffff 00ff ffff 00ff     ................
  4083f4:	ffff 00ff ffff 00ff ffff 00ff ffff 00ff     ................
  408404:	ffff 00ff ffff 00ff ffff 00ff ffff 00ff     ................
  408414:	ffff 00ff ffff 00ff ffff 00ff ffff 00ff     ................
  408424:	ffff 00ff ffff 00ff ffff 00ff ffff 00ff     ................
  408434:	ffff 00ff ffff 00ff ffff 00ff ffff 00ff     ................
  408444:	ffff 00ff ffff 00ff ffff 00ff ffff 00ff     ................
  408454:	ffff 00ff ffff 00ff ffff 00ff ffff 00ff     ................
  408464:	ffff 00ff ffff 00ff ffff 00ff ffff 00ff     ................
  408474:	ffff 00ff ffff 00ff ffff 00ff ffff 00ff     ................
  408484:	ffff 00ff ffff 00ff ffff 00ff ffff 00ff     ................
  408494:	ffff 00ff ffff 00ff ffff 00ff ffff 00ff     ................
  4084a4:	ffff 00ff ffff 00ff ffff 00ff ffff 00ff     ................
  4084b4:	ffff 00ff ffff 00ff ffff 00ff ffff 00ff     ................
  4084c4:	ffff 00ff ffff 00ff ffff 00ff ffff 00ff     ................
  4084d4:	ffff 00ff ffff 00ff ffff 00ff ffff 00ff     ................
  4084e4:	ffff 00ff ffff 00ff ffff 00ff ffff 00ff     ................
  4084f4:	ffff 00ff ffff 00ff ffff 00ff ffff 00ff     ................
  408504:	ffff 00ff ffff 00ff ffff 00ff ffff 00ff     ................
  408514:	ffff 00ff ffff 00ff ffff 00ff ffff 00ff     ................
  408524:	ffff 00ff ffff 00ff ffff 00ff ffff 00ff     ................
  408534:	ffff 00ff ffff 00ff ffff 00ff ffff 00ff     ................
  408544:	ffff 00ff ffff 00ff ffff 00ff ffff 00ff     ................
  408554:	ffff 00ff ffff 00ff ffff 00ff ffff 00ff     ................
  408564:	ffff 00ff ffff 00ff ffff 00ff ffff 00ff     ................
  408574:	ffff 00ff ffff 00ff ffff 00ff ffff 00ff     ................
  408584:	ffff 00ff ffff 00ff ffff 00ff ffff 00ff     ................
  408594:	ffff 00ff ffff 00ff ffff 00ff ffff 00ff     ................
  4085a4:	ffff 00ff ffff 00ff ffff 00ff ffff 00ff     ................
  4085b4:	ffff 00ff ffff 00ff ffff 00ff ffff 00ff     ................
  4085c4:	ffff 00ff ffff 00ff ffff 00ff ffff 00ff     ................
  4085d4:	ffff 00ff ffff 00ff ffff 00ff ffff 00ff     ................
  4085e4:	ffff 00ff ffff 00ff ffff 00ff ffff 00ff     ................
  4085f4:	ffff 00ff ffff 00ff ffff 00ff ffff 00ff     ................
  408604:	ffff 00ff ffff 00ff ffff 00ff ffff 00ff     ................
  408614:	ffff 00ff ffff 00ff ffff 00ff ffff 00ff     ................
  408624:	ffff 00ff ffff 00ff ffff 00ff ffff 00ff     ................
  408634:	ffff 00ff ffff 00ff ffff 00ff ffff 00ff     ................
  408644:	ffff 00ff ffff 00ff ffff 00ff ffff 00ff     ................
  408654:	ffff 00ff ffff 00ff ffff 00ff ffff 00ff     ................
  408664:	ffff 00ff ffff 00ff ffff 00ff ffff 00ff     ................
  408674:	ffff 00ff ffff 00ff ffff 00ff ffff 00ff     ................
  408684:	ffff 00ff ffff 00ff ffff 00ff ffff 00ff     ................
  408694:	ffff 00ff ffff 00ff ffff 00ff ffff 00ff     ................
  4086a4:	ffff 00ff ffff 00ff ffff 00ff ffff 00ff     ................
  4086b4:	ffff 00ff ffff 00ff ffff 00ff ffff 00ff     ................
  4086c4:	ffff 00ff ffff 00ff ffff 00ff ffff 00ff     ................
  4086d4:	ffff 00ff ffff 00ff ffff 00ff ffff 00ff     ................
  4086e4:	ffff 00ff ffff 00ff ffff 00ff ffff 00ff     ................
  4086f4:	ffff 00ff ffff 00ff ffff 00ff ffff 00ff     ................
  408704:	ffff 00ff ffff 00ff ffff 00ff ffff 00ff     ................
  408714:	ffff 00ff ffff 00ff ffff 00ff ffff 00ff     ................
  408724:	ffff 00ff ffff 00ff ffff 00ff ffff 00ff     ................
  408734:	ffff 00ff ffff 00ff ffff 00ff ffff 00ff     ................
  408744:	ffff 00ff ffff 00ff ffff 00ff ffff 00ff     ................
  408754:	ffff 00ff ffff 00ff ffff 00ff ffff 00ff     ................
  408764:	ffff 00ff ffff 00ff ffff 00ff ffff 00ff     ................
  408774:	ffff 00ff ffff 00ff ffff 00ff ffff 00ff     ................
  408784:	ffff 00ff ffff 00ff ffff 00ff ffff 00ff     ................
  408794:	ffff 00ff ffff 00ff ffff 00ff ffff 00ff     ................
  4087a4:	ffff 00ff ffff 00ff ffff 00ff ffff 00ff     ................
  4087b4:	ffff 00ff ffff 00ff ffff 00ff ffff 00ff     ................
  4087c4:	ffff 00ff ffff 00ff ffff 00ff ffff 00ff     ................
  4087d4:	ffff 00ff ffff 00ff ffff 00ff ffff 00ff     ................
  4087e4:	ffff 00ff ffff 00ff ffff 00ff ffff 00ff     ................
  4087f4:	ffff 00ff ffff 00ff ffff 00ff ffff 00ff     ................
  408804:	ffff 00ff ffff 00ff ffff 00ff ffff 00ff     ................
  408814:	ffff 00ff ffff 00ff ffff 00ff ffff 00ff     ................
  408824:	ffff 00ff ffff 00ff ffff 00ff ffff 00ff     ................
  408834:	ffff 00ff ffff 00ff ffff 00ff ffff 00ff     ................
  408844:	ffff 00ff ffff 00ff ffff 00ff ffff 00ff     ................
  408854:	ffff 00ff ffff 00ff ffff 00ff ffff 00ff     ................
  408864:	ffff 00ff ffff 00ff ffff 00ff ffff 00ff     ................
  408874:	ffff 00ff ffff 00ff ffff 00ff ffff 00ff     ................
  408884:	ffff 00ff ffff 00ff ffff 00ff ffff 00ff     ................
  408894:	ffff 00ff ffff 00ff ffff 00ff ffff 00ff     ................
  4088a4:	ffff 00ff ffff 00ff ffff 00ff ffff 00ff     ................
  4088b4:	ffff 00ff ffff 00ff ffff 00ff ffff 00ff     ................
  4088c4:	ffff 00ff ffff 00ff ffff 00ff ffff 00ff     ................
  4088d4:	ffff 00ff ffff 00ff ffff 00ff ffff 00ff     ................
  4088e4:	ffff 00ff ffff 00ff ffff 00ff ffff 00ff     ................
  4088f4:	ffff 00ff ffff 00ff ffff 00ff ffff 00ff     ................
  408904:	ffff 00ff ffff 00ff ffff 00ff ffff 00ff     ................
  408914:	ffff 00ff ffff 00ff ffff 00ff ffff 00ff     ................
  408924:	ffff 00ff ffff 00ff ffff 00ff ffff 00ff     ................
  408934:	ffff 00ff ffff 00ff ffff 00ff ffff 00ff     ................
  408944:	ffff 00ff ffff 00ff ffff 00ff ffff 00ff     ................
  408954:	ffff 00ff ffff 00ff ffff 00ff ffff 00ff     ................
  408964:	ffff 00ff ffff 00ff ffff 00ff ffff 00ff     ................
  408974:	ffff 00ff ffff 00ff ffff 00ff ffff 00ff     ................
  408984:	ffff 00ff ffff 00ff ffff 00ff ffff 00ff     ................
  408994:	ffff 00ff ffff 00ff ffff 00ff ffff 00ff     ................
  4089a4:	ffff 00ff ffff 00ff ffff 00ff ffff 00ff     ................
  4089b4:	ffff 00ff ffff 00ff ffff 00ff ffff 00ff     ................
  4089c4:	ffff 00ff ffff 00ff ffff 00ff ffff 00ff     ................
  4089d4:	ffff 00ff ffff 00ff ffff 00ff ffff 00ff     ................
  4089e4:	ffff 00ff ffff 00ff ffff 00ff ffff 00ff     ................
  4089f4:	ffff 00ff ffff 00ff ffff 00ff ffff 00ff     ................
  408a04:	ffff 00ff ffff 00ff ffff 00ff ffff 00ff     ................
  408a14:	ffff 00ff ffff 00ff ffff 00ff ffff 00ff     ................
  408a24:	ffff 00ff ffff 00ff ffff 00ff ffff 00ff     ................
  408a34:	ffff 00ff ffff 00ff ffff 00ff ffff 00ff     ................
  408a44:	ffff 00ff ffff 00ff ffff 00ff ffff 00ff     ................
  408a54:	ffff 00ff ffff 00ff ffff 00ff ffff 00ff     ................
  408a64:	ffff 00ff ffff 00ff ffff 00ff ffff 00ff     ................
  408a74:	ffff 00ff ffff 00ff ffff 00ff ffff 00ff     ................
  408a84:	ffff 00ff ffff 00ff ffff 00ff ffff 00ff     ................
  408a94:	ffff 00ff ffff 00ff ffff 00ff ffff 00ff     ................
  408aa4:	ffff 00ff ffff 00ff ffff 00ff ffff 00ff     ................
  408ab4:	ffff 00ff ffff 00ff ffff 00ff ffff 00ff     ................
  408ac4:	ffff 00ff ffff 00ff ffff 00ff ffff 00ff     ................
  408ad4:	ffff 00ff ffff 00ff ffff 00ff ffff 00ff     ................
  408ae4:	ffff 00ff ffff 00ff ffff 00ff ffff 00ff     ................
  408af4:	ffff 00ff ffff 00ff ffff 00ff ffff 00ff     ................
  408b04:	ffff 00ff ffff 00ff ffff 00ff ffff 00ff     ................
  408b14:	ffff 00ff ffff 00ff ffff 00ff ffff 00ff     ................
  408b24:	ffff 00ff ffff 00ff ffff 00ff ffff 00ff     ................
  408b34:	ffff 00ff ffff 00ff ffff 00ff ffff 00ff     ................
  408b44:	ffff 00ff ffff 00ff ffff 00ff ffff 00ff     ................
  408b54:	ffff 00ff ffff 00ff ffff 00ff ffff 00ff     ................
  408b64:	ffff 00ff ffff 00ff ffff 00ff ffff 00ff     ................
  408b74:	ffff 00ff ffff 00ff ffff 00ff ffff 00ff     ................
  408b84:	ffff 00ff ffff 00ff ffff 00ff ffff 00ff     ................
  408b94:	ffff 00ff ffff 00ff ffff 00ff ffff 00ff     ................
  408ba4:	ffff 00ff ffff 00ff ffff 00ff ffff 00ff     ................
  408bb4:	ffff 00ff ffff 00ff ffff 00ff ffff 00ff     ................
  408bc4:	ffff 00ff ffff 00ff ffff 00ff ffff 00ff     ................
  408bd4:	ffff 00ff ffff 00ff ffff 00ff ffff 00ff     ................
  408be4:	ffff 00ff ffff 00ff ffff 00ff ffff 00ff     ................
  408bf4:	ffff 00ff ffff 00ff ffff 00ff ffff 00ff     ................
  408c04:	ffff 00ff ffff 00ff ffff 00ff ffff 00ff     ................
  408c14:	ffff 00ff ffff 00ff ffff 00ff ffff 00ff     ................
  408c24:	ffff 00ff ffff 00ff ffff 00ff ffff 00ff     ................
  408c34:	ffff 00ff ffff 00ff ffff 00ff ffff 00ff     ................
  408c44:	ffff 00ff ffff 00ff ffff 00ff ffff 00ff     ................
  408c54:	ffff 00ff ffff 00ff ffff 00ff ffff 00ff     ................
  408c64:	ffff 00ff ffff 00ff ffff 00ff ffff 00ff     ................
  408c74:	ffff 00ff ffff 00ff ffff 00ff ffff 00ff     ................
  408c84:	ffff 00ff ffff 00ff ffff 00ff ffff 00ff     ................
  408c94:	ffff 00ff ffff 00ff ffff 00ff ffff 00ff     ................
  408ca4:	ffff 00ff ffff 00ff ffff 00ff ffff 00ff     ................
  408cb4:	ffff 00ff ffff 00ff ffff 00ff ffff 00ff     ................
  408cc4:	ffff 00ff ffff 00ff ffff 00ff ffff 00ff     ................
  408cd4:	ffff 00ff ffff 00ff ffff 00ff ffff 00ff     ................
  408ce4:	ffff 00ff ffff 00ff ffff 00ff ffff 00ff     ................
  408cf4:	ffff 00ff ffff 00ff ffff 00ff ffff 00ff     ................
  408d04:	ffff 00ff ffff 00ff ffff 00ff ffff 00ff     ................
  408d14:	ffff 00ff ffff 00ff ffff 00ff ffff 00ff     ................
  408d24:	ffff 00ff ffff 00ff ffff 00ff ffff 00ff     ................
  408d34:	ffff 00ff ffff 00ff ffff 00ff ffff 00ff     ................
  408d44:	ffff 00ff ffff 00ff ffff 00ff ffff 00ff     ................
  408d54:	ffff 00ff ffff 00ff ffff 00ff ffff 00ff     ................
  408d64:	ffff 00ff ffff 00ff ffff 00ff ffff 00ff     ................
  408d74:	ffff 00ff ffff 00ff ffff 00ff ffff 00ff     ................
  408d84:	ffff 00ff ffff 00ff ffff 00ff ffff 00ff     ................
  408d94:	ffff 00ff ffff 00ff ffff 00ff ffff 00ff     ................
  408da4:	ffff 00ff ffff 00ff ffff 00ff ffff 00ff     ................
  408db4:	ffff 00ff ffff 00ff ffff 00ff ffff 00ff     ................
  408dc4:	ffff 00ff ffff 00ff ffff 00ff ffff 00ff     ................
  408dd4:	ffff 00ff ffff 00ff ffff 00ff ffff 00ff     ................
  408de4:	ffff 00ff ffff 00ff ffff 00ff ffff 00ff     ................
  408df4:	ffff 00ff ffff 00ff ffff 00ff ffff 00ff     ................
  408e04:	ffff 00ff ffff 00ff ffff 00ff ffff 00ff     ................
  408e14:	ffff 00ff ffff 00ff ffff 00ff ffff 00ff     ................
  408e24:	ffff 00ff ffff 00ff ffff 00ff ffff 00ff     ................
  408e34:	ffff 00ff ffff 00ff ffff 00ff ffff 00ff     ................
  408e44:	ffff 00ff ffff 00ff ffff 00ff ffff 00ff     ................
  408e54:	ffff 00ff ffff 00ff ffff 00ff ffff 00ff     ................
  408e64:	ffff 00ff ffff 00ff ffff 00ff ffff 00ff     ................
  408e74:	ffff 00ff ffff 00ff ffff 00ff ffff 00ff     ................
  408e84:	ffff 00ff ffff 00ff ffff 00ff ffff 00ff     ................
  408e94:	ffff 00ff ffff 00ff ffff 00ff ffff 00ff     ................
  408ea4:	ffff 00ff ffff 00ff ffff 00ff ffff 00ff     ................
  408eb4:	ffff 00ff ffff 00ff ffff 00ff ffff 00ff     ................
  408ec4:	ffff 00ff ffff 00ff ffff 00ff ffff 00ff     ................
  408ed4:	ffff 00ff ffff 00ff ffff 00ff ffff 00ff     ................
  408ee4:	ffff 00ff ffff 00ff ffff 00ff ffff 00ff     ................
  408ef4:	ffff 00ff ffff 00ff ffff 00ff ffff 00ff     ................
  408f04:	ffff 00ff ffff 00ff ffff 00ff ffff 00ff     ................
  408f14:	ffff 00ff ffff 00ff ffff 00ff ffff 00ff     ................
  408f24:	ffff 00ff ffff 00ff ffff 00ff ffff 00ff     ................
  408f34:	ffff 00ff ffff 00ff ffff 00ff ffff 00ff     ................
  408f44:	ffff 00ff ffff 00ff ffff 00ff ffff 00ff     ................
  408f54:	ffff 00ff ffff 00ff ffff 00ff ffff 00ff     ................
  408f64:	ffff 00ff ffff 00ff ffff 00ff ffff 00ff     ................
  408f74:	ffff 00ff ffff 00ff ffff 00ff ffff 00ff     ................
  408f84:	ffff 00ff ffff 00ff ffff 00ff ffff 00ff     ................
  408f94:	ffff 00ff ffff 00ff ffff 00ff ffff 00ff     ................
  408fa4:	ffff 00ff ffff 00ff ffff 00ff ffff 00ff     ................
  408fb4:	ffff 00ff ffff 00ff ffff 00ff ffff 00ff     ................
  408fc4:	ffff 00ff ffff 00ff ffff 00ff ffff 00ff     ................
  408fd4:	ffff 00ff ffff 00ff ffff 00ff ffff 00ff     ................
  408fe4:	ffff 00ff ffff 00ff ffff 00ff ffff 00ff     ................
  408ff4:	ffff 00ff ffff 00ff ffff 00ff ffff 00ff     ................
  409004:	ffff 00ff ffff 00ff ffff 00ff ffff 00ff     ................
  409014:	ffff 00ff ffff 00ff ffff 00ff ffff 00ff     ................
  409024:	ffff 00ff ffff 00ff ffff 00ff ffff 00ff     ................
  409034:	ffff 00ff ffff 00ff ffff 00ff ffff 00ff     ................
  409044:	ffff 00ff ffff 00ff ffff 00ff ffff 00ff     ................
  409054:	ffff 00ff ffff 00ff ffff 00ff ffff 00ff     ................
  409064:	ffff 00ff ffff 00ff ffff 00ff ffff 00ff     ................
  409074:	ffff 00ff ffff 00ff ffff 00ff ffff 00ff     ................
  409084:	ffff 00ff ffff 00ff ffff 00ff ffff 00ff     ................
  409094:	ffff 00ff ffff 00ff ffff 00ff ffff 00ff     ................
  4090a4:	ffff 00ff ffff 00ff ffff 00ff ffff 00ff     ................
  4090b4:	ffff 00ff ffff 00ff ffff 00ff ffff 00ff     ................
  4090c4:	ffff 00ff ffff 00ff ffff 00ff ffff 00ff     ................
  4090d4:	ffff 00ff ffff 00ff ffff 00ff ffff 00ff     ................
  4090e4:	ffff 00ff ffff 00ff ffff 00ff ffff 00ff     ................
  4090f4:	ffff 00ff ffff 00ff ffff 00ff ffff 00ff     ................
  409104:	ffff 00ff ffff 00ff ffff 00ff ffff 00ff     ................
  409114:	ffff 00ff ffff 00ff ffff 00ff ffff 00ff     ................
  409124:	ffff 00ff ffff 00ff ffff 00ff ffff 00ff     ................
  409134:	ffff 00ff ffff 00ff ffff 00ff ffff 00ff     ................
  409144:	ffff 00ff ffff 00ff ffff 00ff ffff 00ff     ................
  409154:	ffff 00ff ffff 00ff ffff 00ff ffff 00ff     ................
  409164:	ffff 00ff ffff 00ff ffff 00ff ffff 00ff     ................
  409174:	ffff 00ff ffff 00ff ffff 00ff ffff 00ff     ................
  409184:	ffff 00ff ffff 00ff ffff 00ff ffff 00ff     ................
  409194:	ffff 00ff ffff 00ff ffff 00ff ffff 00ff     ................
  4091a4:	ffff 00ff ffff 00ff ffff 00ff ffff 00ff     ................
  4091b4:	ffff 00ff ffff 00ff ffff 00ff ffff 00ff     ................
  4091c4:	ffff 00ff ffff 00ff ffff 00ff ffff 00ff     ................
  4091d4:	ffff 00ff ffff 00ff ffff 00ff ffff 00ff     ................
  4091e4:	ffff 00ff ffff 00ff ffff 00ff ffff 00ff     ................
  4091f4:	ffff 00ff ffff 00ff ffff 00ff ffff 00ff     ................
  409204:	ffff 00ff ffff 00ff ffff 00ff ffff 00ff     ................
  409214:	ffff 00ff ffff 00ff ffff 00ff ffff 00ff     ................
  409224:	ffff 00ff ffff 00ff ffff 00ff ffff 00ff     ................
  409234:	ffff 00ff ffff 00ff ffff 00ff ffff 00ff     ................
  409244:	ffff 00ff ffff 00ff ffff 00ff ffff 00ff     ................
  409254:	ffff 00ff ffff 00ff ffff 00ff ffff 00ff     ................
  409264:	ffff 00ff ffff 00ff ffff 00ff ffff 00ff     ................
  409274:	ffff 00ff ffff 00ff ffff 00ff ffff 00ff     ................
  409284:	ffff 00ff ffff 00ff ffff 00ff ffff 00ff     ................
  409294:	ffff 00ff ffff 00ff ffff 00ff ffff 00ff     ................
  4092a4:	ffff 00ff ffff 00ff ffff 00ff ffff 00ff     ................
  4092b4:	ffff 00ff ffff 00ff ffff 00ff ffff 00ff     ................
  4092c4:	ffff 00ff ffff 00ff ffff 00ff ffff 00ff     ................
  4092d4:	ffff 00ff ffff 00ff ffff 00ff ffff 00ff     ................
  4092e4:	ffff 00ff ffff 00ff ffff 00ff ffff 00ff     ................
  4092f4:	ffff 00ff ffff 00ff ffff 00ff ffff 00ff     ................
  409304:	ffff 00ff ffff 00ff ffff 00ff ffff 00ff     ................
  409314:	ffff 00ff ffff 00ff ffff 00ff ffff 00ff     ................
  409324:	ffff 00ff ffff 00ff ffff 00ff ffff 00ff     ................
  409334:	ffff 00ff ffff 00ff ffff 00ff ffff 00ff     ................
  409344:	ffff 00ff ffff 00ff ffff 00ff ffff 00ff     ................
  409354:	ffff 00ff ffff 00ff ffff 00ff ffff 00ff     ................
  409364:	ffff 00ff ffff 00ff ffff 00ff ffff 00ff     ................
  409374:	ffff 00ff ffff 00ff ffff 00ff ffff 00ff     ................
  409384:	ffff 00ff ffff 00ff ffff 00ff ffff 00ff     ................
  409394:	ffff 00ff ffff 00ff ffff 00ff ffff 00ff     ................
  4093a4:	ffff 00ff ffff 00ff ffff 00ff ffff 00ff     ................
  4093b4:	ffff 00ff ffff 00ff ffff 00ff ffff 00ff     ................
  4093c4:	ffff 00ff ffff 00ff ffff 00ff ffff 00ff     ................
  4093d4:	ffff 00ff ffff 00ff ffff 00ff ffff 00ff     ................
  4093e4:	ffff 00ff ffff 00ff ffff 00ff ffff 00ff     ................
  4093f4:	ffff 00ff ffff 00ff ffff 00ff ffff 00ff     ................
  409404:	ffff 00ff ffff 00ff ffff 00ff ffff 00ff     ................
  409414:	ffff 00ff ffff 00ff ffff 00ff ffff 00ff     ................
  409424:	ffff 00ff ffff 00ff ffff 00ff ffff 00ff     ................
  409434:	ffff 00ff ffff 00ff ffff 00ff ffff 00ff     ................
  409444:	ffff 00ff ffff 00ff ffff 00ff ffff 00ff     ................
  409454:	ffff 00ff ffff 00ff ffff 00ff ffff 00ff     ................
  409464:	ffff 00ff ffff 00ff ffff 00ff ffff 00ff     ................
  409474:	ffff 00ff ffff 00ff ffff 00ff ffff 00ff     ................
  409484:	ffff 00ff ffff 00ff ffff 00ff ffff 00ff     ................
  409494:	ffff 00ff ffff 00ff ffff 00ff ffff 00ff     ................
  4094a4:	ffff 00ff ffff 00ff ffff 00ff ffff 00ff     ................
  4094b4:	ffff 00ff ffff 00ff ffff 00ff ffff 00ff     ................
  4094c4:	ffff 00ff ffff 00ff ffff 00ff ffff 00ff     ................
  4094d4:	ffff 00ff ffff 00ff ffff 00ff ffff 00ff     ................
  4094e4:	ffff 00ff ffff 00ff ffff 00ff ffff 00ff     ................
  4094f4:	ffff 00ff ffff 00ff ffff 00ff ffff 00ff     ................
  409504:	ffff 00ff ffff 00ff ffff 00ff ffff 00ff     ................
  409514:	ffff 00ff ffff 00ff ffff 00ff ffff 00ff     ................
  409524:	ffff 00ff ffff 00ff ffff 00ff ffff 00ff     ................
  409534:	ffff 00ff ffff 00ff ffff 00ff ffff 00ff     ................
  409544:	ffff 00ff ffff 00ff ffff 00ff ffff 00ff     ................
  409554:	ffff 00ff ffff 00ff ffff 00ff ffff 00ff     ................
  409564:	ffff 00ff ffff 00ff ffff 00ff ffff 00ff     ................
  409574:	ffff 00ff ffff 00ff ffff 00ff ffff 00ff     ................
  409584:	ffff 00ff ffff 00ff ffff 00ff ffff 00ff     ................
  409594:	ffff 00ff ffff 00ff ffff 00ff ffff 00ff     ................
  4095a4:	ffff 00ff ffff 00ff ffff 00ff ffff 00ff     ................
  4095b4:	ffff 00ff ffff 00ff ffff 00ff ffff 00ff     ................
  4095c4:	ffff 00ff ffff 00ff ffff 00ff ffff 00ff     ................
  4095d4:	ffff 00ff ffff 00ff ffff 00ff ffff 00ff     ................
  4095e4:	ffff 00ff ffff 00ff ffff 00ff ffff 00ff     ................
  4095f4:	ffff 00ff ffff 00ff ffff 00ff ffff 00ff     ................
  409604:	ffff 00ff ffff 00ff ffff 00ff ffff 00ff     ................
  409614:	ffff 00ff ffff 00ff ffff 00ff ffff 00ff     ................
  409624:	ffff 00ff ffff 00ff ffff 00ff ffff 00ff     ................
  409634:	ffff 00ff ffff 00ff ffff 00ff ffff 00ff     ................
  409644:	ffff 00ff ffff 00ff ffff 00ff ffff 00ff     ................
  409654:	ffff 00ff ffff 00ff ffff 00ff ffff 00ff     ................
  409664:	ffff 00ff ffff 00ff ffff 00ff ffff 00ff     ................
  409674:	ffff 00ff ffff 00ff ffff 00ff ffff 00ff     ................
  409684:	ffff 00ff ffff 00ff ffff 00ff ffff 00ff     ................
  409694:	ffff 00ff ffff 00ff ffff 00ff ffff 00ff     ................
  4096a4:	ffff 00ff ffff 00ff ffff 00ff ffff 00ff     ................
  4096b4:	ffff 00ff ffff 00ff ffff 00ff ffff 00ff     ................
  4096c4:	ffff 00ff ffff 00ff ffff 00ff ffff 00ff     ................
  4096d4:	ffff 00ff ffff 00ff ffff 00ff ffff 00ff     ................
  4096e4:	ffff 00ff ffff 00ff ffff 00ff ffff 00ff     ................
  4096f4:	ffff 00ff ffff 00ff ffff 00ff ffff 00ff     ................
  409704:	ffff 00ff ffff 00ff ffff 00ff ffff 00ff     ................
  409714:	ffff 00ff ffff 00ff ffff 00ff ffff 00ff     ................
  409724:	ffff 00ff ffff 00ff ffff 00ff ffff 00ff     ................
  409734:	ffff 00ff ffff 00ff ffff 00ff ffff 00ff     ................
  409744:	ffff 00ff ffff 00ff ffff 00ff ffff 00ff     ................
  409754:	ffff 00ff ffff 00ff ffff 00ff ffff 00ff     ................
  409764:	ffff 00ff ffff 00ff ffff 00ff ffff 00ff     ................
  409774:	ffff 00ff ffff 00ff ffff 00ff ffff 00ff     ................
  409784:	ffff 00ff ffff 00ff ffff 00ff ffff 00ff     ................
  409794:	ffff 00ff ffff 00ff ffff 00ff ffff 00ff     ................
  4097a4:	ffff 00ff ffff 00ff ffff 00ff ffff 00ff     ................
  4097b4:	ffff 00ff ffff 00ff ffff 00ff ffff 00ff     ................
  4097c4:	ffff 00ff ffff 00ff ffff 00ff ffff 00ff     ................
  4097d4:	ffff 00ff ffff 00ff ffff 00ff ffff 00ff     ................
  4097e4:	ffff 00ff ffff 00ff ffff 00ff ffff 00ff     ................
  4097f4:	ffff 00ff ffff 00ff ffff 00ff ffff 00ff     ................
  409804:	ffff 00ff ffff 00ff ffff 00ff ffff 00ff     ................
  409814:	ffff 00ff ffff 00ff ffff 00ff ffff 00ff     ................
  409824:	ffff 00ff ffff 00ff ffff 00ff ffff 00ff     ................
  409834:	ffff 00ff ffff 00ff ffff 00ff ffff 00ff     ................
  409844:	ffff 00ff ffff 00ff ffff 00ff ffff 00ff     ................
  409854:	ffff 00ff ffff 00ff ffff 00ff ffff 00ff     ................
  409864:	ffff 00ff ffff 00ff ffff 00ff ffff 00ff     ................
  409874:	ffff 00ff ffff 00ff ffff 00ff ffff 00ff     ................
  409884:	ffff 00ff ffff 00ff ffff 00ff ffff 00ff     ................
  409894:	ffff 00ff ffff 00ff ffff 00ff ffff 00ff     ................
  4098a4:	ffff 00ff ffff 00ff ffff 00ff ffff 00ff     ................
  4098b4:	ffff 00ff ffff 00ff ffff 00ff ffff 00ff     ................
  4098c4:	ffff 00ff ffff 00ff ffff 00ff ffff 00ff     ................
  4098d4:	ffff 00ff ffff 00ff ffff 00ff ffff 00ff     ................
  4098e4:	ffff 00ff ffff 00ff ffff 00ff ffff 00ff     ................
  4098f4:	ffff 00ff ffff 00ff ffff 00ff ffff 00ff     ................
  409904:	ffff 00ff ffff 00ff ffff 00ff ffff 00ff     ................
  409914:	ffff 00ff ffff 00ff ffff 00ff ffff 00ff     ................
  409924:	ffff 00ff ffff 00ff ffff 00ff ffff 00ff     ................
  409934:	ffff 00ff ffff 00ff ffff 00ff ffff 00ff     ................
  409944:	ffff 00ff ffff 00ff ffff 00ff ffff 00ff     ................
  409954:	ffff 00ff ffff 00ff ffff 00ff ffff 00ff     ................
  409964:	ffff 00ff ffff 00ff ffff 00ff ffff 00ff     ................
  409974:	ffff 00ff ffff 00ff ffff 00ff ffff 00ff     ................
  409984:	ffff 00ff ffff 00ff ffff 00ff ffff 00ff     ................
  409994:	ffff 00ff ffff 00ff ffff 00ff ffff 00ff     ................
  4099a4:	ffff 00ff ffff 00ff ffff 00ff ffff 00ff     ................
  4099b4:	ffff 00ff ffff 00ff ffff 00ff ffff 00ff     ................
  4099c4:	ffff 00ff ffff 00ff ffff 00ff ffff 00ff     ................
  4099d4:	ffff 00ff ffff 00ff ffff 00ff ffff 00ff     ................
  4099e4:	ffff 00ff ffff 00ff ffff 00ff ffff 00ff     ................
  4099f4:	ffff 00ff ffff 00ff ffff 00ff ffff 00ff     ................
  409a04:	ffff 00ff ffff 00ff ffff 00ff ffff 00ff     ................
  409a14:	ffff 00ff ffff 00ff ffff 00ff ffff 00ff     ................
  409a24:	ffff 00ff ffff 00ff ffff 00ff ffff 00ff     ................
  409a34:	ffff 00ff ffff 00ff ffff 00ff ffff 00ff     ................
  409a44:	ffff 00ff ffff 00ff ffff 00ff ffff 00ff     ................
  409a54:	ffff 00ff ffff 00ff ffff 00ff ffff 00ff     ................
  409a64:	ffff 00ff ffff 00ff ffff 00ff ffff 00ff     ................
  409a74:	ffff 00ff ffff 00ff ffff 00ff ffff 00ff     ................
  409a84:	ffff 00ff ffff 00ff ffff 00ff ffff 00ff     ................
  409a94:	ffff 00ff ffff 00ff ffff 00ff ffff 00ff     ................
  409aa4:	ffff 00ff ffff 00ff ffff 00ff ffff 00ff     ................
  409ab4:	ffff 00ff ffff 00ff ffff 00ff ffff 00ff     ................
  409ac4:	ffff 00ff ffff 00ff ffff 00ff ffff 00ff     ................
  409ad4:	ffff 00ff ffff 00ff ffff 00ff ffff 00ff     ................
  409ae4:	ffff 00ff ffff 00ff ffff 00ff ffff 00ff     ................
  409af4:	ffff 00ff ffff 00ff ffff 00ff ffff 00ff     ................
  409b04:	ffff 00ff ffff 00ff ffff 00ff ffff 00ff     ................
  409b14:	ffff 00ff ffff 00ff ffff 00ff ffff 00ff     ................
  409b24:	ffff 00ff ffff 00ff ffff 00ff ffff 00ff     ................
  409b34:	ffff 00ff ffff 00ff ffff 00ff ffff 00ff     ................
  409b44:	ffff 00ff ffff 00ff ffff 00ff ffff 00ff     ................
  409b54:	ffff 00ff ffff 00ff ffff 00ff ffff 00ff     ................
  409b64:	ffff 00ff ffff 00ff ffff 00ff ffff 00ff     ................
  409b74:	ffff 00ff ffff 00ff ffff 00ff ffff 00ff     ................
  409b84:	ffff 00ff ffff 00ff ffff 00ff ffff 00ff     ................
  409b94:	ffff 00ff ffff 00ff ffff 00ff ffff 00ff     ................
  409ba4:	ffff 00ff ffff 00ff ffff 00ff ffff 00ff     ................
  409bb4:	ffff 00ff ffff 00ff ffff 00ff ffff 00ff     ................
  409bc4:	ffff 00ff ffff 00ff ffff 00ff ffff 00ff     ................
  409bd4:	ffff 00ff ffff 00ff ffff 00ff ffff 00ff     ................
  409be4:	ffff 00ff ffff 00ff ffff 00ff ffff 00ff     ................
  409bf4:	ffff 00ff ffff 00ff ffff 00ff ffff 00ff     ................
  409c04:	ffff 00ff ffff 00ff ffff 00ff ffff 00ff     ................
  409c14:	ffff 00ff ffff 00ff ffff 00ff ffff 00ff     ................
  409c24:	ffff 00ff ffff 00ff ffff 00ff ffff 00ff     ................
  409c34:	ffff 00ff ffff 00ff ffff 00ff ffff 00ff     ................
  409c44:	ffff 00ff ffff 00ff ffff 00ff ffff 00ff     ................
  409c54:	ffff 00ff ffff 00ff ffff 00ff ffff 00ff     ................
  409c64:	ffff 00ff ffff 00ff ffff 00ff ffff 00ff     ................
  409c74:	ffff 00ff ffff 00ff ffff 00ff ffff 00ff     ................
  409c84:	ffff 00ff ffff 00ff ffff 00ff ffff 00ff     ................
  409c94:	ffff 00ff ffff 00ff ffff 00ff ffff 00ff     ................
  409ca4:	ffff 00ff ffff 00ff ffff 00ff ffff 00ff     ................
  409cb4:	ffff 00ff ffff 00ff ffff 00ff ffff 00ff     ................
  409cc4:	ffff 00ff ffff 00ff ffff 00ff ffff 00ff     ................
  409cd4:	ffff 00ff ffff 00ff ffff 00ff ffff 00ff     ................
  409ce4:	ffff 00ff ffff 00ff ffff 00ff ffff 00ff     ................
  409cf4:	ffff 00ff ffff 00ff ffff 00ff ffff 00ff     ................
  409d04:	ffff 00ff ffff 00ff ffff 00ff ffff 00ff     ................
  409d14:	ffff 00ff ffff 00ff ffff 00ff ffff 00ff     ................
  409d24:	ffff 00ff ffff 00ff ffff 00ff ffff 00ff     ................
  409d34:	ffff 00ff ffff 00ff ffff 00ff ffff 00ff     ................
  409d44:	ffff 00ff ffff 00ff ffff 00ff ffff 00ff     ................
  409d54:	ffff 00ff ffff 00ff ffff 00ff ffff 00ff     ................
  409d64:	ffff 00ff ffff 00ff ffff 00ff ffff 00ff     ................
  409d74:	ffff 00ff ffff 00ff ffff 00ff ffff 00ff     ................
  409d84:	ffff 00ff ffff 00ff ffff 00ff ffff 00ff     ................
  409d94:	ffff 00ff ffff 00ff ffff 00ff ffff 00ff     ................
  409da4:	ffff 00ff ffff 00ff ffff 00ff ffff 00ff     ................
  409db4:	ffff 00ff ffff 00ff ffff 00ff ffff 00ff     ................
  409dc4:	ffff 00ff ffff 00ff ffff 00ff ffff 00ff     ................
  409dd4:	ffff 00ff ffff 00ff ffff 00ff ffff 00ff     ................
  409de4:	ffff 00ff ffff 00ff ffff 00ff ffff 00ff     ................
  409df4:	4587 0000 4587 0000 4587 0000 4587 0000     .E...E...E...E..
  409e04:	4587 0000 4587 0000 4587 0000 4587 0000     .E...E...E...E..
  409e14:	4587 0000 4587 0000 4587 0000 4587 0000     .E...E...E...E..
  409e24:	4587 0000 4587 0000 4587 0000 4587 0000     .E...E...E...E..
  409e34:	4587 0000 4587 0000 4587 0000 4587 0000     .E...E...E...E..
  409e44:	4587 0000 4587 0000 4587 0000 4587 0000     .E...E...E...E..
  409e54:	4587 0000 4587 0000 4587 0000 4587 0000     .E...E...E...E..
  409e64:	4587 0000 4587 0000 4587 0000 4587 0000     .E...E...E...E..
  409e74:	4587 0000 4587 0000 4587 0000 4587 0000     .E...E...E...E..
  409e84:	5792 0019 72a4 003e 7dab 004e 85b0 0059     .W...r>..}N...Y.
  409e94:	8eb7 0066 99be 0075 93b9 006c 8bb5 0061     ..f...u...l...a.
  409ea4:	83af 0055 77a6 0045 659b 002c 4a8a 0007     ..U..wE..e,..J..
  409eb4:	4587 0000 4587 0000 4587 0000 4587 0000     .E...E...E...E..
  409ec4:	4587 0000 4587 0000 4587 0000 4587 0000     .E...E...E...E..
  409ed4:	4587 0000 4587 0000 4587 0000 4587 0000     .E...E...E...E..
  409ee4:	4587 0000 4587 0000 4587 0000 4587 0000     .E...E...E...E..
  409ef4:	4587 0000 4587 0000 4587 0000 4587 0000     .E...E...E...E..
  409f04:	4587 0000 4587 0000 4587 0000 4587 0000     .E...E...E...E..
  409f14:	4587 0000 4587 0000 4587 0000 4587 0000     .E...E...E...E..
  409f24:	4587 0000 4587 0000 4587 0000 4587 0000     .E...E...E...E..
  409f34:	4587 0000 4587 0000 4587 0000 a5c5 0083     .E...E...E......
  409f44:	ffff 00ff ffff 00ff ffff 00ff ffff 00ff     ................
  409f54:	ffff 00ff ffff 00ff ffff 00ff ffff 00ff     ................
  409f64:	ffff 00ff ffff 00ff ffff 00ff ffff 00ff     ................
  409f74:	ffff 00ff ffff 00ff ffff 00ff ffff 00ff     ................
  409f84:	ffff 00ff ffff 00ff ffff 00ff 7fac 004f     ..............O.
  409f94:	4587 0000 4587 0000 4587 0000 4587 0000     .E...E...E...E..
  409fa4:	4587 0000 4587 0000 4587 0000 4587 0000     .E...E...E...E..
  409fb4:	4587 0000 4587 0000 4587 0000 4587 0000     .E...E...E...E..
  409fc4:	4587 0000 4587 0000 4587 0000 4587 0000     .E...E...E...E..
  409fd4:	4587 0000 4587 0000 4587 0000 4587 0000     .E...E...E...E..
  409fe4:	4587 0000 4587 0000 4587 0000 4587 0000     .E...E...E...E..
  409ff4:	4587 0000 4587 0000 4587 0000 4587 0000     .E...E...E...E..
  40a004:	4587 0000 4587 0000 4587 0000 4587 0000     .E...E...E...E..
  40a014:	4587 0000 4587 0000 4587 0000 4587 0000     .E...E...E...E..
  40a024:	4587 0000 4587 0000 4587 0000 4587 0000     .E...E...E...E..
  40a034:	4587 0000 4587 0000 4587 0000 4587 0000     .E...E...E...E..
  40a044:	4587 0000 4587 0000 4587 0000 4587 0000     .E...E...E...E..
  40a054:	4587 0000 4587 0000 4587 0000 4587 0000     .E...E...E...E..
  40a064:	4587 0000 4587 0000 4587 0000 4587 0000     .E...E...E...E..
  40a074:	4587 0000 4587 0000 4587 0000 4587 0000     .E...E...E...E..
  40a084:	4587 0000 4587 0000 4587 0000 4587 0000     .E...E...E...E..
  40a094:	4587 0000 4587 0000 4587 0000 4587 0000     .E...E...E...E..
  40a0a4:	4587 0000 4587 0000 4587 0000 4587 0000     .E...E...E...E..
  40a0b4:	4587 0000 4587 0000 4587 0000 4587 0000     .E...E...E...E..
  40a0c4:	4587 0000 4587 0000 4587 0000 4587 0000     .E...E...E...E..
  40a0d4:	4587 0000 4587 0000 4587 0000 4587 0000     .E...E...E...E..
  40a0e4:	4587 0000 4587 0000 4587 0000 4587 0000     .E...E...E...E..
  40a0f4:	4587 0000 4587 0000 4587 0000 4587 0000     .E...E...E...E..
  40a104:	4587 0000 4587 0000 4587 0000 4587 0000     .E...E...E...E..
  40a114:	4587 0000 4587 0000 4587 0000 4587 0000     .E...E...E...E..
  40a124:	4587 0000 4587 0000 4587 0000 4587 0000     .E...E...E...E..
  40a134:	4587 0000 4587 0000 4587 0000 4587 0000     .E...E...E...E..
  40a144:	4587 0000 4587 0000 4587 0000 4587 0000     .E...E...E...E..
  40a154:	4587 0000 4587 0000 4587 0000 4587 0000     .E...E...E...E..
  40a164:	4587 0000 4587 0000 4587 0000 4587 0000     .E...E...E...E..
  40a174:	4587 0000 4587 0000 4587 0000 4587 0000     .E...E...E...E..
  40a184:	4587 0000 4587 0000 4587 0000 4587 0000     .E...E...E...E..
  40a194:	4587 0000 4587 0000 4587 0000 4587 0000     .E...E...E...E..
  40a1a4:	4587 0000 4587 0000 4587 0000 4587 0000     .E...E...E...E..
  40a1b4:	4587 0000 4587 0000 4587 0000 4587 0000     .E...E...E...E..
  40a1c4:	4587 0000 4587 0000 4587 0000 4587 0000     .E...E...E...E..
  40a1d4:	4587 0000 4587 0000 4587 0000 4587 0000     .E...E...E...E..
  40a1e4:	4587 0000 4587 0000 4587 0000 4587 0000     .E...E...E...E..
  40a1f4:	4587 0000 4587 0000 4587 0000 4587 0000     .E...E...E...E..
  40a204:	4587 0000 4587 0000 4587 0000 4587 0000     .E...E...E...E..
  40a214:	4587 0000 4587 0000 4587 0000 4587 0000     .E...E...E...E..
  40a224:	4587 0000 4587 0000 4587 0000 5d97 0022     .E...E...E...]".
  40a234:	8db6 0063 bad3 00a1 d7e6 00ca f5f8 00f1     ..c.............
  40a244:	ffff 00ff ffff 00ff ffff 00ff ffff 00ff     ................
  40a254:	ffff 00ff ffff 00ff ffff 00ff ffff 00ff     ................
  40a264:	ffff 00ff ffff 00ff ffff 00ff fdfe 00fc     ................
  40a274:	e6ef 00dd cadc 00b6 a3c4 0082 73a6 0041     .............sA.
  40a284:	4a8a 0008 4587 0000 4587 0000 4587 0000     .J...E...E...E..
  40a294:	4587 0000 4587 0000 4587 0000 4587 0000     .E...E...E...E..
  40a2a4:	4587 0000 4587 0000 4587 0000 4587 0000     .E...E...E...E..
  40a2b4:	4587 0000 4587 0000 4587 0000 4587 0000     .E...E...E...E..
  40a2c4:	4587 0000 4587 0000 4587 0000 4587 0000     .E...E...E...E..
  40a2d4:	4587 0000 4587 0000 4587 0000 4587 0000     .E...E...E...E..
  40a2e4:	4587 0000 4587 0000 4587 0000 4587 0000     .E...E...E...E..
  40a2f4:	4587 0000 4587 0000 4587 0000 a5c5 0083     .E...E...E......
  40a304:	ffff 00ff ffff 00ff ffff 00ff ffff 00ff     ................
  40a314:	ffff 00ff ffff 00ff ffff 00ff ffff 00ff     ................
  40a324:	ffff 00ff ffff 00ff ffff 00ff ffff 00ff     ................
  40a334:	ffff 00ff ffff 00ff ffff 00ff ffff 00ff     ................
  40a344:	ffff 00ff ffff 00ff ffff 00ff 7fac 004f     ..............O.
  40a354:	4587 0000 4587 0000 4587 0000 4587 0000     .E...E...E...E..
  40a364:	4587 0000 4587 0000 4587 0000 4587 0000     .E...E...E...E..
  40a374:	4587 0000 4587 0000 4587 0000 4587 0000     .E...E...E...E..
  40a384:	4587 0000 4587 0000 4587 0000 4587 0000     .E...E...E...E..
  40a394:	4587 0000 4587 0000 4587 0000 4587 0000     .E...E...E...E..
  40a3a4:	4587 0000 4587 0000 4587 0000 4587 0000     .E...E...E...E..
  40a3b4:	4587 0000 4587 0000 4587 0000 4587 0000     .E...E...E...E..
  40a3c4:	4587 0000 4587 0000 4587 0000 4587 0000     .E...E...E...E..
  40a3d4:	4587 0000 4587 0000 4587 0000 4587 0000     .E...E...E...E..
  40a3e4:	4587 0000 4587 0000 4587 0000 4587 0000     .E...E...E...E..
  40a3f4:	4587 0000 4587 0000 4587 0000 4587 0000     .E...E...E...E..
  40a404:	4587 0000 4587 0000 4587 0000 4587 0000     .E...E...E...E..
  40a414:	4587 0000 4587 0000 4587 0000 4587 0000     .E...E...E...E..
  40a424:	4587 0000 4587 0000 4587 0000 4587 0000     .E...E...E...E..
  40a434:	4587 0000 4587 0000 4587 0000 4587 0000     .E...E...E...E..
  40a444:	4587 0000 4587 0000 4587 0000 4587 0000     .E...E...E...E..
  40a454:	4587 0000 4587 0000 4587 0000 4587 0000     .E...E...E...E..
  40a464:	4587 0000 4587 0000 4587 0000 4587 0000     .E...E...E...E..
  40a474:	4587 0000 4587 0000 4587 0000 4587 0000     .E...E...E...E..
  40a484:	4587 0000 4587 0000 4587 0000 4587 0000     .E...E...E...E..
  40a494:	4587 0000 4587 0000 4587 0000 4587 0000     .E...E...E...E..
  40a4a4:	4587 0000 4587 0000 4587 0000 4587 0000     .E...E...E...E..
  40a4b4:	4587 0000 4587 0000 4587 0000 4587 0000     .E...E...E...E..
  40a4c4:	4587 0000 4587 0000 4587 0000 4587 0000     .E...E...E...E..
  40a4d4:	4587 0000 4587 0000 4587 0000 4587 0000     .E...E...E...E..
  40a4e4:	4587 0000 4587 0000 4587 0000 4587 0000     .E...E...E...E..
  40a4f4:	4587 0000 4587 0000 4587 0000 4587 0000     .E...E...E...E..
  40a504:	4587 0000 4587 0000 4587 0000 4587 0000     .E...E...E...E..
  40a514:	4587 0000 4587 0000 4587 0000 4587 0000     .E...E...E...E..
  40a524:	4587 0000 4587 0000 4587 0000 4587 0000     .E...E...E...E..
  40a534:	4587 0000 4587 0000 4587 0000 4587 0000     .E...E...E...E..
  40a544:	4587 0000 4587 0000 4587 0000 4587 0000     .E...E...E...E..
  40a554:	4587 0000 4587 0000 4587 0000 4587 0000     .E...E...E...E..
  40a564:	4587 0000 4587 0000 4587 0000 4587 0000     .E...E...E...E..
  40a574:	4587 0000 4587 0000 4587 0000 4587 0000     .E...E...E...E..
  40a584:	4587 0000 4587 0000 4587 0000 4587 0000     .E...E...E...E..
  40a594:	4587 0000 4587 0000 4587 0000 4587 0000     .E...E...E...E..
  40a5a4:	4587 0000 4587 0000 4587 0000 4587 0000     .E...E...E...E..
  40a5b4:	4587 0000 4587 0000 4587 0000 4587 0000     .E...E...E...E..
  40a5c4:	4587 0000 4587 0000 4587 0000 4587 0000     .E...E...E...E..
  40a5d4:	4587 0000 4587 0000 4587 0000 4687 0002     .E...E...E...F..
  40a5e4:	73a6 0041 b6cf 009b e8f0 00e0 ffff 00ff     .sA.............
  40a5f4:	ffff 00ff ffff 00ff ffff 00ff ffff 00ff     ................
  40a604:	ffff 00ff ffff 00ff ffff 00ff ffff 00ff     ................
  40a614:	ffff 00ff ffff 00ff ffff 00ff ffff 00ff     ................
  40a624:	ffff 00ff ffff 00ff ffff 00ff ffff 00ff     ................
  40a634:	ffff 00ff ffff 00ff ffff 00ff ffff 00ff     ................
  40a644:	f9fb 00f7 cfdf 00bd 95b9 006d 5390 0014     ..........m..S..
  40a654:	4587 0000 4587 0000 4587 0000 4587 0000     .E...E...E...E..
  40a664:	4587 0000 4587 0000 4587 0000 4587 0000     .E...E...E...E..
  40a674:	4587 0000 4587 0000 4587 0000 4587 0000     .E...E...E...E..
  40a684:	4587 0000 4587 0000 4587 0000 4587 0000     .E...E...E...E..
  40a694:	4587 0000 4587 0000 4587 0000 4587 0000     .E...E...E...E..
  40a6a4:	4587 0000 4587 0000 4587 0000 4587 0000     .E...E...E...E..
  40a6b4:	4587 0000 4587 0000 4587 0000 a5c5 0083     .E...E...E......
  40a6c4:	ffff 00ff ffff 00ff ffff 00ff ffff 00ff     ................
  40a6d4:	ffff 00ff ffff 00ff ffff 00ff ffff 00ff     ................
  40a6e4:	ffff 00ff ffff 00ff ffff 00ff ffff 00ff     ................
  40a6f4:	ffff 00ff ffff 00ff ffff 00ff ffff 00ff     ................
  40a704:	ffff 00ff ffff 00ff ffff 00ff 7fac 004f     ..............O.
  40a714:	4587 0000 4587 0000 4587 0000 4587 0000     .E...E...E...E..
  40a724:	4587 0000 4587 0000 4587 0000 4587 0000     .E...E...E...E..
  40a734:	4587 0000 4587 0000 4587 0000 4587 0000     .E...E...E...E..
  40a744:	4587 0000 4587 0000 4587 0000 4587 0000     .E...E...E...E..
  40a754:	4587 0000 4587 0000 4587 0000 4587 0000     .E...E...E...E..
  40a764:	4587 0000 4587 0000 4587 0000 4587 0000     .E...E...E...E..
  40a774:	4587 0000 4587 0000 4587 0000 4587 0000     .E...E...E...E..
  40a784:	4587 0000 4587 0000 4587 0000 4587 0000     .E...E...E...E..
  40a794:	4587 0000 4587 0000 4587 0000 4587 0000     .E...E...E...E..
  40a7a4:	4587 0000 4587 0000 4587 0000 4587 0000     .E...E...E...E..
  40a7b4:	4587 0000 4587 0000 4587 0000 4587 0000     .E...E...E...E..
  40a7c4:	4587 0000 4587 0000 4587 0000 4587 0000     .E...E...E...E..
  40a7d4:	4587 0000 4587 0000 4587 0000 4587 0000     .E...E...E...E..
  40a7e4:	4587 0000 4587 0000 4587 0000 4587 0000     .E...E...E...E..
  40a7f4:	4587 0000 4587 0000 4587 0000 4587 0000     .E...E...E...E..
  40a804:	4587 0000 4587 0000 4587 0000 4587 0000     .E...E...E...E..
  40a814:	4587 0000 4587 0000 4587 0000 4587 0000     .E...E...E...E..
  40a824:	4587 0000 4587 0000 4587 0000 4587 0000     .E...E...E...E..
  40a834:	4587 0000 4587 0000 4587 0000 4587 0000     .E...E...E...E..
  40a844:	4587 0000 4587 0000 4587 0000 4587 0000     .E...E...E...E..
  40a854:	4587 0000 4587 0000 4587 0000 4587 0000     .E...E...E...E..
  40a864:	4587 0000 4587 0000 4587 0000 4587 0000     .E...E...E...E..
  40a874:	4587 0000 4587 0000 4587 0000 4587 0000     .E...E...E...E..
  40a884:	4587 0000 4587 0000 4587 0000 4587 0000     .E...E...E...E..
  40a894:	4587 0000 4587 0000 4587 0000 4587 0000     .E...E...E...E..
  40a8a4:	4587 0000 4587 0000 4587 0000 4587 0000     .E...E...E...E..
  40a8b4:	4587 0000 4587 0000 4587 0000 4587 0000     .E...E...E...E..
  40a8c4:	4587 0000 4587 0000 4587 0000 4587 0000     .E...E...E...E..
  40a8d4:	4587 0000 4587 0000 4587 0000 4587 0000     .E...E...E...E..
  40a8e4:	4587 0000 4587 0000 4587 0000 4587 0000     .E...E...E...E..
  40a8f4:	4587 0000 4587 0000 4587 0000 4587 0000     .E...E...E...E..
  40a904:	4587 0000 4587 0000 4587 0000 4587 0000     .E...E...E...E..
  40a914:	4587 0000 4587 0000 4587 0000 4587 0000     .E...E...E...E..
  40a924:	4587 0000 4587 0000 4587 0000 4587 0000     .E...E...E...E..
  40a934:	4587 0000 4587 0000 4587 0000 4587 0000     .E...E...E...E..
  40a944:	4587 0000 4587 0000 4587 0000 4587 0000     .E...E...E...E..
  40a954:	4587 0000 4587 0000 4587 0000 4587 0000     .E...E...E...E..
  40a964:	4587 0000 4587 0000 4587 0000 4587 0000     .E...E...E...E..
  40a974:	4587 0000 4587 0000 4587 0000 4587 0000     .E...E...E...E..
  40a984:	4587 0000 4587 0000 4587 0000 4587 0000     .E...E...E...E..
  40a994:	4587 0000 5f96 0023 a4c5 0084 e9f1 00e1     .E..._#.........
  40a9a4:	ffff 00ff ffff 00ff ffff 00ff ffff 00ff     ................
  40a9b4:	ffff 00ff ffff 00ff ffff 00ff ffff 00ff     ................
  40a9c4:	ffff 00ff ffff 00ff ffff 00ff ffff 00ff     ................
  40a9d4:	ffff 00ff ffff 00ff ffff 00ff ffff 00ff     ................
  40a9e4:	ffff 00ff ffff 00ff ffff 00ff ffff 00ff     ................
  40a9f4:	ffff 00ff ffff 00ff ffff 00ff ffff 00ff     ................
  40aa04:	ffff 00ff ffff 00ff ffff 00ff fbfd 00fa     ................
  40aa14:	c6d9 00b1 80ae 0052 4788 0003 4587 0000     ......R..G...E..
  40aa24:	4587 0000 4587 0000 4587 0000 4587 0000     .E...E...E...E..
  40aa34:	4587 0000 4587 0000 4587 0000 4587 0000     .E...E...E...E..
  40aa44:	4587 0000 4587 0000 4587 0000 4587 0000     .E...E...E...E..
  40aa54:	4587 0000 4587 0000 4587 0000 4587 0000     .E...E...E...E..
  40aa64:	4587 0000 4587 0000 4587 0000 4587 0000     .E...E...E...E..
  40aa74:	4587 0000 4587 0000 4587 0000 a5c5 0083     .E...E...E......
  40aa84:	ffff 00ff ffff 00ff ffff 00ff ffff 00ff     ................
  40aa94:	ffff 00ff ffff 00ff ffff 00ff ffff 00ff     ................
  40aaa4:	ffff 00ff ffff 00ff ffff 00ff ffff 00ff     ................
  40aab4:	ffff 00ff ffff 00ff ffff 00ff ffff 00ff     ................
  40aac4:	ffff 00ff ffff 00ff ffff 00ff 7fac 004f     ..............O.
  40aad4:	4587 0000 4587 0000 4587 0000 4587 0000     .E...E...E...E..
  40aae4:	4587 0000 4587 0000 4587 0000 4587 0000     .E...E...E...E..
  40aaf4:	4587 0000 4587 0000 4587 0000 4587 0000     .E...E...E...E..
  40ab04:	4587 0000 4587 0000 4587 0000 4587 0000     .E...E...E...E..
  40ab14:	4587 0000 4587 0000 4587 0000 4587 0000     .E...E...E...E..
  40ab24:	4587 0000 4587 0000 4587 0000 4587 0000     .E...E...E...E..
  40ab34:	4587 0000 4587 0000 4587 0000 4587 0000     .E...E...E...E..
  40ab44:	4587 0000 4587 0000 4587 0000 4587 0000     .E...E...E...E..
  40ab54:	4587 0000 4587 0000 4587 0000 4587 0000     .E...E...E...E..
  40ab64:	4587 0000 4587 0000 4587 0000 4587 0000     .E...E...E...E..
  40ab74:	4587 0000 4587 0000 4587 0000 4587 0000     .E...E...E...E..
  40ab84:	4587 0000 4587 0000 4587 0000 4587 0000     .E...E...E...E..
  40ab94:	4587 0000 4587 0000 4587 0000 4587 0000     .E...E...E...E..
  40aba4:	4587 0000 4587 0000 4587 0000 4587 0000     .E...E...E...E..
  40abb4:	4587 0000 4587 0000 4587 0000 4587 0000     .E...E...E...E..
  40abc4:	4587 0000 4587 0000 4587 0000 4587 0000     .E...E...E...E..
  40abd4:	4587 0000 4587 0000 4587 0000 4587 0000     .E...E...E...E..
  40abe4:	4587 0000 4587 0000 4587 0000 4587 0000     .E...E...E...E..
  40abf4:	4587 0000 4587 0000 4587 0000 4587 0000     .E...E...E...E..
  40ac04:	4587 0000 4587 0000 4587 0000 4587 0000     .E...E...E...E..
  40ac14:	4587 0000 4587 0000 4587 0000 4587 0000     .E...E...E...E..
  40ac24:	4587 0000 4587 0000 4587 0000 4587 0000     .E...E...E...E..
  40ac34:	4587 0000 4587 0000 4587 0000 4587 0000     .E...E...E...E..
  40ac44:	4587 0000 4587 0000 4587 0000 4587 0000     .E...E...E...E..
  40ac54:	4587 0000 4587 0000 4587 0000 4587 0000     .E...E...E...E..
  40ac64:	4587 0000 4587 0000 4587 0000 4587 0000     .E...E...E...E..
  40ac74:	4587 0000 4587 0000 4587 0000 4587 0000     .E...E...E...E..
  40ac84:	4587 0000 4587 0000 4587 0000 4587 0000     .E...E...E...E..
  40ac94:	4587 0000 4587 0000 4587 0000 4587 0000     .E...E...E...E..
  40aca4:	4587 0000 4587 0000 4587 0000 4587 0000     .E...E...E...E..
  40acb4:	4587 0000 4587 0000 4587 0000 4587 0000     .E...E...E...E..
  40acc4:	4587 0000 4587 0000 4587 0000 4587 0000     .E...E...E...E..
  40acd4:	4587 0000 4587 0000 4587 0000 4587 0000     .E...E...E...E..
  40ace4:	4587 0000 4587 0000 4587 0000 4587 0000     .E...E...E...E..
  40acf4:	4587 0000 4587 0000 4587 0000 4587 0000     .E...E...E...E..
  40ad04:	4587 0000 4587 0000 4587 0000 4587 0000     .E...E...E...E..
  40ad14:	4587 0000 4587 0000 4587 0000 4587 0000     .E...E...E...E..
  40ad24:	4587 0000 4587 0000 4587 0000 4587 0000     .E...E...E...E..
  40ad34:	4587 0000 4587 0000 4587 0000 4587 0000     .E...E...E...E..
  40ad44:	4587 0000 4587 0000 4587 0000 659b 002c     .E...E...E...e,.
  40ad54:	bad3 00a1 fcfd 00fb ffff 00ff ffff 00ff     ................
  40ad64:	ffff 00ff ffff 00ff ffff 00ff ffff 00ff     ................
  40ad74:	ffff 00ff ffff 00ff ffff 00ff ffff 00ff     ................
  40ad84:	ffff 00ff ffff 00ff ffff 00ff ffff 00ff     ................
  40ad94:	ffff 00ff ffff 00ff ffff 00ff ffff 00ff     ................
  40ada4:	ffff 00ff ffff 00ff ffff 00ff ffff 00ff     ................
  40adb4:	ffff 00ff ffff 00ff ffff 00ff ffff 00ff     ................
  40adc4:	ffff 00ff ffff 00ff ffff 00ff ffff 00ff     ................
  40add4:	ffff 00ff ffff 00ff e7ee 00de 95ba 006e     ..............n.
  40ade4:	4a8a 0008 4587 0000 4587 0000 4587 0000     .J...E...E...E..
  40adf4:	4587 0000 4587 0000 4587 0000 4587 0000     .E...E...E...E..
  40ae04:	4587 0000 4587 0000 4587 0000 4587 0000     .E...E...E...E..
  40ae14:	4587 0000 4587 0000 4587 0000 4587 0000     .E...E...E...E..
  40ae24:	4587 0000 4587 0000 4587 0000 4587 0000     .E...E...E...E..
  40ae34:	4587 0000 4587 0000 4587 0000 a5c5 0083     .E...E...E......
  40ae44:	ffff 00ff ffff 00ff ffff 00ff ffff 00ff     ................
  40ae54:	ffff 00ff ffff 00ff ffff 00ff ffff 00ff     ................
  40ae64:	ffff 00ff ffff 00ff ffff 00ff ffff 00ff     ................
  40ae74:	ffff 00ff ffff 00ff ffff 00ff ffff 00ff     ................
  40ae84:	ffff 00ff ffff 00ff ffff 00ff 7fac 004f     ..............O.
  40ae94:	4587 0000 4587 0000 4587 0000 4587 0000     .E...E...E...E..
  40aea4:	4587 0000 4587 0000 4587 0000 4587 0000     .E...E...E...E..
  40aeb4:	4587 0000 4587 0000 4587 0000 4587 0000     .E...E...E...E..
  40aec4:	4587 0000 4587 0000 4587 0000 4587 0000     .E...E...E...E..
  40aed4:	4587 0000 4587 0000 4587 0000 4587 0000     .E...E...E...E..
  40aee4:	4587 0000 4587 0000 4587 0000 4587 0000     .E...E...E...E..
  40aef4:	4587 0000 4587 0000 4587 0000 4587 0000     .E...E...E...E..
  40af04:	4587 0000 4587 0000 4587 0000 4587 0000     .E...E...E...E..
  40af14:	4587 0000 4587 0000 4587 0000 4587 0000     .E...E...E...E..
  40af24:	4587 0000 4587 0000 4587 0000 4587 0000     .E...E...E...E..
  40af34:	4587 0000 4587 0000 4587 0000 4587 0000     .E...E...E...E..
  40af44:	4587 0000 4587 0000 4587 0000 4587 0000     .E...E...E...E..
  40af54:	4587 0000 4587 0000 4587 0000 4587 0000     .E...E...E...E..
  40af64:	4587 0000 4587 0000 4587 0000 4587 0000     .E...E...E...E..
  40af74:	4587 0000 4587 0000 4587 0000 4587 0000     .E...E...E...E..
  40af84:	4587 0000 4587 0000 4587 0000 4587 0000     .E...E...E...E..
  40af94:	4587 0000 4587 0000 4587 0000 4587 0000     .E...E...E...E..
  40afa4:	4587 0000 4587 0000 4587 0000 4587 0000     .E...E...E...E..
  40afb4:	4587 0000 4587 0000 4587 0000 4587 0000     .E...E...E...E..
  40afc4:	4587 0000 4587 0000 4587 0000 4587 0000     .E...E...E...E..
  40afd4:	4587 0000 4587 0000 4587 0000 4587 0000     .E...E...E...E..
  40afe4:	4587 0000 4587 0000 4587 0000 4587 0000     .E...E...E...E..
  40aff4:	4587 0000 4587 0000 4587 0000 4587 0000     .E...E...E...E..
  40b004:	4587 0000 4587 0000 4587 0000 4587 0000     .E...E...E...E..
  40b014:	4587 0000 4587 0000 4587 0000 4587 0000     .E...E...E...E..
  40b024:	4587 0000 4587 0000 4587 0000 4587 0000     .E...E...E...E..
  40b034:	4587 0000 4587 0000 4587 0000 4587 0000     .E...E...E...E..
  40b044:	4587 0000 4587 0000 4587 0000 4587 0000     .E...E...E...E..
  40b054:	4587 0000 4587 0000 4587 0000 4587 0000     .E...E...E...E..
  40b064:	4587 0000 4587 0000 4587 0000 4587 0000     .E...E...E...E..
  40b074:	4587 0000 4587 0000 4587 0000 4587 0000     .E...E...E...E..
  40b084:	4587 0000 4587 0000 4587 0000 4587 0000     .E...E...E...E..
  40b094:	4587 0000 4587 0000 4587 0000 4587 0000     .E...E...E...E..
  40b0a4:	4587 0000 4587 0000 4587 0000 4587 0000     .E...E...E...E..
  40b0b4:	4587 0000 4587 0000 4587 0000 4587 0000     .E...E...E...E..
  40b0c4:	4587 0000 4587 0000 4587 0000 4587 0000     .E...E...E...E..
  40b0d4:	4587 0000 4587 0000 4587 0000 4587 0000     .E...E...E...E..
  40b0e4:	4587 0000 4587 0000 4587 0000 4587 0000     .E...E...E...E..
  40b0f4:	4587 0000 4587 0000 4587 0000 4587 0000     .E...E...E...E..
  40b104:	4587 0000 6299 0028 c5da 00b0 feff 00fe     .E...b(.........
  40b114:	ffff 00ff ffff 00ff ffff 00ff ffff 00ff     ................
  40b124:	ffff 00ff ffff 00ff ffff 00ff ffff 00ff     ................
  40b134:	ffff 00ff ffff 00ff ffff 00ff ffff 00ff     ................
  40b144:	ffff 00ff ffff 00ff ffff 00ff ffff 00ff     ................
  40b154:	ffff 00ff ffff 00ff ffff 00ff ffff 00ff     ................
  40b164:	ffff 00ff ffff 00ff ffff 00ff ffff 00ff     ................
  40b174:	ffff 00ff ffff 00ff ffff 00ff ffff 00ff     ................
  40b184:	ffff 00ff ffff 00ff ffff 00ff ffff 00ff     ................
  40b194:	ffff 00ff ffff 00ff ffff 00ff ffff 00ff     ................
  40b1a4:	e9f1 00e2 90b6 0067 4687 0002 4587 0000     ......g..F...E..
  40b1b4:	4587 0000 4587 0000 4587 0000 4587 0000     .E...E...E...E..
  40b1c4:	4587 0000 4587 0000 4587 0000 4587 0000     .E...E...E...E..
  40b1d4:	4587 0000 4587 0000 4587 0000 4587 0000     .E...E...E...E..
  40b1e4:	4587 0000 4587 0000 4587 0000 4587 0000     .E...E...E...E..
  40b1f4:	4587 0000 4587 0000 4587 0000 a5c5 0083     .E...E...E......
  40b204:	ffff 00ff ffff 00ff ffff 00ff ffff 00ff     ................
  40b214:	ffff 00ff ffff 00ff ffff 00ff ffff 00ff     ................
  40b224:	ffff 00ff ffff 00ff ffff 00ff ffff 00ff     ................
  40b234:	ffff 00ff ffff 00ff ffff 00ff ffff 00ff     ................
  40b244:	ffff 00ff ffff 00ff ffff 00ff 7fac 004f     ..............O.
  40b254:	4587 0000 4587 0000 4587 0000 4587 0000     .E...E...E...E..
  40b264:	4587 0000 4587 0000 4587 0000 4587 0000     .E...E...E...E..
  40b274:	4587 0000 4587 0000 4587 0000 4587 0000     .E...E...E...E..
  40b284:	4587 0000 4587 0000 4587 0000 4587 0000     .E...E...E...E..
  40b294:	4587 0000 4587 0000 4587 0000 4587 0000     .E...E...E...E..
  40b2a4:	4587 0000 4587 0000 4587 0000 4587 0000     .E...E...E...E..
  40b2b4:	4587 0000 4587 0000 4587 0000 4587 0000     .E...E...E...E..
  40b2c4:	4587 0000 4587 0000 4587 0000 4587 0000     .E...E...E...E..
  40b2d4:	4587 0000 4587 0000 4587 0000 4587 0000     .E...E...E...E..
  40b2e4:	4587 0000 4587 0000 4587 0000 4587 0000     .E...E...E...E..
  40b2f4:	4587 0000 4587 0000 4587 0000 4587 0000     .E...E...E...E..
  40b304:	4587 0000 4587 0000 4587 0000 4587 0000     .E...E...E...E..
  40b314:	4587 0000 4587 0000 4587 0000 4587 0000     .E...E...E...E..
  40b324:	4587 0000 4587 0000 4587 0000 4587 0000     .E...E...E...E..
  40b334:	4587 0000 4587 0000 4587 0000 4587 0000     .E...E...E...E..
  40b344:	4587 0000 4587 0000 4587 0000 4587 0000     .E...E...E...E..
  40b354:	4587 0000 4587 0000 4587 0000 4587 0000     .E...E...E...E..
  40b364:	4587 0000 4587 0000 4587 0000 4587 0000     .E...E...E...E..
  40b374:	4587 0000 4587 0000 4587 0000 4587 0000     .E...E...E...E..
  40b384:	4587 0000 4587 0000 4587 0000 4587 0000     .E...E...E...E..
  40b394:	4587 0000 4587 0000 4587 0000 4587 0000     .E...E...E...E..
  40b3a4:	4587 0000 4587 0000 4587 0000 4587 0000     .E...E...E...E..
  40b3b4:	4587 0000 4587 0000 4587 0000 4587 0000     .E...E...E...E..
  40b3c4:	4587 0000 4587 0000 4587 0000 4587 0000     .E...E...E...E..
  40b3d4:	4587 0000 4587 0000 4587 0000 4587 0000     .E...E...E...E..
  40b3e4:	4587 0000 4587 0000 4587 0000 4587 0000     .E...E...E...E..
  40b3f4:	4587 0000 4587 0000 4587 0000 4587 0000     .E...E...E...E..
  40b404:	4587 0000 4587 0000 4587 0000 4587 0000     .E...E...E...E..
  40b414:	4587 0000 4587 0000 4587 0000 4587 0000     .E...E...E...E..
  40b424:	4587 0000 4587 0000 4587 0000 4587 0000     .E...E...E...E..
  40b434:	4587 0000 4587 0000 4587 0000 4587 0000     .E...E...E...E..
  40b444:	4587 0000 4587 0000 4587 0000 4587 0000     .E...E...E...E..
  40b454:	4587 0000 4587 0000 4587 0000 4587 0000     .E...E...E...E..
  40b464:	4587 0000 4587 0000 4587 0000 4587 0000     .E...E...E...E..
  40b474:	4587 0000 4587 0000 4587 0000 4587 0000     .E...E...E...E..
  40b484:	4587 0000 4587 0000 4587 0000 4587 0000     .E...E...E...E..
  40b494:	4587 0000 4587 0000 4587 0000 4587 0000     .E...E...E...E..
  40b4a4:	4587 0000 4587 0000 4587 0000 4587 0000     .E...E...E...E..
  40b4b4:	4587 0000 4587 0000 4587 0000 4b8b 0009     .E...E...E...K..
  40b4c4:	a2c2 007f fafc 00f8 ffff 00ff ffff 00ff     ................
  40b4d4:	ffff 00ff ffff 00ff ffff 00ff ffff 00ff     ................
  40b4e4:	ffff 00ff ffff 00ff ffff 00ff ffff 00ff     ................
  40b4f4:	ffff 00ff ffff 00ff ffff 00ff ffff 00ff     ................
  40b504:	ffff 00ff ffff 00ff ffff 00ff ffff 00ff     ................
  40b514:	ffff 00ff ffff 00ff ffff 00ff ffff 00ff     ................
  40b524:	ffff 00ff ffff 00ff ffff 00ff ffff 00ff     ................
  40b534:	ffff 00ff ffff 00ff ffff 00ff ffff 00ff     ................
  40b544:	ffff 00ff ffff 00ff ffff 00ff ffff 00ff     ................
  40b554:	ffff 00ff ffff 00ff ffff 00ff ffff 00ff     ................
  40b564:	ffff 00ff ffff 00ff dbe7 00ce 6da1 0038     .............m8.
  40b574:	4587 0000 4587 0000 4587 0000 4587 0000     .E...E...E...E..
  40b584:	4587 0000 4587 0000 4587 0000 4587 0000     .E...E...E...E..
  40b594:	4587 0000 4587 0000 4587 0000 4587 0000     .E...E...E...E..
  40b5a4:	4587 0000 4587 0000 4587 0000 4587 0000     .E...E...E...E..
  40b5b4:	4587 0000 4587 0000 4587 0000 a5c5 0083     .E...E...E......
  40b5c4:	ffff 00ff ffff 00ff ffff 00ff ffff 00ff     ................
  40b5d4:	ffff 00ff ffff 00ff ffff 00ff ffff 00ff     ................
  40b5e4:	ffff 00ff ffff 00ff ffff 00ff ffff 00ff     ................
  40b5f4:	ffff 00ff ffff 00ff ffff 00ff ffff 00ff     ................
  40b604:	ffff 00ff ffff 00ff ffff 00ff 7fac 004f     ..............O.
  40b614:	4587 0000 4587 0000 4587 0000 4587 0000     .E...E...E...E..
  40b624:	4587 0000 4587 0000 4587 0000 4587 0000     .E...E...E...E..
  40b634:	4587 0000 4587 0000 4587 0000 4587 0000     .E...E...E...E..
  40b644:	4587 0000 4587 0000 4587 0000 4587 0000     .E...E...E...E..
  40b654:	4587 0000 4587 0000 4587 0000 4587 0000     .E...E...E...E..
  40b664:	4587 0000 4587 0000 4587 0000 4587 0000     .E...E...E...E..
  40b674:	4587 0000 4587 0000 4587 0000 4587 0000     .E...E...E...E..
  40b684:	4587 0000 4587 0000 4587 0000 4587 0000     .E...E...E...E..
  40b694:	4587 0000 4587 0000 4587 0000 4587 0000     .E...E...E...E..
  40b6a4:	4587 0000 4587 0000 4587 0000 4587 0000     .E...E...E...E..
  40b6b4:	4587 0000 4587 0000 4587 0000 4587 0000     .E...E...E...E..
  40b6c4:	4587 0000 4587 0000 4587 0000 4587 0000     .E...E...E...E..
  40b6d4:	4587 0000 4587 0000 4587 0000 4587 0000     .E...E...E...E..
  40b6e4:	4587 0000 4587 0000 4587 0000 4587 0000     .E...E...E...E..
  40b6f4:	4587 0000 4587 0000 4587 0000 4587 0000     .E...E...E...E..
  40b704:	4587 0000 4587 0000 4587 0000 4587 0000     .E...E...E...E..
  40b714:	4587 0000 4587 0000 4587 0000 4587 0000     .E...E...E...E..
  40b724:	4587 0000 4587 0000 4587 0000 4587 0000     .E...E...E...E..
  40b734:	4587 0000 4587 0000 4587 0000 4587 0000     .E...E...E...E..
  40b744:	4587 0000 4587 0000 4587 0000 4587 0000     .E...E...E...E..
  40b754:	4587 0000 4587 0000 4587 0000 4587 0000     .E...E...E...E..
  40b764:	4587 0000 4587 0000 4587 0000 4587 0000     .E...E...E...E..
  40b774:	4587 0000 4587 0000 4587 0000 4587 0000     .E...E...E...E..
  40b784:	4587 0000 4587 0000 4587 0000 4587 0000     .E...E...E...E..
  40b794:	4587 0000 4587 0000 4587 0000 4587 0000     .E...E...E...E..
  40b7a4:	4587 0000 4587 0000 4587 0000 4587 0000     .E...E...E...E..
  40b7b4:	4587 0000 4587 0000 4587 0000 4587 0000     .E...E...E...E..
  40b7c4:	4587 0000 4587 0000 4587 0000 4587 0000     .E...E...E...E..
  40b7d4:	4587 0000 4587 0000 4587 0000 4587 0000     .E...E...E...E..
  40b7e4:	4587 0000 4587 0000 4587 0000 4587 0000     .E...E...E...E..
  40b7f4:	4587 0000 4587 0000 4587 0000 4587 0000     .E...E...E...E..
  40b804:	4587 0000 4587 0000 4587 0000 4587 0000     .E...E...E...E..
  40b814:	4587 0000 4587 0000 4587 0000 4587 0000     .E...E...E...E..
  40b824:	4587 0000 4587 0000 4587 0000 4587 0000     .E...E...E...E..
  40b834:	4587 0000 4587 0000 4587 0000 4587 0000     .E...E...E...E..
  40b844:	4587 0000 4587 0000 4587 0000 4587 0000     .E...E...E...E..
  40b854:	4587 0000 4587 0000 4587 0000 4587 0000     .E...E...E...E..
  40b864:	4587 0000 4587 0000 4587 0000 4587 0000     .E...E...E...E..
  40b874:	4587 0000 4587 0000 7aa8 0048 e8f0 00e0     .E...E...zH.....
  40b884:	ffff 00ff ffff 00ff ffff 00ff ffff 00ff     ................
  40b894:	ffff 00ff ffff 00ff ffff 00ff ffff 00ff     ................
  40b8a4:	ffff 00ff ffff 00ff ffff 00ff ffff 00ff     ................
  40b8b4:	ffff 00ff ffff 00ff ffff 00ff ffff 00ff     ................
  40b8c4:	ffff 00ff ffff 00ff ffff 00ff ffff 00ff     ................
  40b8d4:	ffff 00ff ffff 00ff ffff 00ff ffff 00ff     ................
  40b8e4:	ffff 00ff ffff 00ff ffff 00ff ffff 00ff     ................
  40b8f4:	ffff 00ff ffff 00ff ffff 00ff ffff 00ff     ................
  40b904:	ffff 00ff ffff 00ff ffff 00ff ffff 00ff     ................
  40b914:	ffff 00ff ffff 00ff ffff 00ff ffff 00ff     ................
  40b924:	ffff 00ff ffff 00ff ffff 00ff fefe 00fd     ................
  40b934:	b2ce 0096 4d8c 000b 4587 0000 4587 0000     .....M...E...E..
  40b944:	4587 0000 4587 0000 4587 0000 4587 0000     .E...E...E...E..
  40b954:	4587 0000 4587 0000 4587 0000 4587 0000     .E...E...E...E..
  40b964:	4587 0000 4587 0000 4587 0000 4587 0000     .E...E...E...E..
  40b974:	4587 0000 4587 0000 4587 0000 a5c5 0083     .E...E...E......
  40b984:	ffff 00ff ffff 00ff ffff 00ff ffff 00ff     ................
  40b994:	ffff 00ff ffff 00ff ffff 00ff ffff 00ff     ................
  40b9a4:	ffff 00ff ffff 00ff ffff 00ff ffff 00ff     ................
  40b9b4:	ffff 00ff ffff 00ff ffff 00ff ffff 00ff     ................
  40b9c4:	ffff 00ff ffff 00ff ffff 00ff 7fac 004f     ..............O.
  40b9d4:	4587 0000 4587 0000 4587 0000 4587 0000     .E...E...E...E..
  40b9e4:	4587 0000 4587 0000 4587 0000 4587 0000     .E...E...E...E..
  40b9f4:	4587 0000 4587 0000 4587 0000 4587 0000     .E...E...E...E..
  40ba04:	4587 0000 4587 0000 4587 0000 4587 0000     .E...E...E...E..
  40ba14:	4587 0000 4587 0000 4587 0000 4587 0000     .E...E...E...E..
  40ba24:	4587 0000 4587 0000 4587 0000 4587 0000     .E...E...E...E..
  40ba34:	4587 0000 4587 0000 4587 0000 4587 0000     .E...E...E...E..
  40ba44:	4587 0000 4587 0000 4587 0000 4587 0000     .E...E...E...E..
  40ba54:	4587 0000 4587 0000 4587 0000 4587 0000     .E...E...E...E..
  40ba64:	4587 0000 4587 0000 4587 0000 4587 0000     .E...E...E...E..
  40ba74:	4587 0000 4587 0000 4587 0000 4587 0000     .E...E...E...E..
  40ba84:	4587 0000 4587 0000 4587 0000 4587 0000     .E...E...E...E..
  40ba94:	4587 0000 4587 0000 4587 0000 4587 0000     .E...E...E...E..
  40baa4:	4587 0000 4587 0000 4587 0000 4587 0000     .E...E...E...E..
  40bab4:	4587 0000 4587 0000 4587 0000 4587 0000     .E...E...E...E..
  40bac4:	4587 0000 4587 0000 4587 0000 4587 0000     .E...E...E...E..
  40bad4:	4587 0000 4587 0000 4587 0000 4587 0000     .E...E...E...E..
  40bae4:	4587 0000 4587 0000 4587 0000 4587 0000     .E...E...E...E..
  40baf4:	4587 0000 4587 0000 4587 0000 4587 0000     .E...E...E...E..
  40bb04:	4587 0000 4587 0000 4587 0000 4587 0000     .E...E...E...E..
  40bb14:	4587 0000 4587 0000 4587 0000 4587 0000     .E...E...E...E..
  40bb24:	4587 0000 4587 0000 4587 0000 4587 0000     .E...E...E...E..
  40bb34:	4587 0000 4587 0000 4587 0000 4587 0000     .E...E...E...E..
  40bb44:	4587 0000 4587 0000 4587 0000 4587 0000     .E...E...E...E..
  40bb54:	4587 0000 4587 0000 4587 0000 4587 0000     .E...E...E...E..
  40bb64:	4587 0000 4587 0000 4587 0000 4587 0000     .E...E...E...E..
  40bb74:	4587 0000 4587 0000 4587 0000 4587 0000     .E...E...E...E..
  40bb84:	4587 0000 4587 0000 4587 0000 4587 0000     .E...E...E...E..
  40bb94:	4587 0000 4587 0000 4587 0000 4587 0000     .E...E...E...E..
  40bba4:	4587 0000 4587 0000 4587 0000 4587 0000     .E...E...E...E..
  40bbb4:	4587 0000 4587 0000 4587 0000 4587 0000     .E...E...E...E..
  40bbc4:	4587 0000 4587 0000 4587 0000 4587 0000     .E...E...E...E..
  40bbd4:	4587 0000 4587 0000 4587 0000 4587 0000     .E...E...E...E..
  40bbe4:	4587 0000 4587 0000 4587 0000 4587 0000     .E...E...E...E..
  40bbf4:	4587 0000 4587 0000 4587 0000 4587 0000     .E...E...E...E..
  40bc04:	4587 0000 4587 0000 4587 0000 4587 0000     .E...E...E...E..
  40bc14:	4587 0000 4587 0000 4587 0000 4587 0000     .E...E...E...E..
  40bc24:	4587 0000 4587 0000 4587 0000 4587 0000     .E...E...E...E..
  40bc34:	4788 0004 a2c2 007f fefe 00fd ffff 00ff     .G..............
  40bc44:	ffff 00ff ffff 00ff ffff 00ff ffff 00ff     ................
  40bc54:	ffff 00ff ffff 00ff ffff 00ff ffff 00ff     ................
  40bc64:	ffff 00ff ffff 00ff ffff 00ff ffff 00ff     ................
  40bc74:	ffff 00ff ffff 00ff ffff 00ff ffff 00ff     ................
  40bc84:	ffff 00ff ffff 00ff ffff 00ff ffff 00ff     ................
  40bc94:	ffff 00ff ffff 00ff ffff 00ff ffff 00ff     ................
  40bca4:	ffff 00ff ffff 00ff ffff 00ff ffff 00ff     ................
  40bcb4:	ffff 00ff ffff 00ff ffff 00ff ffff 00ff     ................
  40bcc4:	ffff 00ff ffff 00ff ffff 00ff ffff 00ff     ................
  40bcd4:	ffff 00ff ffff 00ff ffff 00ff ffff 00ff     ................
  40bce4:	ffff 00ff ffff 00ff ffff 00ff ffff 00ff     ................
  40bcf4:	ffff 00ff e1ec 00d7 679c 002e 4587 0000     .........g...E..
  40bd04:	4587 0000 4587 0000 4587 0000 4587 0000     .E...E...E...E..
  40bd14:	4587 0000 4587 0000 4587 0000 4587 0000     .E...E...E...E..
  40bd24:	4587 0000 4587 0000 4587 0000 4587 0000     .E...E...E...E..
  40bd34:	4587 0000 4587 0000 4587 0000 a5c5 0083     .E...E...E......
  40bd44:	ffff 00ff ffff 00ff ffff 00ff ffff 00ff     ................
  40bd54:	ffff 00ff ffff 00ff ffff 00ff ffff 00ff     ................
  40bd64:	ffff 00ff ffff 00ff ffff 00ff ffff 00ff     ................
  40bd74:	ffff 00ff ffff 00ff ffff 00ff ffff 00ff     ................
  40bd84:	ffff 00ff ffff 00ff ffff 00ff 7fac 004f     ..............O.
  40bd94:	4587 0000 4587 0000 4587 0000 4587 0000     .E...E...E...E..
  40bda4:	4587 0000 4587 0000 4587 0000 4587 0000     .E...E...E...E..
  40bdb4:	4587 0000 4587 0000 4587 0000 4587 0000     .E...E...E...E..
  40bdc4:	4587 0000 4587 0000 4587 0000 4587 0000     .E...E...E...E..
  40bdd4:	4587 0000 4587 0000 4587 0000 4587 0000     .E...E...E...E..
  40bde4:	4587 0000 4587 0000 4587 0000 4587 0000     .E...E...E...E..
  40bdf4:	4587 0000 4587 0000 4587 0000 4587 0000     .E...E...E...E..
  40be04:	4587 0000 4587 0000 4587 0000 4587 0000     .E...E...E...E..
  40be14:	4587 0000 4587 0000 4587 0000 4587 0000     .E...E...E...E..
  40be24:	4587 0000 4587 0000 4587 0000 4587 0000     .E...E...E...E..
  40be34:	4587 0000 4587 0000 4587 0000 4587 0000     .E...E...E...E..
  40be44:	4587 0000 4587 0000 4587 0000 4587 0000     .E...E...E...E..
  40be54:	4587 0000 4587 0000 4587 0000 4587 0000     .E...E...E...E..
  40be64:	4587 0000 4587 0000 4587 0000 4587 0000     .E...E...E...E..
  40be74:	4587 0000 4587 0000 4587 0000 4587 0000     .E...E...E...E..
  40be84:	4587 0000 4587 0000 4587 0000 4587 0000     .E...E...E...E..
  40be94:	4587 0000 4587 0000 4587 0000 4587 0000     .E...E...E...E..
  40bea4:	4587 0000 4587 0000 4587 0000 4587 0000     .E...E...E...E..
  40beb4:	4587 0000 4587 0000 4587 0000 4587 0000     .E...E...E...E..
  40bec4:	4587 0000 4587 0000 4587 0000 4587 0000     .E...E...E...E..
  40bed4:	4587 0000 4587 0000 4587 0000 4587 0000     .E...E...E...E..
  40bee4:	4587 0000 4587 0000 4587 0000 4587 0000     .E...E...E...E..
  40bef4:	4587 0000 4587 0000 4587 0000 4587 0000     .E...E...E...E..
  40bf04:	4587 0000 4587 0000 4587 0000 4587 0000     .E...E...E...E..
  40bf14:	4587 0000 4587 0000 4587 0000 4587 0000     .E...E...E...E..
  40bf24:	4587 0000 4587 0000 4587 0000 4587 0000     .E...E...E...E..
  40bf34:	4587 0000 4587 0000 4587 0000 4587 0000     .E...E...E...E..
  40bf44:	4587 0000 4587 0000 4587 0000 4587 0000     .E...E...E...E..
  40bf54:	4587 0000 4587 0000 4587 0000 4587 0000     .E...E...E...E..
  40bf64:	4587 0000 4587 0000 4587 0000 4587 0000     .E...E...E...E..
  40bf74:	4587 0000 4587 0000 4587 0000 4587 0000     .E...E...E...E..
  40bf84:	4587 0000 4587 0000 4587 0000 4587 0000     .E...E...E...E..
  40bf94:	4587 0000 4587 0000 4587 0000 4587 0000     .E...E...E...E..
  40bfa4:	4587 0000 4587 0000 4587 0000 4587 0000     .E...E...E...E..
  40bfb4:	4587 0000 4587 0000 4587 0000 4587 0000     .E...E...E...E..
  40bfc4:	4587 0000 4587 0000 4587 0000 4587 0000     .E...E...E...E..
  40bfd4:	4587 0000 4587 0000 4587 0000 4587 0000     .E...E...E...E..
  40bfe4:	4587 0000 4587 0000 4587 0000 5a95 001e     .E...E...E...Z..
  40bff4:	d4e3 00c6 ffff 00ff ffff 00ff ffff 00ff     ................
  40c004:	ffff 00ff ffff 00ff ffff 00ff ffff 00ff     ................
  40c014:	ffff 00ff ffff 00ff ffff 00ff ffff 00ff     ................
  40c024:	ffff 00ff ffff 00ff ffff 00ff ffff 00ff     ................
  40c034:	ffff 00ff ffff 00ff ffff 00ff ffff 00ff     ................
  40c044:	ffff 00ff ffff 00ff ffff 00ff ffff 00ff     ................
  40c054:	ffff 00ff ffff 00ff ffff 00ff ffff 00ff     ................
  40c064:	ffff 00ff ffff 00ff ffff 00ff ffff 00ff     ................
  40c074:	ffff 00ff ffff 00ff ffff 00ff ffff 00ff     ................
  40c084:	ffff 00ff ffff 00ff ffff 00ff ffff 00ff     ................
  40c094:	ffff 00ff ffff 00ff ffff 00ff ffff 00ff     ................
  40c0a4:	ffff 00ff ffff 00ff ffff 00ff ffff 00ff     ................
  40c0b4:	ffff 00ff ffff 00ff f8fb 00f6 8db6 0063     ..............c.
  40c0c4:	4587 0000 4587 0000 4587 0000 4587 0000     .E...E...E...E..
  40c0d4:	4587 0000 4587 0000 4587 0000 4587 0000     .E...E...E...E..
  40c0e4:	4587 0000 4587 0000 4587 0000 4587 0000     .E...E...E...E..
  40c0f4:	4587 0000 4587 0000 4587 0000 a5c5 0083     .E...E...E......
  40c104:	ffff 00ff ffff 00ff ffff 00ff ffff 00ff     ................
  40c114:	ffff 00ff ffff 00ff ffff 00ff ffff 00ff     ................
  40c124:	ffff 00ff ffff 00ff ffff 00ff ffff 00ff     ................
  40c134:	ffff 00ff ffff 00ff ffff 00ff ffff 00ff     ................
  40c144:	ffff 00ff ffff 00ff ffff 00ff 7fac 004f     ..............O.
  40c154:	4587 0000 4587 0000 4587 0000 4587 0000     .E...E...E...E..
  40c164:	4587 0000 4587 0000 4587 0000 4587 0000     .E...E...E...E..
  40c174:	4587 0000 4587 0000 4587 0000 4587 0000     .E...E...E...E..
  40c184:	4587 0000 4587 0000 4587 0000 4587 0000     .E...E...E...E..
  40c194:	4587 0000 4587 0000 4587 0000 4587 0000     .E...E...E...E..
  40c1a4:	4587 0000 4587 0000 4587 0000 4587 0000     .E...E...E...E..
  40c1b4:	4587 0000 4587 0000 4587 0000 4587 0000     .E...E...E...E..
  40c1c4:	4587 0000 4587 0000 4587 0000 4587 0000     .E...E...E...E..
  40c1d4:	4587 0000 4587 0000 4587 0000 4587 0000     .E...E...E...E..
  40c1e4:	4587 0000 4587 0000 4587 0000 4587 0000     .E...E...E...E..
  40c1f4:	4587 0000 4587 0000 4587 0000 4587 0000     .E...E...E...E..
  40c204:	4587 0000 4587 0000 4587 0000 4587 0000     .E...E...E...E..
  40c214:	4587 0000 4587 0000 4587 0000 4587 0000     .E...E...E...E..
  40c224:	4587 0000 4587 0000 4587 0000 4587 0000     .E...E...E...E..
  40c234:	4587 0000 4587 0000 4587 0000 4587 0000     .E...E...E...E..
  40c244:	4587 0000 4587 0000 4587 0000 4587 0000     .E...E...E...E..
  40c254:	4587 0000 4587 0000 4587 0000 4587 0000     .E...E...E...E..
  40c264:	4587 0000 4587 0000 4587 0000 4587 0000     .E...E...E...E..
  40c274:	4587 0000 4587 0000 4587 0000 4587 0000     .E...E...E...E..
  40c284:	4587 0000 4587 0000 4587 0000 4587 0000     .E...E...E...E..
  40c294:	4587 0000 4587 0000 4587 0000 4587 0000     .E...E...E...E..
  40c2a4:	4587 0000 4587 0000 4587 0000 4587 0000     .E...E...E...E..
  40c2b4:	4587 0000 4587 0000 4587 0000 4587 0000     .E...E...E...E..
  40c2c4:	4587 0000 4587 0000 4587 0000 4587 0000     .E...E...E...E..
  40c2d4:	4587 0000 4587 0000 4587 0000 4587 0000     .E...E...E...E..
  40c2e4:	4587 0000 4587 0000 4587 0000 4587 0000     .E...E...E...E..
  40c2f4:	4587 0000 4587 0000 4587 0000 4587 0000     .E...E...E...E..
  40c304:	4587 0000 4587 0000 4587 0000 4587 0000     .E...E...E...E..
  40c314:	4587 0000 4587 0000 4587 0000 4587 0000     .E...E...E...E..
  40c324:	4587 0000 4587 0000 4587 0000 4587 0000     .E...E...E...E..
  40c334:	4587 0000 4587 0000 4587 0000 4587 0000     .E...E...E...E..
  40c344:	4587 0000 4587 0000 4587 0000 4587 0000     .E...E...E...E..
  40c354:	4587 0000 4587 0000 4587 0000 4587 0000     .E...E...E...E..
  40c364:	4587 0000 4587 0000 4587 0000 4587 0000     .E...E...E...E..
  40c374:	4587 0000 4587 0000 4587 0000 4587 0000     .E...E...E...E..
  40c384:	4587 0000 4587 0000 4587 0000 4587 0000     .E...E...E...E..
  40c394:	4587 0000 4587 0000 4587 0000 4587 0000     .E...E...E...E..
  40c3a4:	4587 0000 4587 0000 659b 002c eaf1 00e4     .E...E...e,.....
  40c3b4:	ffff 00ff ffff 00ff ffff 00ff ffff 00ff     ................
  40c3c4:	ffff 00ff ffff 00ff ffff 00ff ffff 00ff     ................
  40c3d4:	ffff 00ff ffff 00ff ffff 00ff ffff 00ff     ................
  40c3e4:	ffff 00ff ffff 00ff ffff 00ff ffff 00ff     ................
  40c3f4:	ffff 00ff ffff 00ff ffff 00ff ffff 00ff     ................
  40c404:	ffff 00ff ffff 00ff ffff 00ff ffff 00ff     ................
  40c414:	ffff 00ff ffff 00ff ffff 00ff ffff 00ff     ................
  40c424:	ffff 00ff ffff 00ff ffff 00ff ffff 00ff     ................
  40c434:	ffff 00ff ffff 00ff ffff 00ff ffff 00ff     ................
  40c444:	ffff 00ff ffff 00ff ffff 00ff ffff 00ff     ................
  40c454:	ffff 00ff ffff 00ff ffff 00ff ffff 00ff     ................
  40c464:	ffff 00ff ffff 00ff ffff 00ff ffff 00ff     ................
  40c474:	ffff 00ff ffff 00ff ffff 00ff ffff 00ff     ................
  40c484:	aecb 0090 4687 0002 4587 0000 4587 0000     .....F...E...E..
  40c494:	4587 0000 4587 0000 4587 0000 4587 0000     .E...E...E...E..
  40c4a4:	4587 0000 4587 0000 4587 0000 4587 0000     .E...E...E...E..
  40c4b4:	4587 0000 4587 0000 4587 0000 a5c5 0083     .E...E...E......
  40c4c4:	ffff 00ff ffff 00ff ffff 00ff ffff 00ff     ................
  40c4d4:	ffff 00ff ffff 00ff ffff 00ff ffff 00ff     ................
  40c4e4:	ffff 00ff ffff 00ff ffff 00ff ffff 00ff     ................
  40c4f4:	ffff 00ff ffff 00ff ffff 00ff ffff 00ff     ................
  40c504:	ffff 00ff ffff 00ff ffff 00ff 7fac 004f     ..............O.
  40c514:	4587 0000 4587 0000 4587 0000 4587 0000     .E...E...E...E..
  40c524:	4587 0000 4587 0000 4587 0000 4587 0000     .E...E...E...E..
  40c534:	4587 0000 4587 0000 4587 0000 4587 0000     .E...E...E...E..
  40c544:	4587 0000 4587 0000 4587 0000 4587 0000     .E...E...E...E..
  40c554:	4587 0000 4587 0000 4587 0000 4587 0000     .E...E...E...E..
  40c564:	4587 0000 4587 0000 4587 0000 4587 0000     .E...E...E...E..
  40c574:	4587 0000 4587 0000 4587 0000 4587 0000     .E...E...E...E..
  40c584:	4587 0000 4587 0000 4587 0000 4587 0000     .E...E...E...E..
  40c594:	4587 0000 4587 0000 4587 0000 4587 0000     .E...E...E...E..
  40c5a4:	4587 0000 4587 0000 4587 0000 4587 0000     .E...E...E...E..
  40c5b4:	4587 0000 4587 0000 4587 0000 4587 0000     .E...E...E...E..
  40c5c4:	4587 0000 4587 0000 4587 0000 4587 0000     .E...E...E...E..
  40c5d4:	4587 0000 4587 0000 4587 0000 4587 0000     .E...E...E...E..
  40c5e4:	4587 0000 4587 0000 4587 0000 4587 0000     .E...E...E...E..
  40c5f4:	4587 0000 4587 0000 4587 0000 4587 0000     .E...E...E...E..
  40c604:	4587 0000 4587 0000 4587 0000 4587 0000     .E...E...E...E..
  40c614:	4587 0000 4587 0000 4587 0000 4587 0000     .E...E...E...E..
  40c624:	4587 0000 4587 0000 4587 0000 4587 0000     .E...E...E...E..
  40c634:	4587 0000 4587 0000 4587 0000 4587 0000     .E...E...E...E..
  40c644:	4587 0000 4587 0000 4587 0000 4587 0000     .E...E...E...E..
  40c654:	4587 0000 4587 0000 4587 0000 4587 0000     .E...E...E...E..
  40c664:	4587 0000 4587 0000 4587 0000 4587 0000     .E...E...E...E..
  40c674:	4587 0000 4587 0000 4587 0000 4587 0000     .E...E...E...E..
  40c684:	4587 0000 4587 0000 4587 0000 4587 0000     .E...E...E...E..
  40c694:	4587 0000 4587 0000 4587 0000 4587 0000     .E...E...E...E..
  40c6a4:	4587 0000 4587 0000 4587 0000 4587 0000     .E...E...E...E..
  40c6b4:	4587 0000 4587 0000 4587 0000 4587 0000     .E...E...E...E..
  40c6c4:	4587 0000 4587 0000 4587 0000 4587 0000     .E...E...E...E..
  40c6d4:	4587 0000 4587 0000 4587 0000 4587 0000     .E...E...E...E..
  40c6e4:	4587 0000 4587 0000 4587 0000 4587 0000     .E...E...E...E..
  40c6f4:	4587 0000 4587 0000 4587 0000 4587 0000     .E...E...E...E..
  40c704:	4587 0000 4587 0000 4587 0000 4587 0000     .E...E...E...E..
  40c714:	4587 0000 4587 0000 4587 0000 4587 0000     .E...E...E...E..
  40c724:	4587 0000 4587 0000 4587 0000 4587 0000     .E...E...E...E..
  40c734:	4587 0000 4587 0000 4587 0000 4587 0000     .E...E...E...E..
  40c744:	4587 0000 4587 0000 4587 0000 4587 0000     .E...E...E...E..
  40c754:	4587 0000 4587 0000 4587 0000 4587 0000     .E...E...E...E..
  40c764:	4587 0000 73a5 0040 f4f8 00f0 ffff 00ff     .E...s@.........
  40c774:	ffff 00ff ffff 00ff ffff 00ff ffff 00ff     ................
  40c784:	ffff 00ff ffff 00ff ffff 00ff ffff 00ff     ................
  40c794:	ffff 00ff ffff 00ff ffff 00ff ffff 00ff     ................
  40c7a4:	ffff 00ff ffff 00ff ffff 00ff ffff 00ff     ................
  40c7b4:	ffff 00ff ffff 00ff ffff 00ff ffff 00ff     ................
  40c7c4:	ffff 00ff ffff 00ff ffff 00ff ffff 00ff     ................
  40c7d4:	ffff 00ff ffff 00ff ffff 00ff ffff 00ff     ................
  40c7e4:	ffff 00ff ffff 00ff ffff 00ff ffff 00ff     ................
  40c7f4:	ffff 00ff ffff 00ff ffff 00ff ffff 00ff     ................
  40c804:	ffff 00ff ffff 00ff ffff 00ff ffff 00ff     ................
  40c814:	ffff 00ff ffff 00ff ffff 00ff ffff 00ff     ................
  40c824:	ffff 00ff ffff 00ff ffff 00ff ffff 00ff     ................
  40c834:	ffff 00ff ffff 00ff ffff 00ff ffff 00ff     ................
  40c844:	ffff 00ff bcd4 00a4 4889 0005 4587 0000     .........H...E..
  40c854:	4587 0000 4587 0000 4587 0000 4587 0000     .E...E...E...E..
  40c864:	4587 0000 4587 0000 4587 0000 4587 0000     .E...E...E...E..
  40c874:	4587 0000 4587 0000 4587 0000 a5c5 0083     .E...E...E......
  40c884:	ffff 00ff ffff 00ff ffff 00ff ffff 00ff     ................
  40c894:	ffff 00ff ffff 00ff ffff 00ff ffff 00ff     ................
  40c8a4:	ffff 00ff ffff 00ff ffff 00ff ffff 00ff     ................
  40c8b4:	ffff 00ff ffff 00ff ffff 00ff ffff 00ff     ................
  40c8c4:	ffff 00ff ffff 00ff ffff 00ff cadc 00b6     ................
  40c8d4:	b0cd 0094 b0cd 0094 b0cd 0094 b0cd 0094     ................
  40c8e4:	b0cd 0094 b0cd 0094 b0cd 0094 b0cd 0094     ................
  40c8f4:	b0cd 0094 b0cd 0094 b0cd 0094 b0cd 0094     ................
  40c904:	b0cd 0094 b0cd 0094 b0cd 0094 b0cd 0094     ................
  40c914:	b0cd 0094 b0cd 0094 b0cd 0094 b0cd 0094     ................
  40c924:	b0cd 0094 b0cd 0094 b0cd 0094 b0cd 0094     ................
  40c934:	b0cd 0094 b0cd 0094 b0cd 0094 b0cd 0094     ................
  40c944:	b0cd 0094 b0cd 0094 b0cd 0094 b0cd 0094     ................
  40c954:	b0cd 0094 b0cd 0094 b0cd 0094 b0cd 0094     ................
  40c964:	b0cd 0094 b0cd 0094 b0cd 0094 b0cd 0094     ................
  40c974:	b0cd 0094 b0cd 0094 b0cd 0094 b0cd 0094     ................
  40c984:	b0cd 0094 b0cd 0094 b0cd 0094 b0cd 0094     ................
  40c994:	b0cd 0094 b0cd 0094 b0cd 0094 b0cd 0094     ................
  40c9a4:	b0cd 0094 b0cd 0094 b0cd 0094 b0cd 0094     ................
  40c9b4:	b0cd 0094 b0cd 0094 b0cd 0094 b0cd 0094     ................
  40c9c4:	b0cd 0094 b0cd 0094 b0cd 0094 b0cd 0094     ................
  40c9d4:	b0cd 0094 b0cd 0094 b0cd 0094 b0cd 0094     ................
  40c9e4:	b0cd 0094 b0cd 0094 b0cd 0094 b0cd 0094     ................
  40c9f4:	b0cd 0094 b0cd 0094 b0cd 0094 b0cd 0094     ................
  40ca04:	b0cd 0094 b0cd 0094 b0cd 0094 b0cd 0094     ................
  40ca14:	b0cd 0094 b0cd 0094 b0cd 0094 b0cd 0094     ................
  40ca24:	b0cd 0094 b0cd 0094 b0cd 0094 b0cd 0094     ................
  40ca34:	b0cd 0094 b0cd 0094 b0cd 0094 b0cd 0094     ................
  40ca44:	b0cd 0094 b0cd 0094 b0cd 0094 b0cd 0094     ................
  40ca54:	b0cd 0094 b0cd 0094 b0cd 0094 b0cd 0094     ................
  40ca64:	b0cd 0094 b0cd 0094 b0cd 0094 b0cd 0094     ................
  40ca74:	b0cd 0094 b0cd 0094 b0cd 0094 b0cd 0094     ................
  40ca84:	b0cd 0094 b0cd 0094 b0cd 0094 b0cd 0094     ................
  40ca94:	b0cd 0094 b0cd 0094 b0cd 0094 b0cd 0094     ................
  40caa4:	b0cd 0094 b0cd 0094 b0cd 0094 b0cd 0094     ................
  40cab4:	b0cd 0094 b0cd 0094 b0cd 0094 b0cd 0094     ................
  40cac4:	b0cd 0094 b0cd 0094 b0cd 0094 b0cd 0094     ................
  40cad4:	b0cd 0094 b0cd 0094 b0cd 0094 b0cd 0094     ................
  40cae4:	b0cd 0094 b0cd 0094 b0cd 0094 b0cd 0094     ................
  40caf4:	4587 0000 4587 0000 4587 0000 4587 0000     .E...E...E...E..
  40cb04:	4587 0000 4587 0000 4587 0000 4587 0000     .E...E...E...E..
  40cb14:	4587 0000 4587 0000 4587 0000 4587 0000     .E...E...E...E..
  40cb24:	7baa 004c cadc 00b6 cddf 00bb cddf 00bb     .{L.............
  40cb34:	cddf 00bb cddf 00bb cddf 00bb cddf 00bb     ................
  40cb44:	cddf 00bb cddf 00bb cddf 00bb cddf 00bb     ................
  40cb54:	cddf 00bb cddf 00bb cddf 00bb cddf 00bb     ................
  40cb64:	cddf 00bb cddf 00bb cddf 00bb cddf 00bb     ................
  40cb74:	cddf 00bb cddf 00bb cddf 00bb cddf 00bb     ................
  40cb84:	cddf 00bb cddf 00bb cddf 00bb cddf 00bb     ................
  40cb94:	cddf 00bb cddf 00bb cddf 00bb cddf 00bb     ................
  40cba4:	cddf 00bb cddf 00bb cddf 00bb cddf 00bb     ................
  40cbb4:	cddf 00bb cddf 00bb cddf 00bb cddf 00bb     ................
  40cbc4:	cddf 00bb cddf 00bb cddf 00bb cddf 00bb     ................
  40cbd4:	cddf 00bb cddf 00bb cddf 00bb cddf 00bb     ................
  40cbe4:	cddf 00bb cddf 00bb cddf 00bb cddf 00bb     ................
  40cbf4:	cddf 00bb cddf 00bb cddf 00bb cddf 00bb     ................
  40cc04:	cddf 00bb cddf 00bb b3ce 0098 4a8a 0008     .............J..
  40cc14:	4587 0000 4587 0000 4587 0000 4587 0000     .E...E...E...E..
  40cc24:	4587 0000 4587 0000 4587 0000 4587 0000     .E...E...E...E..
  40cc34:	4587 0000 4587 0000 4587 0000 a5c5 0083     .E...E...E......
  40cc44:	ffff 00ff ffff 00ff ffff 00ff ffff 00ff     ................
  40cc54:	ffff 00ff ffff 00ff ffff 00ff ffff 00ff     ................
  40cc64:	ffff 00ff ffff 00ff ffff 00ff ffff 00ff     ................
  40cc74:	ffff 00ff ffff 00ff ffff 00ff ffff 00ff     ................
  40cc84:	ffff 00ff ffff 00ff ffff 00ff ffff 00ff     ................
  40cc94:	ffff 00ff ffff 00ff ffff 00ff ffff 00ff     ................
  40cca4:	ffff 00ff ffff 00ff ffff 00ff ffff 00ff     ................
  40ccb4:	ffff 00ff ffff 00ff ffff 00ff ffff 00ff     ................
  40ccc4:	ffff 00ff ffff 00ff ffff 00ff ffff 00ff     ................
  40ccd4:	ffff 00ff ffff 00ff ffff 00ff ffff 00ff     ................
  40cce4:	ffff 00ff ffff 00ff ffff 00ff ffff 00ff     ................
  40ccf4:	ffff 00ff ffff 00ff ffff 00ff ffff 00ff     ................
  40cd04:	ffff 00ff ffff 00ff ffff 00ff ffff 00ff     ................
  40cd14:	ffff 00ff ffff 00ff ffff 00ff ffff 00ff     ................
  40cd24:	ffff 00ff ffff 00ff ffff 00ff ffff 00ff     ................
  40cd34:	ffff 00ff ffff 00ff ffff 00ff ffff 00ff     ................
  40cd44:	ffff 00ff ffff 00ff ffff 00ff ffff 00ff     ................
  40cd54:	ffff 00ff ffff 00ff ffff 00ff ffff 00ff     ................
  40cd64:	ffff 00ff ffff 00ff ffff 00ff ffff 00ff     ................
  40cd74:	ffff 00ff ffff 00ff ffff 00ff ffff 00ff     ................
  40cd84:	ffff 00ff ffff 00ff ffff 00ff ffff 00ff     ................
  40cd94:	ffff 00ff ffff 00ff ffff 00ff ffff 00ff     ................
  40cda4:	ffff 00ff ffff 00ff ffff 00ff ffff 00ff     ................
  40cdb4:	ffff 00ff ffff 00ff ffff 00ff ffff 00ff     ................
  40cdc4:	ffff 00ff ffff 00ff ffff 00ff ffff 00ff     ................
  40cdd4:	ffff 00ff ffff 00ff ffff 00ff ffff 00ff     ................
  40cde4:	ffff 00ff ffff 00ff ffff 00ff ffff 00ff     ................
  40cdf4:	ffff 00ff ffff 00ff ffff 00ff ffff 00ff     ................
  40ce04:	ffff 00ff ffff 00ff ffff 00ff ffff 00ff     ................
  40ce14:	ffff 00ff ffff 00ff ffff 00ff ffff 00ff     ................
  40ce24:	ffff 00ff ffff 00ff ffff 00ff ffff 00ff     ................
  40ce34:	ffff 00ff ffff 00ff ffff 00ff ffff 00ff     ................
  40ce44:	ffff 00ff ffff 00ff ffff 00ff ffff 00ff     ................
  40ce54:	ffff 00ff ffff 00ff ffff 00ff ffff 00ff     ................
  40ce64:	ffff 00ff ffff 00ff ffff 00ff ffff 00ff     ................
  40ce74:	ffff 00ff ffff 00ff ffff 00ff ffff 00ff     ................
  40ce84:	ffff 00ff ffff 00ff ffff 00ff ffff 00ff     ................
  40ce94:	ffff 00ff ffff 00ff ffff 00ff ffff 00ff     ................
  40cea4:	ffff 00ff ffff 00ff ffff 00ff ffff 00ff     ................
  40ceb4:	4587 0000 4587 0000 4587 0000 4587 0000     .E...E...E...E..
  40cec4:	4587 0000 4587 0000 4587 0000 4587 0000     .E...E...E...E..
  40ced4:	4587 0000 4587 0000 4587 0000 73a6 0041     .E...E...E...sA.
  40cee4:	d8e4 00c9 4587 0000 4587 0000 4587 0000     .....E...E...E..
  40cef4:	4587 0000 4587 0000 4587 0000 4587 0000     .E...E...E...E..
  40cf04:	4587 0000 4587 0000 4587 0000 4587 0000     .E...E...E...E..
  40cf14:	4587 0000 4587 0000 4587 0000 4587 0000     .E...E...E...E..
  40cf24:	4587 0000 4587 0000 4587 0000 4587 0000     .E...E...E...E..
  40cf34:	4587 0000 4587 0000 4687 0002 679d 002f     .E...E...F...g/.
  40cf44:	8db6 0063 a8c7 0089 c5da 00b0 d4e3 00c6     ..c.............
  40cf54:	dde8 00d1 e6ef 00dd e2ec 00d9 dae7 00cc     ................
  40cf64:	cede 00bc b6cf 009b 99be 0075 7aa9 004a     ..........u..zJ.
  40cf74:	4f8e 000f 4587 0000 4587 0000 4587 0000     .O...E...E...E..
  40cf84:	4587 0000 4587 0000 4587 0000 4587 0000     .E...E...E...E..
  40cf94:	4587 0000 4587 0000 4587 0000 4587 0000     .E...E...E...E..
  40cfa4:	4587 0000 4587 0000 4587 0000 4587 0000     .E...E...E...E..
  40cfb4:	4587 0000 4587 0000 4587 0000 4587 0000     .E...E...E...E..
  40cfc4:	4587 0000 4587 0000 83af 0055 c6d9 00b1     .E...E....U.....
  40cfd4:	4788 0004 4587 0000 4587 0000 4587 0000     .G...E...E...E..
  40cfe4:	4587 0000 4587 0000 4587 0000 4587 0000     .E...E...E...E..
  40cff4:	4587 0000 4587 0000 4587 0000 a5c5 0083     .E...E...E......
  40d004:	ffff 00ff ffff 00ff ffff 00ff ffff 00ff     ................
  40d014:	ffff 00ff ffff 00ff ffff 00ff ffff 00ff     ................
  40d024:	ffff 00ff ffff 00ff ffff 00ff ffff 00ff     ................
  40d034:	ffff 00ff ffff 00ff ffff 00ff ffff 00ff     ................
  40d044:	ffff 00ff ffff 00ff ffff 00ff ffff 00ff     ................
  40d054:	ffff 00ff ffff 00ff ffff 00ff ffff 00ff     ................
  40d064:	ffff 00ff ffff 00ff ffff 00ff ffff 00ff     ................
  40d074:	ffff 00ff ffff 00ff ffff 00ff ffff 00ff     ................
  40d084:	ffff 00ff ffff 00ff ffff 00ff ffff 00ff     ................
  40d094:	ffff 00ff ffff 00ff ffff 00ff ffff 00ff     ................
  40d0a4:	ffff 00ff ffff 00ff ffff 00ff ffff 00ff     ................
  40d0b4:	ffff 00ff ffff 00ff ffff 00ff ffff 00ff     ................
  40d0c4:	ffff 00ff ffff 00ff ffff 00ff ffff 00ff     ................
  40d0d4:	ffff 00ff ffff 00ff ffff 00ff ffff 00ff     ................
  40d0e4:	ffff 00ff ffff 00ff ffff 00ff ffff 00ff     ................
  40d0f4:	ffff 00ff ffff 00ff ffff 00ff ffff 00ff     ................
  40d104:	ffff 00ff ffff 00ff ffff 00ff ffff 00ff     ................
  40d114:	ffff 00ff ffff 00ff ffff 00ff ffff 00ff     ................
  40d124:	ffff 00ff ffff 00ff ffff 00ff ffff 00ff     ................
  40d134:	ffff 00ff ffff 00ff ffff 00ff ffff 00ff     ................
  40d144:	ffff 00ff ffff 00ff ffff 00ff ffff 00ff     ................
  40d154:	ffff 00ff ffff 00ff ffff 00ff ffff 00ff     ................
  40d164:	ffff 00ff ffff 00ff ffff 00ff ffff 00ff     ................
  40d174:	ffff 00ff ffff 00ff ffff 00ff ffff 00ff     ................
  40d184:	ffff 00ff ffff 00ff ffff 00ff ffff 00ff     ................
  40d194:	ffff 00ff ffff 00ff ffff 00ff ffff 00ff     ................
  40d1a4:	ffff 00ff ffff 00ff ffff 00ff ffff 00ff     ................
  40d1b4:	ffff 00ff ffff 00ff ffff 00ff ffff 00ff     ................
  40d1c4:	ffff 00ff ffff 00ff ffff 00ff ffff 00ff     ................
  40d1d4:	ffff 00ff ffff 00ff ffff 00ff ffff 00ff     ................
  40d1e4:	ffff 00ff ffff 00ff ffff 00ff ffff 00ff     ................
  40d1f4:	ffff 00ff ffff 00ff ffff 00ff ffff 00ff     ................
  40d204:	ffff 00ff ffff 00ff ffff 00ff ffff 00ff     ................
  40d214:	ffff 00ff ffff 00ff ffff 00ff ffff 00ff     ................
  40d224:	ffff 00ff ffff 00ff ffff 00ff ffff 00ff     ................
  40d234:	ffff 00ff ffff 00ff ffff 00ff ffff 00ff     ................
  40d244:	ffff 00ff ffff 00ff ffff 00ff ffff 00ff     ................
  40d254:	ffff 00ff ffff 00ff ffff 00ff ffff 00ff     ................
  40d264:	ffff 00ff ffff 00ff ffff 00ff ffff 00ff     ................
  40d274:	4587 0000 4587 0000 4587 0000 4587 0000     .E...E...E...E..
  40d284:	4587 0000 4587 0000 4587 0000 4587 0000     .E...E...E...E..
  40d294:	4587 0000 4587 0000 679d 002f f3f7 00ef     .E...E...g/.....
  40d2a4:	dde9 00d0 4587 0000 4587 0000 4587 0000     .....E...E...E..
  40d2b4:	4587 0000 4587 0000 4587 0000 4587 0000     .E...E...E...E..
  40d2c4:	4587 0000 4587 0000 4587 0000 4587 0000     .E...E...E...E..
  40d2d4:	4587 0000 4587 0000 4587 0000 4587 0000     .E...E...E...E..
  40d2e4:	4587 0000 4587 0000 4587 0000 4a8a 0008     .E...E...E...J..
  40d2f4:	83af 0055 c2d7 00ab f0f5 00eb ffff 00ff     ..U.............
  40d304:	ffff 00ff ffff 00ff ffff 00ff ffff 00ff     ................
  40d314:	ffff 00ff ffff 00ff ffff 00ff ffff 00ff     ................
  40d324:	ffff 00ff ffff 00ff ffff 00ff ffff 00ff     ................
  40d334:	fdfe 00fc d8e6 00c9 a2c2 007f 5f96 0023     ............._#.
  40d344:	4587 0000 4587 0000 4587 0000 4587 0000     .E...E...E...E..
  40d354:	4587 0000 4587 0000 4587 0000 4587 0000     .E...E...E...E..
  40d364:	4587 0000 4587 0000 4587 0000 4587 0000     .E...E...E...E..
  40d374:	4587 0000 4587 0000 4587 0000 4587 0000     .E...E...E...E..
  40d384:	4587 0000 4587 0000 83af 0055 ffff 00ff     .E...E....U.....
  40d394:	bad3 00a1 4587 0001 4587 0000 4587 0000     .....E...E...E..
  40d3a4:	4587 0000 4587 0000 4587 0000 4587 0000     .E...E...E...E..
  40d3b4:	4587 0000 4587 0000 4587 0000 a5c5 0083     .E...E...E......
  40d3c4:	ffff 00ff ffff 00ff ffff 00ff ffff 00ff     ................
  40d3d4:	ffff 00ff ffff 00ff ffff 00ff ffff 00ff     ................
  40d3e4:	ffff 00ff ffff 00ff ffff 00ff ffff 00ff     ................
  40d3f4:	ffff 00ff ffff 00ff ffff 00ff ffff 00ff     ................
  40d404:	ffff 00ff ffff 00ff ffff 00ff ffff 00ff     ................
  40d414:	ffff 00ff ffff 00ff ffff 00ff ffff 00ff     ................
  40d424:	ffff 00ff ffff 00ff ffff 00ff ffff 00ff     ................
  40d434:	ffff 00ff ffff 00ff ffff 00ff ffff 00ff     ................
  40d444:	ffff 00ff ffff 00ff ffff 00ff ffff 00ff     ................
  40d454:	ffff 00ff ffff 00ff ffff 00ff ffff 00ff     ................
  40d464:	ffff 00ff ffff 00ff ffff 00ff ffff 00ff     ................
  40d474:	ffff 00ff ffff 00ff ffff 00ff ffff 00ff     ................
  40d484:	ffff 00ff ffff 00ff ffff 00ff ffff 00ff     ................
  40d494:	ffff 00ff ffff 00ff ffff 00ff ffff 00ff     ................
  40d4a4:	ffff 00ff ffff 00ff ffff 00ff ffff 00ff     ................
  40d4b4:	ffff 00ff ffff 00ff ffff 00ff ffff 00ff     ................
  40d4c4:	ffff 00ff ffff 00ff ffff 00ff ffff 00ff     ................
  40d4d4:	ffff 00ff ffff 00ff ffff 00ff ffff 00ff     ................
  40d4e4:	ffff 00ff ffff 00ff ffff 00ff ffff 00ff     ................
  40d4f4:	ffff 00ff ffff 00ff ffff 00ff ffff 00ff     ................
  40d504:	ffff 00ff ffff 00ff ffff 00ff ffff 00ff     ................
  40d514:	ffff 00ff ffff 00ff ffff 00ff ffff 00ff     ................
  40d524:	ffff 00ff ffff 00ff ffff 00ff ffff 00ff     ................
  40d534:	ffff 00ff ffff 00ff ffff 00ff ffff 00ff     ................
  40d544:	ffff 00ff ffff 00ff ffff 00ff ffff 00ff     ................
  40d554:	ffff 00ff ffff 00ff ffff 00ff ffff 00ff     ................
  40d564:	ffff 00ff ffff 00ff ffff 00ff ffff 00ff     ................
  40d574:	ffff 00ff ffff 00ff ffff 00ff ffff 00ff     ................
  40d584:	ffff 00ff ffff 00ff ffff 00ff ffff 00ff     ................
  40d594:	ffff 00ff ffff 00ff ffff 00ff ffff 00ff     ................
  40d5a4:	ffff 00ff ffff 00ff ffff 00ff ffff 00ff     ................
  40d5b4:	ffff 00ff ffff 00ff ffff 00ff ffff 00ff     ................
  40d5c4:	ffff 00ff ffff 00ff ffff 00ff ffff 00ff     ................
  40d5d4:	ffff 00ff ffff 00ff ffff 00ff ffff 00ff     ................
  40d5e4:	ffff 00ff ffff 00ff ffff 00ff ffff 00ff     ................
  40d5f4:	ffff 00ff ffff 00ff ffff 00ff ffff 00ff     ................
  40d604:	ffff 00ff ffff 00ff ffff 00ff ffff 00ff     ................
  40d614:	ffff 00ff ffff 00ff ffff 00ff ffff 00ff     ................
  40d624:	ffff 00ff ffff 00ff ffff 00ff ffff 00ff     ................
  40d634:	4587 0000 4587 0000 4587 0000 4587 0000     .E...E...E...E..
  40d644:	4587 0000 4587 0000 4587 0000 4587 0000     .E...E...E...E..
  40d654:	4587 0000 5c96 0020 eff4 00e9 ffff 00ff     .E...\ .........
  40d664:	dde9 00d0 4587 0000 4587 0000 4587 0000     .....E...E...E..
  40d674:	4587 0000 4587 0000 4587 0000 4587 0000     .E...E...E...E..
  40d684:	4587 0000 4587 0000 4587 0000 4587 0000     .E...E...E...E..
  40d694:	4587 0000 4587 0000 4587 0000 4587 0000     .E...E...E...E..
  40d6a4:	4587 0000 5d97 0021 b0cd 0094 f3f7 00ef     .E...]!.........
  40d6b4:	ffff 00ff ffff 00ff ffff 00ff ffff 00ff     ................
  40d6c4:	ffff 00ff ffff 00ff ffff 00ff ffff 00ff     ................
  40d6d4:	ffff 00ff ffff 00ff ffff 00ff ffff 00ff     ................
  40d6e4:	ffff 00ff ffff 00ff ffff 00ff ffff 00ff     ................
  40d6f4:	ffff 00ff ffff 00ff ffff 00ff feff 00fe     ................
  40d704:	d4e3 00c5 82af 0054 4687 0002 4587 0000     ......T..F...E..
  40d714:	4587 0000 4587 0000 4587 0000 4587 0000     .E...E...E...E..
  40d724:	4587 0000 4587 0000 4587 0000 4587 0000     .E...E...E...E..
  40d734:	4587 0000 4587 0000 4587 0000 4587 0000     .E...E...E...E..
  40d744:	4587 0000 4587 0000 83af 0055 ffff 00ff     .E...E....U.....
  40d754:	ffff 00ff a2c2 007f 4587 0000 4587 0000     .........E...E..
  40d764:	4587 0000 4587 0000 4587 0000 4587 0000     .E...E...E...E..
  40d774:	4587 0000 4587 0000 4587 0000 a5c5 0083     .E...E...E......
  40d784:	ffff 00ff ffff 00ff ffff 00ff ffff 00ff     ................
  40d794:	ffff 00ff ffff 00ff ffff 00ff ffff 00ff     ................
  40d7a4:	ffff 00ff ffff 00ff ffff 00ff ffff 00ff     ................
  40d7b4:	ffff 00ff ffff 00ff ffff 00ff ffff 00ff     ................
  40d7c4:	ffff 00ff ffff 00ff ffff 00ff ffff 00ff     ................
  40d7d4:	ffff 00ff ffff 00ff ffff 00ff ffff 00ff     ................
  40d7e4:	ffff 00ff ffff 00ff ffff 00ff ffff 00ff     ................
  40d7f4:	ffff 00ff ffff 00ff ffff 00ff ffff 00ff     ................
  40d804:	ffff 00ff ffff 00ff ffff 00ff ffff 00ff     ................
  40d814:	ffff 00ff ffff 00ff ffff 00ff ffff 00ff     ................
  40d824:	ffff 00ff ffff 00ff ffff 00ff ffff 00ff     ................
  40d834:	ffff 00ff ffff 00ff ffff 00ff ffff 00ff     ................
  40d844:	ffff 00ff ffff 00ff ffff 00ff ffff 00ff     ................
  40d854:	ffff 00ff ffff 00ff ffff 00ff ffff 00ff     ................
  40d864:	ffff 00ff ffff 00ff ffff 00ff ffff 00ff     ................
  40d874:	ffff 00ff ffff 00ff ffff 00ff ffff 00ff     ................
  40d884:	ffff 00ff ffff 00ff ffff 00ff ffff 00ff     ................
  40d894:	ffff 00ff ffff 00ff ffff 00ff ffff 00ff     ................
  40d8a4:	ffff 00ff ffff 00ff ffff 00ff ffff 00ff     ................
  40d8b4:	ffff 00ff ffff 00ff ffff 00ff ffff 00ff     ................
  40d8c4:	ffff 00ff ffff 00ff ffff 00ff ffff 00ff     ................
  40d8d4:	ffff 00ff ffff 00ff ffff 00ff ffff 00ff     ................
  40d8e4:	ffff 00ff ffff 00ff ffff 00ff ffff 00ff     ................
  40d8f4:	ffff 00ff ffff 00ff ffff 00ff ffff 00ff     ................
  40d904:	ffff 00ff ffff 00ff ffff 00ff ffff 00ff     ................
  40d914:	ffff 00ff ffff 00ff ffff 00ff ffff 00ff     ................
  40d924:	ffff 00ff ffff 00ff ffff 00ff ffff 00ff     ................
  40d934:	ffff 00ff ffff 00ff ffff 00ff ffff 00ff     ................
  40d944:	ffff 00ff ffff 00ff ffff 00ff ffff 00ff     ................
  40d954:	ffff 00ff ffff 00ff ffff 00ff ffff 00ff     ................
  40d964:	ffff 00ff ffff 00ff ffff 00ff ffff 00ff     ................
  40d974:	ffff 00ff ffff 00ff ffff 00ff ffff 00ff     ................
  40d984:	ffff 00ff ffff 00ff ffff 00ff ffff 00ff     ................
  40d994:	ffff 00ff ffff 00ff ffff 00ff ffff 00ff     ................
  40d9a4:	ffff 00ff ffff 00ff ffff 00ff ffff 00ff     ................
  40d9b4:	ffff 00ff ffff 00ff ffff 00ff ffff 00ff     ................
  40d9c4:	ffff 00ff ffff 00ff ffff 00ff ffff 00ff     ................
  40d9d4:	ffff 00ff ffff 00ff ffff 00ff ffff 00ff     ................
  40d9e4:	ffff 00ff ffff 00ff ffff 00ff ffff 00ff     ................
  40d9f4:	4587 0000 4587 0000 4587 0000 4587 0000     .E...E...E...E..
  40da04:	4587 0000 4587 0000 4587 0000 4587 0000     .E...E...E...E..
  40da14:	4889 0005 d4e3 00c6 ffff 00ff ffff 00ff     .H..............
  40da24:	dde9 00d0 4587 0000 4587 0000 4587 0000     .....E...E...E..
  40da34:	4587 0000 4587 0000 4587 0000 4587 0000     .E...E...E...E..
  40da44:	4587 0000 4587 0000 4587 0000 4587 0000     .E...E...E...E..
  40da54:	4587 0000 4587 0000 4587 0000 5a95 001e     .E...E...E...Z..
  40da64:	bad3 00a1 fcfd 00fb ffff 00ff ffff 00ff     ................
  40da74:	ffff 00ff ffff 00ff ffff 00ff ffff 00ff     ................
  40da84:	ffff 00ff ffff 00ff ffff 00ff ffff 00ff     ................
  40da94:	ffff 00ff ffff 00ff ffff 00ff ffff 00ff     ................
  40daa4:	ffff 00ff ffff 00ff ffff 00ff ffff 00ff     ................
  40dab4:	ffff 00ff ffff 00ff ffff 00ff ffff 00ff     ................
  40dac4:	ffff 00ff ffff 00ff e1ec 00d7 85af 0058     ..............X.
  40dad4:	4587 0000 4587 0000 4587 0000 4587 0000     .E...E...E...E..
  40dae4:	4587 0000 4587 0000 4587 0000 4587 0000     .E...E...E...E..
  40daf4:	4587 0000 4587 0000 4587 0000 4587 0000     .E...E...E...E..
  40db04:	4587 0000 4587 0000 83af 0055 ffff 00ff     .E...E....U.....
  40db14:	ffff 00ff fefe 00fd 78a7 0047 4587 0000     .........xG..E..
  40db24:	4587 0000 4587 0000 4587 0000 4587 0000     .E...E...E...E..
  40db34:	4587 0000 4587 0000 4587 0000 a5c5 0083     .E...E...E......
  40db44:	ffff 00ff ffff 00ff ffff 00ff ffff 00ff     ................
  40db54:	ffff 00ff ffff 00ff ffff 00ff ffff 00ff     ................
  40db64:	ffff 00ff ffff 00ff ffff 00ff ffff 00ff     ................
  40db74:	ffff 00ff ffff 00ff ffff 00ff ffff 00ff     ................
  40db84:	ffff 00ff ffff 00ff ffff 00ff ffff 00ff     ................
  40db94:	ffff 00ff ffff 00ff ffff 00ff ffff 00ff     ................
  40dba4:	ffff 00ff ffff 00ff ffff 00ff ffff 00ff     ................
  40dbb4:	ffff 00ff ffff 00ff ffff 00ff ffff 00ff     ................
  40dbc4:	ffff 00ff ffff 00ff ffff 00ff ffff 00ff     ................
  40dbd4:	ffff 00ff ffff 00ff ffff 00ff ffff 00ff     ................
  40dbe4:	ffff 00ff ffff 00ff ffff 00ff ffff 00ff     ................
  40dbf4:	ffff 00ff ffff 00ff ffff 00ff ffff 00ff     ................
  40dc04:	ffff 00ff ffff 00ff ffff 00ff ffff 00ff     ................
  40dc14:	ffff 00ff ffff 00ff ffff 00ff ffff 00ff     ................
  40dc24:	ffff 00ff ffff 00ff ffff 00ff ffff 00ff     ................
  40dc34:	ffff 00ff ffff 00ff ffff 00ff ffff 00ff     ................
  40dc44:	ffff 00ff ffff 00ff ffff 00ff ffff 00ff     ................
  40dc54:	ffff 00ff ffff 00ff ffff 00ff ffff 00ff     ................
  40dc64:	ffff 00ff ffff 00ff ffff 00ff ffff 00ff     ................
  40dc74:	ffff 00ff ffff 00ff ffff 00ff ffff 00ff     ................
  40dc84:	ffff 00ff ffff 00ff ffff 00ff ffff 00ff     ................
  40dc94:	ffff 00ff ffff 00ff ffff 00ff ffff 00ff     ................
  40dca4:	ffff 00ff ffff 00ff ffff 00ff ffff 00ff     ................
  40dcb4:	ffff 00ff ffff 00ff ffff 00ff ffff 00ff     ................
  40dcc4:	ffff 00ff ffff 00ff ffff 00ff ffff 00ff     ................
  40dcd4:	ffff 00ff ffff 00ff ffff 00ff ffff 00ff     ................
  40dce4:	ffff 00ff ffff 00ff ffff 00ff ffff 00ff     ................
  40dcf4:	ffff 00ff ffff 00ff ffff 00ff ffff 00ff     ................
  40dd04:	ffff 00ff ffff 00ff ffff 00ff ffff 00ff     ................
  40dd14:	ffff 00ff ffff 00ff ffff 00ff ffff 00ff     ................
  40dd24:	ffff 00ff ffff 00ff ffff 00ff ffff 00ff     ................
  40dd34:	ffff 00ff ffff 00ff ffff 00ff ffff 00ff     ................
  40dd44:	ffff 00ff ffff 00ff ffff 00ff ffff 00ff     ................
  40dd54:	ffff 00ff ffff 00ff ffff 00ff ffff 00ff     ................
  40dd64:	ffff 00ff ffff 00ff ffff 00ff ffff 00ff     ................
  40dd74:	ffff 00ff ffff 00ff ffff 00ff ffff 00ff     ................
  40dd84:	ffff 00ff ffff 00ff ffff 00ff ffff 00ff     ................
  40dd94:	ffff 00ff ffff 00ff ffff 00ff ffff 00ff     ................
  40dda4:	ffff 00ff ffff 00ff ffff 00ff ffff 00ff     ................
  40ddb4:	4587 0000 4587 0000 4587 0000 4587 0000     .E...E...E...E..
  40ddc4:	4587 0000 4587 0000 4587 0000 4587 0000     .E...E...E...E..
  40ddd4:	afca 0091 ffff 00ff ffff 00ff ffff 00ff     ................
  40dde4:	dde9 00d0 4587 0000 4587 0000 4587 0000     .....E...E...E..
  40ddf4:	4587 0000 4587 0000 4587 0000 4587 0000     .E...E...E...E..
  40de04:	4587 0000 4587 0000 4587 0000 4587 0000     .E...E...E...E..
  40de14:	4587 0000 4989 0006 9bbf 0077 f7f9 00f4     .E...I....w.....
  40de24:	ffff 00ff ffff 00ff ffff 00ff ffff 00ff     ................
  40de34:	ffff 00ff ffff 00ff ffff 00ff ffff 00ff     ................
  40de44:	ffff 00ff ffff 00ff ffff 00ff ffff 00ff     ................
  40de54:	ffff 00ff ffff 00ff ffff 00ff ffff 00ff     ................
  40de64:	ffff 00ff ffff 00ff ffff 00ff ffff 00ff     ................
  40de74:	ffff 00ff ffff 00ff ffff 00ff ffff 00ff     ................
  40de84:	ffff 00ff ffff 00ff ffff 00ff ffff 00ff     ................
  40de94:	d0df 00be 639a 002a 4587 0000 4587 0000     .....c*..E...E..
  40dea4:	4587 0000 4587 0000 4587 0000 4587 0000     .E...E...E...E..
  40deb4:	4587 0000 4587 0000 4587 0000 4587 0000     .E...E...E...E..
  40dec4:	4587 0000 4587 0000 83af 0055 ffff 00ff     .E...E....U.....
  40ded4:	ffff 00ff ffff 00ff f0f5 00ea 5893 001b     .............X..
  40dee4:	4587 0000 4587 0000 4587 0000 4587 0000     .E...E...E...E..
  40def4:	4587 0000 4587 0000 4587 0000 a5c5 0083     .E...E...E......
  40df04:	ffff 00ff ffff 00ff ffff 00ff ffff 00ff     ................
  40df14:	ffff 00ff ffff 00ff ffff 00ff ffff 00ff     ................
  40df24:	ffff 00ff ffff 00ff ffff 00ff ffff 00ff     ................
  40df34:	ffff 00ff ffff 00ff ffff 00ff ffff 00ff     ................
  40df44:	ffff 00ff ffff 00ff ffff 00ff ffff 00ff     ................
  40df54:	ffff 00ff ffff 00ff ffff 00ff ffff 00ff     ................
  40df64:	ffff 00ff ffff 00ff ffff 00ff ffff 00ff     ................
  40df74:	ffff 00ff ffff 00ff ffff 00ff ffff 00ff     ................
  40df84:	ffff 00ff ffff 00ff ffff 00ff ffff 00ff     ................
  40df94:	ffff 00ff ffff 00ff ffff 00ff ffff 00ff     ................
  40dfa4:	ffff 00ff ffff 00ff ffff 00ff ffff 00ff     ................
  40dfb4:	ffff 00ff ffff 00ff ffff 00ff ffff 00ff     ................
  40dfc4:	ffff 00ff ffff 00ff ffff 00ff ffff 00ff     ................
  40dfd4:	ffff 00ff ffff 00ff ffff 00ff ffff 00ff     ................
  40dfe4:	ffff 00ff ffff 00ff ffff 00ff ffff 00ff     ................
  40dff4:	ffff 00ff ffff 00ff ffff 00ff ffff 00ff     ................
  40e004:	ffff 00ff ffff 00ff ffff 00ff ffff 00ff     ................
  40e014:	ffff 00ff ffff 00ff ffff 00ff ffff 00ff     ................
  40e024:	ffff 00ff ffff 00ff ffff 00ff ffff 00ff     ................
  40e034:	ffff 00ff ffff 00ff ffff 00ff ffff 00ff     ................
  40e044:	ffff 00ff ffff 00ff ffff 00ff ffff 00ff     ................
  40e054:	ffff 00ff ffff 00ff ffff 00ff ffff 00ff     ................
  40e064:	ffff 00ff ffff 00ff ffff 00ff ffff 00ff     ................
  40e074:	ffff 00ff ffff 00ff ffff 00ff ffff 00ff     ................
  40e084:	ffff 00ff ffff 00ff ffff 00ff ffff 00ff     ................
  40e094:	ffff 00ff ffff 00ff ffff 00ff ffff 00ff     ................
  40e0a4:	ffff 00ff ffff 00ff ffff 00ff ffff 00ff     ................
  40e0b4:	ffff 00ff ffff 00ff ffff 00ff ffff 00ff     ................
  40e0c4:	ffff 00ff ffff 00ff ffff 00ff ffff 00ff     ................
  40e0d4:	ffff 00ff ffff 00ff ffff 00ff ffff 00ff     ................
  40e0e4:	ffff 00ff ffff 00ff ffff 00ff ffff 00ff     ................
  40e0f4:	ffff 00ff ffff 00ff ffff 00ff ffff 00ff     ................
  40e104:	ffff 00ff ffff 00ff ffff 00ff ffff 00ff     ................
  40e114:	ffff 00ff ffff 00ff ffff 00ff ffff 00ff     ................
  40e124:	ffff 00ff ffff 00ff ffff 00ff ffff 00ff     ................
  40e134:	ffff 00ff ffff 00ff ecf3 00e6 e9f1 00e2     ................
  40e144:	ffff 00ff ffff 00ff ffff 00ff ffff 00ff     ................
  40e154:	ffff 00ff ffff 00ff ffff 00ff ffff 00ff     ................
  40e164:	ffff 00ff ffff 00ff ffff 00ff ffff 00ff     ................
  40e174:	4587 0000 4587 0000 4587 0000 4587 0000     .E...E...E...E..
  40e184:	4587 0000 4587 0000 4587 0000 7fac 004f     .E...E...E....O.
  40e194:	feff 00fe ffff 00ff ffff 00ff ffff 00ff     ................
  40e1a4:	dde9 00d0 4587 0000 4587 0000 4587 0000     .....E...E...E..
  40e1b4:	4587 0000 4587 0000 4587 0000 4587 0000     .E...E...E...E..
  40e1c4:	4587 0000 4587 0000 4587 0000 4587 0000     .E...E...E...E..
  40e1d4:	5b95 001f d5e5 00c7 ffff 00ff ffff 00ff     .[..............
  40e1e4:	ffff 00ff ffff 00ff ffff 00ff ffff 00ff     ................
  40e1f4:	ffff 00ff ffff 00ff ffff 00ff ffff 00ff     ................
  40e204:	ffff 00ff ffff 00ff ffff 00ff ffff 00ff     ................
  40e214:	ffff 00ff ffff 00ff ffff 00ff ffff 00ff     ................
  40e224:	ffff 00ff ffff 00ff ffff 00ff ffff 00ff     ................
  40e234:	ffff 00ff ffff 00ff ffff 00ff ffff 00ff     ................
  40e244:	ffff 00ff ffff 00ff ffff 00ff ffff 00ff     ................
  40e254:	ffff 00ff fafc 00f8 95ba 006e 4587 0001     ..........n..E..
  40e264:	4587 0000 4587 0000 4587 0000 4587 0000     .E...E...E...E..
  40e274:	4587 0000 4587 0000 4587 0000 4587 0000     .E...E...E...E..
  40e284:	4587 0000 4587 0000 83af 0055 ffff 00ff     .E...E....U.....
  40e294:	ffff 00ff ffff 00ff ffff 00ff d2e2 00c1     ................
  40e2a4:	4687 0002 4587 0000 4587 0000 4587 0000     .F...E...E...E..
  40e2b4:	4587 0000 4587 0000 4587 0000 a5c5 0083     .E...E...E......
  40e2c4:	ffff 00ff ffff 00ff ffff 00ff ffff 00ff     ................
  40e2d4:	ffff 00ff ffff 00ff ffff 00ff ffff 00ff     ................
  40e2e4:	ffff 00ff ffff 00ff ffff 00ff ffff 00ff     ................
  40e2f4:	ffff 00ff ffff 00ff ffff 00ff ffff 00ff     ................
  40e304:	ffff 00ff ffff 00ff ffff 00ff ffff 00ff     ................
  40e314:	ffff 00ff ffff 00ff ffff 00ff ffff 00ff     ................
  40e324:	ffff 00ff ffff 00ff ffff 00ff ffff 00ff     ................
  40e334:	ffff 00ff ffff 00ff ffff 00ff ffff 00ff     ................
  40e344:	ffff 00ff ffff 00ff ffff 00ff ffff 00ff     ................
  40e354:	ffff 00ff ffff 00ff ffff 00ff ffff 00ff     ................
  40e364:	ffff 00ff ffff 00ff ffff 00ff ffff 00ff     ................
  40e374:	ffff 00ff ffff 00ff ffff 00ff ffff 00ff     ................
  40e384:	ffff 00ff ffff 00ff ffff 00ff ffff 00ff     ................
  40e394:	ffff 00ff ffff 00ff ffff 00ff ffff 00ff     ................
  40e3a4:	ffff 00ff ffff 00ff ffff 00ff ffff 00ff     ................
  40e3b4:	ffff 00ff ffff 00ff ffff 00ff ffff 00ff     ................
  40e3c4:	ffff 00ff ffff 00ff ffff 00ff ffff 00ff     ................
  40e3d4:	ffff 00ff ffff 00ff ffff 00ff ffff 00ff     ................
  40e3e4:	ffff 00ff ffff 00ff ffff 00ff ffff 00ff     ................
  40e3f4:	ffff 00ff ffff 00ff ffff 00ff ffff 00ff     ................
  40e404:	ffff 00ff ffff 00ff ffff 00ff ffff 00ff     ................
  40e414:	ffff 00ff ffff 00ff ffff 00ff ffff 00ff     ................
  40e424:	ffff 00ff ffff 00ff ffff 00ff ffff 00ff     ................
  40e434:	ffff 00ff ffff 00ff ffff 00ff ffff 00ff     ................
  40e444:	ffff 00ff ffff 00ff ffff 00ff ffff 00ff     ................
  40e454:	ffff 00ff ffff 00ff ffff 00ff ffff 00ff     ................
  40e464:	ffff 00ff ffff 00ff ffff 00ff ffff 00ff     ................
  40e474:	ffff 00ff ffff 00ff ffff 00ff ffff 00ff     ................
  40e484:	ffff 00ff ffff 00ff ffff 00ff ffff 00ff     ................
  40e494:	ffff 00ff ffff 00ff ffff 00ff ffff 00ff     ................
  40e4a4:	ffff 00ff ffff 00ff ffff 00ff ffff 00ff     ................
  40e4b4:	ffff 00ff ffff 00ff ffff 00ff ffff 00ff     ................
  40e4c4:	ffff 00ff ffff 00ff ffff 00ff ffff 00ff     ................
  40e4d4:	ffff 00ff ffff 00ff ffff 00ff ffff 00ff     ................
  40e4e4:	ffff 00ff ffff 00ff ffff 00ff ffff 00ff     ................
  40e4f4:	fbfd 00fa aecb 0090 4f8d 000e 8db6 0064     .........O....d.
  40e504:	ffff 00ff ffff 00ff ffff 00ff ffff 00ff     ................
  40e514:	ffff 00ff ffff 00ff ffff 00ff ffff 00ff     ................
  40e524:	ffff 00ff ffff 00ff ffff 00ff ffff 00ff     ................
  40e534:	4587 0000 4587 0000 4587 0000 4587 0000     .E...E...E...E..
  40e544:	4587 0000 4587 0000 4d8d 000d eaf1 00e4     .E...E...M......
  40e554:	ffff 00ff ffff 00ff ffff 00ff ffff 00ff     ................
  40e564:	dde9 00d0 4587 0000 4587 0000 4587 0000     .....E...E...E..
  40e574:	4587 0000 4587 0000 4587 0000 4587 0000     .E...E...E...E..
  40e584:	4587 0000 4587 0000 4587 0000 80ad 0051     .E...E...E....Q.
  40e594:	f5f8 00f1 ffff 00ff ffff 00ff ffff 00ff     ................
  40e5a4:	ffff 00ff ffff 00ff ffff 00ff ffff 00ff     ................
  40e5b4:	ffff 00ff ffff 00ff ffff 00ff ffff 00ff     ................
  40e5c4:	ffff 00ff ffff 00ff ffff 00ff ffff 00ff     ................
  40e5d4:	ffff 00ff ffff 00ff ffff 00ff ffff 00ff     ................
  40e5e4:	ffff 00ff ffff 00ff ffff 00ff ffff 00ff     ................
  40e5f4:	ffff 00ff ffff 00ff ffff 00ff ffff 00ff     ................
  40e604:	ffff 00ff ffff 00ff ffff 00ff ffff 00ff     ................
  40e614:	ffff 00ff ffff 00ff ffff 00ff c2d7 00ab     ................
  40e624:	4d8c 000b 4587 0000 4587 0000 4587 0000     .M...E...E...E..
  40e634:	4587 0000 4587 0000 4587 0000 4587 0000     .E...E...E...E..
  40e644:	4587 0000 4587 0000 83af 0055 ffff 00ff     .E...E....U.....
  40e654:	ffff 00ff ffff 00ff ffff 00ff ffff 00ff     ................
  40e664:	90b6 0067 4587 0000 4587 0000 4587 0000     ..g..E...E...E..
  40e674:	4587 0000 4587 0000 4587 0000 a5c5 0083     .E...E...E......
  40e684:	ffff 00ff ffff 00ff ffff 00ff ffff 00ff     ................
  40e694:	ffff 00ff ffff 00ff ffff 00ff ffff 00ff     ................
  40e6a4:	ffff 00ff ffff 00ff ffff 00ff ffff 00ff     ................
  40e6b4:	ffff 00ff ffff 00ff ffff 00ff ffff 00ff     ................
  40e6c4:	ffff 00ff ffff 00ff ffff 00ff ffff 00ff     ................
  40e6d4:	ffff 00ff ffff 00ff ffff 00ff ffff 00ff     ................
  40e6e4:	ffff 00ff ffff 00ff ffff 00ff ffff 00ff     ................
  40e6f4:	ffff 00ff ffff 00ff ffff 00ff ffff 00ff     ................
  40e704:	ffff 00ff ffff 00ff ffff 00ff ffff 00ff     ................
  40e714:	ffff 00ff ffff 00ff ffff 00ff ffff 00ff     ................
  40e724:	ffff 00ff ffff 00ff ffff 00ff ffff 00ff     ................
  40e734:	ffff 00ff ffff 00ff ffff 00ff ffff 00ff     ................
  40e744:	ffff 00ff ffff 00ff ffff 00ff ffff 00ff     ................
  40e754:	ffff 00ff ffff 00ff ffff 00ff ffff 00ff     ................
  40e764:	ffff 00ff ffff 00ff ffff 00ff ffff 00ff     ................
  40e774:	ffff 00ff ffff 00ff ffff 00ff ffff 00ff     ................
  40e784:	ffff 00ff ffff 00ff ffff 00ff ffff 00ff     ................
  40e794:	ffff 00ff ffff 00ff ffff 00ff ffff 00ff     ................
  40e7a4:	ffff 00ff ffff 00ff ffff 00ff ffff 00ff     ................
  40e7b4:	ffff 00ff ffff 00ff ffff 00ff ffff 00ff     ................
  40e7c4:	ffff 00ff ffff 00ff ffff 00ff ffff 00ff     ................
  40e7d4:	ffff 00ff ffff 00ff ffff 00ff ffff 00ff     ................
  40e7e4:	ffff 00ff ffff 00ff ffff 00ff ffff 00ff     ................
  40e7f4:	ffff 00ff ffff 00ff ffff 00ff ffff 00ff     ................
  40e804:	ffff 00ff ffff 00ff ffff 00ff ffff 00ff     ................
  40e814:	ffff 00ff ffff 00ff ffff 00ff ffff 00ff     ................
  40e824:	ffff 00ff ffff 00ff ffff 00ff ffff 00ff     ................
  40e834:	ffff 00ff ffff 00ff ffff 00ff ffff 00ff     ................
  40e844:	ffff 00ff ffff 00ff ffff 00ff ffff 00ff     ................
  40e854:	ffff 00ff ffff 00ff ffff 00ff ffff 00ff     ................
  40e864:	ffff 00ff ffff 00ff ffff 00ff ffff 00ff     ................
  40e874:	ffff 00ff ffff 00ff ffff 00ff ffff 00ff     ................
  40e884:	ffff 00ff ffff 00ff ffff 00ff ffff 00ff     ................
  40e894:	ffff 00ff ffff 00ff ffff 00ff ffff 00ff     ................
  40e8a4:	ffff 00ff ffff 00ff ffff 00ff c7da 00b3     ................
  40e8b4:	5f98 0025 4587 0000 4587 0000 4a8a 0008     ._%..E...E...J..
  40e8c4:	eef3 00e8 ffff 00ff ffff 00ff ffff 00ff     ................
  40e8d4:	ffff 00ff ffff 00ff ffff 00ff ffff 00ff     ................
  40e8e4:	ffff 00ff ffff 00ff ffff 00ff ffff 00ff     ................
  40e8f4:	4587 0000 4587 0000 4587 0000 4587 0000     .E...E...E...E..
  40e904:	4587 0000 4587 0000 aecb 0090 ffff 00ff     .E...E..........
  40e914:	ffff 00ff ffff 00ff ffff 00ff ffff 00ff     ................
  40e924:	dde9 00d0 4587 0000 4587 0000 4587 0000     .....E...E...E..
  40e934:	4587 0000 4587 0000 4587 0000 4587 0000     .E...E...E...E..
  40e944:	4587 0000 4587 0000 91b8 006a fefe 00fd     .E...E....j.....
  40e954:	ffff 00ff ffff 00ff ffff 00ff ffff 00ff     ................
  40e964:	ffff 00ff ffff 00ff ffff 00ff ffff 00ff     ................
  40e974:	ffff 00ff ffff 00ff ffff 00ff ffff 00ff     ................
  40e984:	ffff 00ff ffff 00ff ffff 00ff ffff 00ff     ................
  40e994:	ffff 00ff ffff 00ff ffff 00ff ffff 00ff     ................
  40e9a4:	ffff 00ff ffff 00ff ffff 00ff ffff 00ff     ................
  40e9b4:	ffff 00ff ffff 00ff ffff 00ff ffff 00ff     ................
  40e9c4:	ffff 00ff ffff 00ff ffff 00ff ffff 00ff     ................
  40e9d4:	ffff 00ff ffff 00ff ffff 00ff ffff 00ff     ................
  40e9e4:	d7e6 00ca 5490 0015 4587 0000 4587 0000     .....T...E...E..
  40e9f4:	4587 0000 4587 0000 4587 0000 4587 0000     .E...E...E...E..
  40ea04:	4587 0000 4587 0000 83af 0055 ffff 00ff     .E...E....U.....
  40ea14:	ffff 00ff ffff 00ff ffff 00ff ffff 00ff     ................
  40ea24:	f3f7 00ee 5591 0016 4587 0000 4587 0000     .....U...E...E..
  40ea34:	4587 0000 4587 0000 4587 0000 a5c5 0083     .E...E...E......
  40ea44:	ffff 00ff ffff 00ff ffff 00ff ffff 00ff     ................
  40ea54:	ffff 00ff ffff 00ff ffff 00ff ffff 00ff     ................
  40ea64:	ffff 00ff ffff 00ff ffff 00ff ffff 00ff     ................
  40ea74:	ffff 00ff ffff 00ff ffff 00ff ffff 00ff     ................
  40ea84:	ffff 00ff ffff 00ff ffff 00ff ffff 00ff     ................
  40ea94:	ffff 00ff ffff 00ff ffff 00ff ffff 00ff     ................
  40eaa4:	ffff 00ff ffff 00ff ffff 00ff ffff 00ff     ................
  40eab4:	ffff 00ff ffff 00ff ffff 00ff ffff 00ff     ................
  40eac4:	ffff 00ff ffff 00ff ffff 00ff ffff 00ff     ................
  40ead4:	ffff 00ff ffff 00ff ffff 00ff ffff 00ff     ................
  40eae4:	ffff 00ff ffff 00ff ffff 00ff ffff 00ff     ................
  40eaf4:	ffff 00ff ffff 00ff ffff 00ff ffff 00ff     ................
  40eb04:	ffff 00ff ffff 00ff ffff 00ff ffff 00ff     ................
  40eb14:	ffff 00ff ffff 00ff ffff 00ff ffff 00ff     ................
  40eb24:	ffff 00ff ffff 00ff ffff 00ff ffff 00ff     ................
  40eb34:	ffff 00ff ffff 00ff ffff 00ff ffff 00ff     ................
  40eb44:	ffff 00ff ffff 00ff ffff 00ff ffff 00ff     ................
  40eb54:	ffff 00ff ffff 00ff ffff 00ff ffff 00ff     ................
  40eb64:	ffff 00ff ffff 00ff ffff 00ff ffff 00ff     ................
  40eb74:	ffff 00ff ffff 00ff ffff 00ff ffff 00ff     ................
  40eb84:	ffff 00ff ffff 00ff ffff 00ff ffff 00ff     ................
  40eb94:	ffff 00ff ffff 00ff ffff 00ff ffff 00ff     ................
  40eba4:	ffff 00ff ffff 00ff ffff 00ff ffff 00ff     ................
  40ebb4:	ffff 00ff ffff 00ff ffff 00ff ffff 00ff     ................
  40ebc4:	ffff 00ff ffff 00ff ffff 00ff ffff 00ff     ................
  40ebd4:	ffff 00ff ffff 00ff ffff 00ff ffff 00ff     ................
  40ebe4:	ffff 00ff ffff 00ff ffff 00ff ffff 00ff     ................
  40ebf4:	ffff 00ff ffff 00ff ffff 00ff ffff 00ff     ................
  40ec04:	ffff 00ff ffff 00ff ffff 00ff ffff 00ff     ................
  40ec14:	ffff 00ff ffff 00ff ffff 00ff ffff 00ff     ................
  40ec24:	ffff 00ff ffff 00ff ffff 00ff ffff 00ff     ................
  40ec34:	ffff 00ff ffff 00ff ffff 00ff ffff 00ff     ................
  40ec44:	ffff 00ff ffff 00ff ffff 00ff ffff 00ff     ................
  40ec54:	ffff 00ff ffff 00ff ffff 00ff ffff 00ff     ................
  40ec64:	ffff 00ff e4ee 00da 7baa 004c 4587 0000     .........{L..E..
  40ec74:	4587 0000 4587 0000 4587 0000 4587 0000     .E...E...E...E..
  40ec84:	a0c1 007d ffff 00ff ffff 00ff ffff 00ff     ..}.............
  40ec94:	ffff 00ff ffff 00ff ffff 00ff ffff 00ff     ................
  40eca4:	ffff 00ff ffff 00ff ffff 00ff ffff 00ff     ................
  40ecb4:	4587 0000 4587 0000 4587 0000 4587 0000     .E...E...E...E..
  40ecc4:	4587 0000 659c 002d fcfd 00fb ffff 00ff     .E...e-.........
  40ecd4:	ffff 00ff ffff 00ff ffff 00ff ffff 00ff     ................
  40ece4:	dde9 00d0 4587 0000 4587 0000 4587 0000     .....E...E...E..
  40ecf4:	4587 0000 4587 0000 4587 0000 4587 0000     .E...E...E...E..
  40ed04:	4587 0000 9fc0 007b ffff 00ff ffff 00ff     .E....{.........
  40ed14:	ffff 00ff ffff 00ff ffff 00ff ffff 00ff     ................
  40ed24:	ffff 00ff ffff 00ff ffff 00ff ffff 00ff     ................
  40ed34:	ffff 00ff ffff 00ff ffff 00ff ffff 00ff     ................
  40ed44:	ffff 00ff ffff 00ff ffff 00ff ffff 00ff     ................
  40ed54:	ffff 00ff ffff 00ff ffff 00ff ffff 00ff     ................
  40ed64:	ffff 00ff ffff 00ff ffff 00ff ffff 00ff     ................
  40ed74:	ffff 00ff ffff 00ff ffff 00ff ffff 00ff     ................
  40ed84:	ffff 00ff ffff 00ff ffff 00ff ffff 00ff     ................
  40ed94:	ffff 00ff ffff 00ff ffff 00ff ffff 00ff     ................
  40eda4:	ffff 00ff e3ec 00d8 5792 0019 4587 0000     .........W...E..
  40edb4:	4587 0000 4587 0000 4587 0000 4587 0000     .E...E...E...E..
  40edc4:	4587 0000 4587 0000 83af 0055 ffff 00ff     .E...E....U.....
  40edd4:	ffff 00ff ffff 00ff ffff 00ff ffff 00ff     ................
  40ede4:	ffff 00ff bad1 00a0 4587 0000 4587 0000     .........E...E..
  40edf4:	4587 0000 4587 0000 4587 0000 a5c5 0083     .E...E...E......
  40ee04:	ffff 00ff ffff 00ff ffff 00ff ffff 00ff     ................
  40ee14:	ffff 00ff ffff 00ff ffff 00ff ffff 00ff     ................
  40ee24:	ffff 00ff ffff 00ff ffff 00ff ffff 00ff     ................
  40ee34:	ffff 00ff ffff 00ff ffff 00ff ffff 00ff     ................
  40ee44:	ffff 00ff ffff 00ff ffff 00ff ffff 00ff     ................
  40ee54:	ffff 00ff ffff 00ff ffff 00ff ffff 00ff     ................
  40ee64:	ffff 00ff ffff 00ff ffff 00ff ffff 00ff     ................
  40ee74:	ffff 00ff ffff 00ff ffff 00ff ffff 00ff     ................
  40ee84:	ffff 00ff ffff 00ff ffff 00ff ffff 00ff     ................
  40ee94:	ffff 00ff ffff 00ff ffff 00ff ffff 00ff     ................
  40eea4:	ffff 00ff ffff 00ff ffff 00ff ffff 00ff     ................
  40eeb4:	ffff 00ff ffff 00ff ffff 00ff ffff 00ff     ................
  40eec4:	ffff 00ff ffff 00ff ffff 00ff ffff 00ff     ................
  40eed4:	ffff 00ff ffff 00ff ffff 00ff ffff 00ff     ................
  40eee4:	ffff 00ff ffff 00ff ffff 00ff ffff 00ff     ................
  40eef4:	ffff 00ff ffff 00ff ffff 00ff ffff 00ff     ................
  40ef04:	ffff 00ff ffff 00ff ffff 00ff ffff 00ff     ................
  40ef14:	ffff 00ff ffff 00ff ffff 00ff ffff 00ff     ................
  40ef24:	ffff 00ff ffff 00ff ffff 00ff ffff 00ff     ................
  40ef34:	ffff 00ff ffff 00ff ffff 00ff ffff 00ff     ................
  40ef44:	ffff 00ff ffff 00ff ffff 00ff ffff 00ff     ................
  40ef54:	ffff 00ff ffff 00ff ffff 00ff ffff 00ff     ................
  40ef64:	ffff 00ff ffff 00ff ffff 00ff ffff 00ff     ................
  40ef74:	ffff 00ff ffff 00ff ffff 00ff ffff 00ff     ................
  40ef84:	ffff 00ff ffff 00ff ffff 00ff ffff 00ff     ................
  40ef94:	ffff 00ff ffff 00ff ffff 00ff ffff 00ff     ................
  40efa4:	ffff 00ff ffff 00ff ffff 00ff ffff 00ff     ................
  40efb4:	ffff 00ff ffff 00ff ffff 00ff ffff 00ff     ................
  40efc4:	ffff 00ff ffff 00ff ffff 00ff ffff 00ff     ................
  40efd4:	ffff 00ff ffff 00ff ffff 00ff ffff 00ff     ................
  40efe4:	ffff 00ff ffff 00ff ffff 00ff ffff 00ff     ................
  40eff4:	ffff 00ff ffff 00ff ffff 00ff ffff 00ff     ................
  40f004:	ffff 00ff ffff 00ff ffff 00ff ffff 00ff     ................
  40f014:	ffff 00ff ffff 00ff ffff 00ff f7f9 00f4     ................
  40f024:	a2c2 007f 4a8a 0007 4587 0000 4587 0000     .....J...E...E..
  40f034:	4587 0000 4587 0000 4587 0000 4587 0000     .E...E...E...E..
  40f044:	528e 0012 f7f9 00f4 ffff 00ff ffff 00ff     .R..............
  40f054:	ffff 00ff ffff 00ff ffff 00ff ffff 00ff     ................
  40f064:	ffff 00ff ffff 00ff ffff 00ff ffff 00ff     ................
  40f074:	4587 0000 4587 0000 4587 0000 4587 0000     .E...E...E...E..
  40f084:	4587 0000 cbde 00b9 ffff 00ff ffff 00ff     .E..............
  40f094:	ffff 00ff ffff 00ff ffff 00ff ffff 00ff     ................
  40f0a4:	dde9 00d0 4587 0000 4587 0000 4587 0000     .....E...E...E..
  40f0b4:	4587 0000 4587 0000 4587 0000 4587 0000     .E...E...E...E..
  40f0c4:	92b7 0069 ffff 00ff ffff 00ff ffff 00ff     ..i.............
  40f0d4:	ffff 00ff ffff 00ff ffff 00ff ffff 00ff     ................
  40f0e4:	ffff 00ff ffff 00ff ffff 00ff ffff 00ff     ................
  40f0f4:	ffff 00ff ffff 00ff ffff 00ff ffff 00ff     ................
  40f104:	ffff 00ff ffff 00ff ffff 00ff ffff 00ff     ................
  40f114:	ffff 00ff ffff 00ff ffff 00ff ffff 00ff     ................
  40f124:	ffff 00ff ffff 00ff ffff 00ff ffff 00ff     ................
  40f134:	ffff 00ff ffff 00ff ffff 00ff ffff 00ff     ................
  40f144:	ffff 00ff ffff 00ff ffff 00ff ffff 00ff     ................
  40f154:	ffff 00ff ffff 00ff ffff 00ff ffff 00ff     ................
  40f164:	ffff 00ff ffff 00ff dfe9 00d3 518f 0011     .............Q..
  40f174:	4587 0000 4587 0000 4587 0000 4587 0000     .E...E...E...E..
  40f184:	4587 0000 4587 0000 83af 0055 ffff 00ff     .E...E....U.....
  40f194:	ffff 00ff ffff 00ff ffff 00ff ffff 00ff     ................
  40f1a4:	ffff 00ff feff 00fe 689f 0032 4587 0000     .........h2..E..
  40f1b4:	4587 0000 4587 0000 4587 0000 a5c5 0083     .E...E...E......
  40f1c4:	ffff 00ff ffff 00ff ffff 00ff ffff 00ff     ................
  40f1d4:	ffff 00ff ffff 00ff ffff 00ff ffff 00ff     ................
  40f1e4:	ffff 00ff ffff 00ff ffff 00ff ffff 00ff     ................
  40f1f4:	ffff 00ff ffff 00ff ffff 00ff ffff 00ff     ................
  40f204:	ffff 00ff ffff 00ff ffff 00ff ffff 00ff     ................
  40f214:	ffff 00ff ffff 00ff ffff 00ff ffff 00ff     ................
  40f224:	ffff 00ff ffff 00ff ffff 00ff ffff 00ff     ................
  40f234:	ffff 00ff ffff 00ff ffff 00ff ffff 00ff     ................
  40f244:	ffff 00ff ffff 00ff ffff 00ff ffff 00ff     ................
  40f254:	ffff 00ff ffff 00ff ffff 00ff ffff 00ff     ................
  40f264:	ffff 00ff ffff 00ff ffff 00ff ffff 00ff     ................
  40f274:	ffff 00ff ffff 00ff ffff 00ff ffff 00ff     ................
  40f284:	ffff 00ff ffff 00ff ffff 00ff ffff 00ff     ................
  40f294:	ffff 00ff ffff 00ff ffff 00ff ffff 00ff     ................
  40f2a4:	ffff 00ff ffff 00ff ffff 00ff ffff 00ff     ................
  40f2b4:	ffff 00ff ffff 00ff ffff 00ff ffff 00ff     ................
  40f2c4:	ffff 00ff ffff 00ff ffff 00ff ffff 00ff     ................
  40f2d4:	ffff 00ff ffff 00ff ffff 00ff ffff 00ff     ................
  40f2e4:	ffff 00ff ffff 00ff ffff 00ff ffff 00ff     ................
  40f2f4:	ffff 00ff ffff 00ff ffff 00ff ffff 00ff     ................
  40f304:	ffff 00ff ffff 00ff ffff 00ff ffff 00ff     ................
  40f314:	ffff 00ff ffff 00ff ffff 00ff ffff 00ff     ................
  40f324:	ffff 00ff ffff 00ff ffff 00ff ffff 00ff     ................
  40f334:	ffff 00ff ffff 00ff ffff 00ff ffff 00ff     ................
  40f344:	ffff 00ff ffff 00ff ffff 00ff ffff 00ff     ................
  40f354:	ffff 00ff ffff 00ff ffff 00ff ffff 00ff     ................
  40f364:	ffff 00ff ffff 00ff ffff 00ff ffff 00ff     ................
  40f374:	ffff 00ff ffff 00ff ffff 00ff ffff 00ff     ................
  40f384:	ffff 00ff ffff 00ff ffff 00ff ffff 00ff     ................
  40f394:	ffff 00ff ffff 00ff ffff 00ff ffff 00ff     ................
  40f3a4:	ffff 00ff ffff 00ff ffff 00ff ffff 00ff     ................
  40f3b4:	ffff 00ff ffff 00ff ffff 00ff ffff 00ff     ................
  40f3c4:	ffff 00ff ffff 00ff ffff 00ff ffff 00ff     ................
  40f3d4:	ffff 00ff ffff 00ff fdfe 00fc 5f96 0023     ............._#.
  40f3e4:	4587 0000 4587 0000 4587 0000 4587 0000     .E...E...E...E..
  40f3f4:	4587 0000 4587 0000 5d97 0022 98bd 0072     .E...E...]"...r.
  40f404:	d2e2 00c1 fdfe 00fc ffff 00ff ffff 00ff     ................
  40f414:	ffff 00ff ffff 00ff ffff 00ff ffff 00ff     ................
  40f424:	ffff 00ff ffff 00ff ffff 00ff ffff 00ff     ................
  40f434:	4587 0000 4587 0000 4587 0000 4587 0000     .E...E...E...E..
  40f444:	689f 0032 feff 00fe ffff 00ff ffff 00ff     .h2.............
  40f454:	ffff 00ff ffff 00ff ffff 00ff ffff 00ff     ................
  40f464:	dde9 00d0 4587 0000 4587 0000 4587 0000     .....E...E...E..
  40f474:	4587 0000 4587 0000 4587 0000 80ad 0051     .E...E...E....Q.
  40f484:	fefe 00fd ffff 00ff ffff 00ff ffff 00ff     ................
  40f494:	ffff 00ff ffff 00ff ffff 00ff ffff 00ff     ................
  40f4a4:	ffff 00ff ffff 00ff ffff 00ff ffff 00ff     ................
  40f4b4:	ffff 00ff ffff 00ff ffff 00ff ffff 00ff     ................
  40f4c4:	ffff 00ff ffff 00ff ffff 00ff ffff 00ff     ................
  40f4d4:	ffff 00ff ffff 00ff ffff 00ff ffff 00ff     ................
  40f4e4:	ffff 00ff ffff 00ff ffff 00ff ffff 00ff     ................
  40f4f4:	ffff 00ff ffff 00ff ffff 00ff ffff 00ff     ................
  40f504:	ffff 00ff ffff 00ff ffff 00ff ffff 00ff     ................
  40f514:	ffff 00ff ffff 00ff ffff 00ff ffff 00ff     ................
  40f524:	ffff 00ff ffff 00ff ffff 00ff d1e1 00c0     ................
  40f534:	4788 0004 4587 0000 4587 0000 4587 0000     .G...E...E...E..
  40f544:	4587 0000 4587 0000 83af 0055 ffff 00ff     .E...E....U.....
  40f554:	ffff 00ff ffff 00ff ffff 00ff ffff 00ff     ................
  40f564:	ffff 00ff ffff 00ff bfd6 00a9 4587 0000     .............E..
  40f574:	4587 0000 4587 0000 4587 0000 a5c5 0083     .E...E...E......
  40f584:	ffff 00ff ffff 00ff ffff 00ff ffff 00ff     ................
  40f594:	ffff 00ff ffff 00ff ffff 00ff ffff 00ff     ................
  40f5a4:	ffff 00ff ffff 00ff ffff 00ff ffff 00ff     ................
  40f5b4:	ffff 00ff ffff 00ff ffff 00ff ffff 00ff     ................
  40f5c4:	ffff 00ff ffff 00ff ffff 00ff ffff 00ff     ................
  40f5d4:	ffff 00ff ffff 00ff ffff 00ff ffff 00ff     ................
  40f5e4:	ffff 00ff ffff 00ff ffff 00ff ffff 00ff     ................
  40f5f4:	ffff 00ff ffff 00ff ffff 00ff ffff 00ff     ................
  40f604:	ffff 00ff ffff 00ff ffff 00ff ffff 00ff     ................
  40f614:	ffff 00ff ffff 00ff ffff 00ff ffff 00ff     ................
  40f624:	ffff 00ff ffff 00ff ffff 00ff ffff 00ff     ................
  40f634:	ffff 00ff ffff 00ff ffff 00ff ffff 00ff     ................
  40f644:	ffff 00ff ffff 00ff ffff 00ff ffff 00ff     ................
  40f654:	ffff 00ff ffff 00ff ffff 00ff ffff 00ff     ................
  40f664:	ffff 00ff ffff 00ff ffff 00ff ffff 00ff     ................
  40f674:	ffff 00ff ffff 00ff ffff 00ff ffff 00ff     ................
  40f684:	ffff 00ff ffff 00ff ffff 00ff ffff 00ff     ................
  40f694:	ffff 00ff ffff 00ff ffff 00ff ffff 00ff     ................
  40f6a4:	ffff 00ff ffff 00ff ffff 00ff ffff 00ff     ................
  40f6b4:	ffff 00ff ffff 00ff ffff 00ff ffff 00ff     ................
  40f6c4:	ffff 00ff ffff 00ff ffff 00ff ffff 00ff     ................
  40f6d4:	ffff 00ff ffff 00ff ffff 00ff ffff 00ff     ................
  40f6e4:	ffff 00ff ffff 00ff ffff 00ff ffff 00ff     ................
  40f6f4:	ffff 00ff ffff 00ff ffff 00ff ffff 00ff     ................
  40f704:	ffff 00ff ffff 00ff ffff 00ff ffff 00ff     ................
  40f714:	ffff 00ff ffff 00ff ffff 00ff ffff 00ff     ................
  40f724:	ffff 00ff ffff 00ff ffff 00ff ffff 00ff     ................
  40f734:	ffff 00ff ffff 00ff ffff 00ff ffff 00ff     ................
  40f744:	ffff 00ff ffff 00ff ffff 00ff ffff 00ff     ................
  40f754:	ffff 00ff ffff 00ff ffff 00ff ffff 00ff     ................
  40f764:	ffff 00ff ffff 00ff ffff 00ff ffff 00ff     ................
  40f774:	ffff 00ff ffff 00ff ffff 00ff ffff 00ff     ................
  40f784:	ffff 00ff ffff 00ff ffff 00ff ffff 00ff     ................
  40f794:	ffff 00ff ffff 00ff ffff 00ff 91b8 006a     ..............j.
  40f7a4:	4587 0000 4587 0000 4587 0000 689f 0032     .E...E...E...h2.
  40f7b4:	a3c4 0081 dde8 00d1 ffff 00ff ffff 00ff     ................
  40f7c4:	ffff 00ff ffff 00ff ffff 00ff ffff 00ff     ................
  40f7d4:	ffff 00ff ffff 00ff ffff 00ff ffff 00ff     ................
  40f7e4:	ffff 00ff ffff 00ff ffff 00ff ffff 00ff     ................
  40f7f4:	4587 0000 4587 0000 4587 0000 4587 0000     .E...E...E...E..
  40f804:	c6d9 00b1 ffff 00ff ffff 00ff ffff 00ff     ................
  40f814:	ffff 00ff ffff 00ff ffff 00ff ffff 00ff     ................
  40f824:	dde9 00d0 4587 0000 4587 0000 4587 0000     .....E...E...E..
  40f834:	4587 0000 4587 0000 5f96 0023 f4f8 00f0     .E...E..._#.....
  40f844:	ffff 00ff ffff 00ff ffff 00ff ffff 00ff     ................
  40f854:	ffff 00ff ffff 00ff ffff 00ff ffff 00ff     ................
  40f864:	ffff 00ff ffff 00ff ffff 00ff ffff 00ff     ................
  40f874:	ffff 00ff ffff 00ff ffff 00ff ffff 00ff     ................
  40f884:	ffff 00ff ffff 00ff ffff 00ff ffff 00ff     ................
  40f894:	ffff 00ff ffff 00ff ffff 00ff ffff 00ff     ................
  40f8a4:	ffff 00ff ffff 00ff ffff 00ff ffff 00ff     ................
  40f8b4:	ffff 00ff ffff 00ff ffff 00ff ffff 00ff     ................
  40f8c4:	ffff 00ff ffff 00ff ffff 00ff ffff 00ff     ................
  40f8d4:	ffff 00ff ffff 00ff ffff 00ff ffff 00ff     ................
  40f8e4:	ffff 00ff ffff 00ff ffff 00ff ffff 00ff     ................
  40f8f4:	a8c7 0089 4587 0000 4587 0000 4587 0000     .....E...E...E..
  40f904:	4587 0000 4587 0000 83af 0055 ffff 00ff     .E...E....U.....
  40f914:	ffff 00ff ffff 00ff ffff 00ff ffff 00ff     ................
  40f924:	ffff 00ff ffff 00ff fefe 00fd 659b 002c     .............e,.
  40f934:	4587 0000 4587 0000 4587 0000 a5c5 0083     .E...E...E......
  40f944:	ffff 00ff ffff 00ff ffff 00ff ffff 00ff     ................
  40f954:	ffff 00ff ffff 00ff ffff 00ff ffff 00ff     ................
  40f964:	ffff 00ff ffff 00ff ffff 00ff ffff 00ff     ................
  40f974:	ffff 00ff ffff 00ff ffff 00ff ffff 00ff     ................
  40f984:	ffff 00ff ffff 00ff ffff 00ff ffff 00ff     ................
  40f994:	ffff 00ff ffff 00ff ffff 00ff ffff 00ff     ................
  40f9a4:	ffff 00ff ffff 00ff ffff 00ff ffff 00ff     ................
  40f9b4:	ffff 00ff ffff 00ff ffff 00ff ffff 00ff     ................
  40f9c4:	ffff 00ff ffff 00ff ffff 00ff ffff 00ff     ................
  40f9d4:	ffff 00ff ffff 00ff ffff 00ff ffff 00ff     ................
  40f9e4:	ffff 00ff ffff 00ff ffff 00ff ffff 00ff     ................
  40f9f4:	ffff 00ff ffff 00ff ffff 00ff ffff 00ff     ................
  40fa04:	ffff 00ff ffff 00ff ffff 00ff ffff 00ff     ................
  40fa14:	ffff 00ff ffff 00ff ffff 00ff ffff 00ff     ................
  40fa24:	ffff 00ff ffff 00ff ffff 00ff ffff 00ff     ................
  40fa34:	ffff 00ff ffff 00ff ffff 00ff ffff 00ff     ................
  40fa44:	ffff 00ff ffff 00ff ffff 00ff ffff 00ff     ................
  40fa54:	ffff 00ff ffff 00ff ffff 00ff ffff 00ff     ................
  40fa64:	ffff 00ff ffff 00ff ffff 00ff ffff 00ff     ................
  40fa74:	ffff 00ff ffff 00ff ffff 00ff ffff 00ff     ................
  40fa84:	ffff 00ff ffff 00ff ffff 00ff ffff 00ff     ................
  40fa94:	ffff 00ff ffff 00ff ffff 00ff ffff 00ff     ................
  40faa4:	ffff 00ff ffff 00ff ffff 00ff ffff 00ff     ................
  40fab4:	ffff 00ff ffff 00ff ffff 00ff ffff 00ff     ................
  40fac4:	ffff 00ff ffff 00ff ffff 00ff ffff 00ff     ................
  40fad4:	ffff 00ff ffff 00ff ffff 00ff ffff 00ff     ................
  40fae4:	ffff 00ff ffff 00ff ffff 00ff ffff 00ff     ................
  40faf4:	ffff 00ff ffff 00ff ffff 00ff ffff 00ff     ................
  40fb04:	ffff 00ff ffff 00ff ffff 00ff ffff 00ff     ................
  40fb14:	ffff 00ff ffff 00ff ffff 00ff ffff 00ff     ................
  40fb24:	ffff 00ff ffff 00ff ffff 00ff ffff 00ff     ................
  40fb34:	ffff 00ff ffff 00ff ffff 00ff ffff 00ff     ................
  40fb44:	ffff 00ff ffff 00ff ffff 00ff ffff 00ff     ................
  40fb54:	ffff 00ff ffff 00ff ffff 00ff e5ee 00dc     ................
  40fb64:	75a6 0042 afca 0091 e8f0 00e0 ffff 00ff     .uB.............
  40fb74:	ffff 00ff ffff 00ff ffff 00ff ffff 00ff     ................
  40fb84:	ffff 00ff ffff 00ff ffff 00ff ffff 00ff     ................
  40fb94:	ffff 00ff ffff 00ff ffff 00ff ffff 00ff     ................
  40fba4:	ffff 00ff ffff 00ff ffff 00ff ffff 00ff     ................
  40fbb4:	4587 0000 4587 0000 4587 0000 659b 002c     .E...E...E...e,.
  40fbc4:	feff 00fe ffff 00ff ffff 00ff ffff 00ff     ................
  40fbd4:	ffff 00ff ffff 00ff ffff 00ff ffff 00ff     ................
  40fbe4:	dde9 00d0 4587 0000 4587 0000 4587 0000     .....E...E...E..
  40fbf4:	4587 0000 4889 0005 dae7 00cd ffff 00ff     .E...H..........
  40fc04:	ffff 00ff ffff 00ff ffff 00ff ffff 00ff     ................
  40fc14:	ffff 00ff ffff 00ff ffff 00ff ffff 00ff     ................
  40fc24:	ffff 00ff ffff 00ff ffff 00ff ffff 00ff     ................
  40fc34:	ffff 00ff ffff 00ff ffff 00ff ffff 00ff     ................
  40fc44:	ffff 00ff ffff 00ff ffff 00ff ffff 00ff     ................
  40fc54:	ffff 00ff ffff 00ff ffff 00ff ffff 00ff     ................
  40fc64:	ffff 00ff ffff 00ff ffff 00ff ffff 00ff     ................
  40fc74:	ffff 00ff ffff 00ff ffff 00ff ffff 00ff     ................
  40fc84:	ffff 00ff ffff 00ff ffff 00ff ffff 00ff     ................
  40fc94:	ffff 00ff ffff 00ff ffff 00ff ffff 00ff     ................
  40fca4:	ffff 00ff ffff 00ff ffff 00ff ffff 00ff     ................
  40fcb4:	feff 00fe 7aa9 0049 4587 0000 4587 0000     .....zI..E...E..
  40fcc4:	4587 0000 4587 0000 83af 0055 ffff 00ff     .E...E....U.....
  40fcd4:	ffff 00ff ffff 00ff ffff 00ff ffff 00ff     ................
  40fce4:	ffff 00ff ffff 00ff ffff 00ff bad1 00a0     ................
  40fcf4:	4587 0000 4587 0000 4587 0000 a5c5 0083     .E...E...E......
  40fd04:	ffff 00ff ffff 00ff ffff 00ff ffff 00ff     ................
  40fd14:	ffff 00ff ffff 00ff ffff 00ff ffff 00ff     ................
  40fd24:	ffff 00ff ffff 00ff ffff 00ff ffff 00ff     ................
  40fd34:	ffff 00ff ffff 00ff ffff 00ff ffff 00ff     ................
  40fd44:	ffff 00ff ffff 00ff ffff 00ff ffff 00ff     ................
  40fd54:	ffff 00ff ffff 00ff ffff 00ff ffff 00ff     ................
  40fd64:	ffff 00ff ffff 00ff ffff 00ff ffff 00ff     ................
  40fd74:	ffff 00ff ffff 00ff ffff 00ff ffff 00ff     ................
  40fd84:	ffff 00ff ffff 00ff ffff 00ff ffff 00ff     ................
  40fd94:	ffff 00ff ffff 00ff ffff 00ff ffff 00ff     ................
  40fda4:	ffff 00ff ffff 00ff ffff 00ff ffff 00ff     ................
  40fdb4:	ffff 00ff ffff 00ff ffff 00ff ffff 00ff     ................
  40fdc4:	ffff 00ff ffff 00ff ffff 00ff ffff 00ff     ................
  40fdd4:	ffff 00ff ffff 00ff ffff 00ff ffff 00ff     ................
  40fde4:	ffff 00ff ffff 00ff ffff 00ff ffff 00ff     ................
  40fdf4:	ffff 00ff ffff 00ff ffff 00ff ffff 00ff     ................
  40fe04:	ffff 00ff ffff 00ff ffff 00ff ffff 00ff     ................
  40fe14:	ffff 00ff ffff 00ff ffff 00ff ffff 00ff     ................
  40fe24:	ffff 00ff ffff 00ff ffff 00ff ffff 00ff     ................
  40fe34:	ffff 00ff ffff 00ff ffff 00ff ffff 00ff     ................
  40fe44:	ffff 00ff ffff 00ff ffff 00ff ffff 00ff     ................
  40fe54:	ffff 00ff ffff 00ff ffff 00ff ffff 00ff     ................
  40fe64:	ffff 00ff ffff 00ff ffff 00ff ffff 00ff     ................
  40fe74:	ffff 00ff ffff 00ff ffff 00ff ffff 00ff     ................
  40fe84:	ffff 00ff ffff 00ff ffff 00ff ffff 00ff     ................
  40fe94:	ffff 00ff ffff 00ff ffff 00ff ffff 00ff     ................
  40fea4:	ffff 00ff ffff 00ff ffff 00ff ffff 00ff     ................
  40feb4:	ffff 00ff ffff 00ff ffff 00ff ffff 00ff     ................
  40fec4:	ffff 00ff ffff 00ff ffff 00ff ffff 00ff     ................
  40fed4:	ffff 00ff ffff 00ff ffff 00ff ffff 00ff     ................
  40fee4:	ffff 00ff ffff 00ff ffff 00ff ffff 00ff     ................
  40fef4:	ffff 00ff ffff 00ff ffff 00ff ffff 00ff     ................
  40ff04:	ffff 00ff ffff 00ff ffff 00ff ffff 00ff     ................
  40ff14:	ffff 00ff ffff 00ff ffff 00ff ffff 00ff     ................
  40ff24:	ffff 00ff ffff 00ff ffff 00ff ffff 00ff     ................
  40ff34:	ffff 00ff ffff 00ff ffff 00ff ffff 00ff     ................
  40ff44:	ffff 00ff ffff 00ff ffff 00ff ffff 00ff     ................
  40ff54:	ffff 00ff ffff 00ff ffff 00ff ffff 00ff     ................
  40ff64:	ffff 00ff ffff 00ff ffff 00ff ffff 00ff     ................
  40ff74:	4587 0000 4587 0000 4587 0000 acc9 008f     .E...E...E......
  40ff84:	ffff 00ff ffff 00ff ffff 00ff ffff 00ff     ................
  40ff94:	ffff 00ff ffff 00ff ffff 00ff ffff 00ff     ................
  40ffa4:	dde9 00d0 4587 0000 4587 0000 4587 0000     .....E...E...E..
  40ffb4:	4587 0000 9bbf 0076 ffff 00ff ffff 00ff     .E....v.........
  40ffc4:	ffff 00ff ffff 00ff ffff 00ff ffff 00ff     ................
  40ffd4:	ffff 00ff ffff 00ff ffff 00ff ffff 00ff     ................
  40ffe4:	ffff 00ff ffff 00ff ffff 00ff ffff 00ff     ................
  40fff4:	ffff 00ff ffff 00ff ffff 00ff ffff 00ff     ................
  410004:	ffff 00ff ffff 00ff ffff 00ff ffff 00ff     ................
  410014:	ffff 00ff ffff 00ff ffff 00ff ffff 00ff     ................
  410024:	ffff 00ff ffff 00ff ffff 00ff ffff 00ff     ................
  410034:	ffff 00ff ffff 00ff ffff 00ff ffff 00ff     ................
  410044:	ffff 00ff ffff 00ff ffff 00ff ffff 00ff     ................
  410054:	ffff 00ff ffff 00ff ffff 00ff ffff 00ff     ................
  410064:	ffff 00ff ffff 00ff ffff 00ff ffff 00ff     ................
  410074:	ffff 00ff e9f1 00e1 4d8c 000c 4587 0000     .........M...E..
  410084:	4587 0000 4587 0000 83af 0055 ffff 00ff     .E...E....U.....
  410094:	ffff 00ff ffff 00ff ffff 00ff ffff 00ff     ................
  4100a4:	ffff 00ff ffff 00ff ffff 00ff f8fb 00f6     ................
  4100b4:	4f8e 000f 4587 0000 4587 0000 a5c5 0083     .O...E...E......
  4100c4:	ffff 00ff ffff 00ff ffff 00ff ffff 00ff     ................
  4100d4:	ffff 00ff ffff 00ff ffff 00ff ffff 00ff     ................
  4100e4:	ffff 00ff ffff 00ff ffff 00ff ffff 00ff     ................
  4100f4:	ffff 00ff ffff 00ff ffff 00ff ffff 00ff     ................
  410104:	ffff 00ff ffff 00ff ffff 00ff ffff 00ff     ................
  410114:	ffff 00ff f7f9 00f4 e6ef 00dd e6ef 00dd     ................
  410124:	e6ef 00dd e6ef 00dd e6ef 00dd e6ef 00dd     ................
  410134:	e6ef 00dd e6ef 00dd e6ef 00dd e6ef 00dd     ................
  410144:	e6ef 00dd e6ef 00dd f2f7 00ed ffff 00ff     ................
  410154:	ffff 00ff ffff 00ff ffff 00ff ffff 00ff     ................
  410164:	ffff 00ff ffff 00ff ffff 00ff ffff 00ff     ................
  410174:	ffff 00ff ffff 00ff e8ef 00df e6ef 00dd     ................
  410184:	e6ef 00dd e6ef 00dd e6ef 00dd e6ef 00dd     ................
  410194:	e6ef 00dd e6ef 00dd e6ef 00dd e6ef 00dd     ................
  4101a4:	e6ef 00dd e6ef 00dd e6ef 00dd f9fb 00f7     ................
  4101b4:	ffff 00ff ffff 00ff ffff 00ff ffff 00ff     ................
  4101c4:	ffff 00ff ffff 00ff ffff 00ff ffff 00ff     ................
  4101d4:	ffff 00ff ffff 00ff ffff 00ff e9f1 00e2     ................
  4101e4:	e6ef 00dd e6ef 00dd e6ef 00dd e6ef 00dd     ................
  4101f4:	e6ef 00dd e6ef 00dd e6ef 00dd e6ef 00dd     ................
  410204:	e6ef 00dd e6ef 00dd e6ef 00dd f3f7 00ef     ................
  410214:	ffff 00ff ffff 00ff ffff 00ff ffff 00ff     ................
  410224:	ffff 00ff ffff 00ff ffff 00ff ffff 00ff     ................
  410234:	ffff 00ff ffff 00ff ffff 00ff f6f9 00f3     ................
  410244:	e6ef 00dd e6ef 00dd e6ef 00dd e6ef 00dd     ................
  410254:	e6ef 00dd e6ef 00dd e6ef 00dd ecf3 00e6     ................
  410264:	ffff 00ff ffff 00ff ffff 00ff ffff 00ff     ................
  410274:	ffff 00ff ffff 00ff ffff 00ff ffff 00ff     ................
  410284:	ffff 00ff f8fa 00f5 e6ef 00dd e6ef 00dd     ................
  410294:	e6ef 00dd e6ef 00dd e6ef 00dd e6ef 00dd     ................
  4102a4:	e6ef 00dd ebf2 00e3 ffff 00ff ffff 00ff     ................
  4102b4:	ffff 00ff ffff 00ff ffff 00ff ffff 00ff     ................
  4102c4:	ffff 00ff ffff 00ff ffff 00ff ffff 00ff     ................
  4102d4:	ffff 00ff fafc 00f8 e6ef 00dd e6ef 00dd     ................
  4102e4:	e6ef 00dd e6ef 00dd e6ef 00dd e6ef 00dd     ................
  4102f4:	e6ef 00dd e6ef 00dd e6ef 00dd e6ef 00dd     ................
  410304:	e6ef 00dd e6ef 00dd fbfd 00fa ffff 00ff     ................
  410314:	ffff 00ff ffff 00ff ffff 00ff ffff 00ff     ................
  410324:	ffff 00ff ffff 00ff ffff 00ff ffff 00ff     ................
  410334:	4587 0000 4587 0000 4788 0004 edf3 00e7     .E...E...G......
  410344:	ffff 00ff ffff 00ff ffff 00ff ffff 00ff     ................
  410354:	ffff 00ff ffff 00ff ffff 00ff ffff 00ff     ................
  410364:	dde9 00d0 4587 0000 4587 0000 4587 0000     .....E...E...E..
  410374:	5a94 001d f6f9 00f3 ffff 00ff ffff 00ff     .Z..............
  410384:	ffff 00ff ffff 00ff ffff 00ff ffff 00ff     ................
  410394:	ffff 00ff ffff 00ff ffff 00ff ffff 00ff     ................
  4103a4:	ffff 00ff ffff 00ff ffff 00ff ffff 00ff     ................
  4103b4:	ffff 00ff ffff 00ff ffff 00ff ffff 00ff     ................
  4103c4:	ffff 00ff ffff 00ff ffff 00ff ffff 00ff     ................
  4103d4:	ffff 00ff ffff 00ff ffff 00ff ffff 00ff     ................
  4103e4:	ffff 00ff ffff 00ff ffff 00ff ffff 00ff     ................
  4103f4:	ffff 00ff ffff 00ff ffff 00ff ffff 00ff     ................
  410404:	ffff 00ff ffff 00ff ffff 00ff ffff 00ff     ................
  410414:	ffff 00ff ffff 00ff ffff 00ff ffff 00ff     ................
  410424:	ffff 00ff ffff 00ff ffff 00ff ffff 00ff     ................
  410434:	ffff 00ff ffff 00ff a8c7 0088 4587 0000     .............E..
  410444:	4587 0000 4587 0000 83af 0055 ffff 00ff     .E...E....U.....
  410454:	ffff 00ff ffff 00ff ffff 00ff ffff 00ff     ................
  410464:	ffff 00ff ffff 00ff ffff 00ff ffff 00ff     ................
  410474:	8bb5 0062 4587 0000 4587 0000 a5c5 0083     ..b..E...E......
  410484:	ffff 00ff ffff 00ff ffff 00ff ffff 00ff     ................
  410494:	ffff 00ff ffff 00ff ffff 00ff ffff 00ff     ................
  4104a4:	ffff 00ff ffff 00ff ffff 00ff ffff 00ff     ................
  4104b4:	ffff 00ff ffff 00ff ffff 00ff ffff 00ff     ................
  4104c4:	ffff 00ff ffff 00ff ffff 00ff ffff 00ff     ................
  4104d4:	ffff 00ff c2d7 00ac 4587 0000 4587 0000     .........E...E..
  4104e4:	4587 0000 4587 0000 4587 0000 4587 0000     .E...E...E...E..
  4104f4:	4587 0000 4587 0000 4587 0000 4587 0000     .E...E...E...E..
  410504:	4587 0000 4587 0000 7aa9 004a ffff 00ff     .E...E...zJ.....
  410514:	ffff 00ff ffff 00ff ffff 00ff ffff 00ff     ................
  410524:	ffff 00ff ffff 00ff ffff 00ff ffff 00ff     ................
  410534:	ffff 00ff e9f1 00e1 4587 0000 4587 0000     .........E...E..
  410544:	4587 0000 4587 0000 4587 0000 4587 0000     .E...E...E...E..
  410554:	4587 0000 4587 0000 4587 0000 4587 0000     .E...E...E...E..
  410564:	4587 0000 4587 0000 4587 0000 d3e3 00c3     .E...E...E......
  410574:	ffff 00ff ffff 00ff ffff 00ff ffff 00ff     ................
  410584:	ffff 00ff ffff 00ff ffff 00ff ffff 00ff     ................
  410594:	ffff 00ff ffff 00ff f5f8 00f1 4989 0006     .............I..
  4105a4:	4587 0000 4587 0000 4587 0000 4587 0000     .E...E...E...E..
  4105b4:	4587 0000 4587 0000 4587 0000 4587 0000     .E...E...E...E..
  4105c4:	4587 0000 4587 0000 4587 0000 85af 0058     .E...E...E....X.
  4105d4:	ffff 00ff ffff 00ff ffff 00ff ffff 00ff     ................
  4105e4:	ffff 00ff ffff 00ff ffff 00ff ffff 00ff     ................
  4105f4:	ffff 00ff ffff 00ff ffff 00ff bcd4 00a4     ................
  410604:	4587 0000 4587 0000 4587 0000 4587 0000     .E...E...E...E..
  410614:	4587 0000 4587 0000 4587 0000 77a7 0044     .E...E...E...wD.
  410624:	ffff 00ff ffff 00ff ffff 00ff ffff 00ff     ................
  410634:	ffff 00ff ffff 00ff ffff 00ff ffff 00ff     ................
  410644:	ffff 00ff c6d9 00b1 4587 0000 4587 0000     .........E...E..
  410654:	4587 0000 4587 0000 4587 0000 4587 0000     .E...E...E...E..
  410664:	4587 0000 689e 0030 ffff 00ff ffff 00ff     .E...h0.........
  410674:	ffff 00ff ffff 00ff ffff 00ff ffff 00ff     ................
  410684:	ffff 00ff ffff 00ff ffff 00ff ffff 00ff     ................
  410694:	ffff 00ff b7d0 009c 4587 0000 4587 0000     .........E...E..
  4106a4:	4587 0000 4587 0000 4587 0000 4587 0000     .E...E...E...E..
  4106b4:	4587 0000 4587 0000 4587 0000 4587 0000     .E...E...E...E..
  4106c4:	4587 0000 4587 0000 c2d7 00ab ffff 00ff     .E...E..........
  4106d4:	ffff 00ff ffff 00ff ffff 00ff ffff 00ff     ................
  4106e4:	ffff 00ff ffff 00ff ffff 00ff ffff 00ff     ................
  4106f4:	4587 0000 4587 0000 7dab 004d ffff 00ff     .E...E...}M.....
  410704:	ffff 00ff ffff 00ff ffff 00ff ffff 00ff     ................
  410714:	ffff 00ff ffff 00ff ffff 00ff ffff 00ff     ................
  410724:	dde9 00d0 4587 0000 4587 0000 4587 0000     .....E...E...E..
  410734:	b7d0 009e ffff 00ff ffff 00ff ffff 00ff     ................
  410744:	ffff 00ff ffff 00ff ffff 00ff ffff 00ff     ................
  410754:	ffff 00ff ffff 00ff ffff 00ff ffff 00ff     ................
  410764:	ffff 00ff ffff 00ff ffff 00ff ffff 00ff     ................
  410774:	ffff 00ff ffff 00ff ffff 00ff ffff 00ff     ................
  410784:	ffff 00ff ffff 00ff ffff 00ff ffff 00ff     ................
  410794:	ffff 00ff ffff 00ff ffff 00ff ffff 00ff     ................
  4107a4:	ffff 00ff ffff 00ff ffff 00ff ffff 00ff     ................
  4107b4:	ffff 00ff ffff 00ff ffff 00ff ffff 00ff     ................
  4107c4:	ffff 00ff ffff 00ff ffff 00ff ffff 00ff     ................
  4107d4:	ffff 00ff ffff 00ff ffff 00ff ffff 00ff     ................
  4107e4:	ffff 00ff ffff 00ff ffff 00ff ffff 00ff     ................
  4107f4:	ffff 00ff ffff 00ff fbfc 00f9 5a95 001e     .............Z..
  410804:	4587 0000 4587 0000 83af 0055 ffff 00ff     .E...E....U.....
  410814:	ffff 00ff ffff 00ff ffff 00ff ffff 00ff     ................
  410824:	ffff 00ff ffff 00ff ffff 00ff ffff 00ff     ................
  410834:	d1e1 00c0 4587 0000 4587 0000 a5c5 0083     .....E...E......
  410844:	ffff 00ff ffff 00ff ffff 00ff ffff 00ff     ................
  410854:	ffff 00ff ffff 00ff ffff 00ff ffff 00ff     ................
  410864:	ffff 00ff ffff 00ff ffff 00ff ffff 00ff     ................
  410874:	ffff 00ff ffff 00ff ffff 00ff ffff 00ff     ................
  410884:	ffff 00ff ffff 00ff ffff 00ff ffff 00ff     ................
  410894:	ffff 00ff c2d7 00ac 4587 0000 4587 0000     .........E...E..
  4108a4:	4587 0000 4587 0000 4587 0000 4587 0000     .E...E...E...E..
  4108b4:	4587 0000 4587 0000 4587 0000 4587 0000     .E...E...E...E..
  4108c4:	4587 0000 4587 0000 4a8a 0007 f5f8 00f2     .E...E...J......
  4108d4:	ffff 00ff ffff 00ff ffff 00ff ffff 00ff     ................
  4108e4:	ffff 00ff ffff 00ff ffff 00ff ffff 00ff     ................
  4108f4:	ffff 00ff b2cd 0095 4587 0000 4587 0000     .........E...E..
  410904:	4587 0000 4587 0000 4587 0000 4587 0000     .E...E...E...E..
  410914:	4587 0000 4587 0000 4587 0000 4587 0000     .E...E...E...E..
  410924:	4587 0000 4587 0000 4587 0000 d3e3 00c3     .E...E...E......
  410934:	ffff 00ff ffff 00ff ffff 00ff ffff 00ff     ................
  410944:	ffff 00ff ffff 00ff ffff 00ff ffff 00ff     ................
  410954:	ffff 00ff ffff 00ff bfd6 00a8 4587 0000     .............E..
  410964:	4587 0000 4587 0000 4587 0000 4587 0000     .E...E...E...E..
  410974:	4587 0000 4587 0000 4587 0000 4587 0000     .E...E...E...E..
  410984:	4587 0000 4587 0000 4587 0000 4f8e 000f     .E...E...E...O..
  410994:	fbfc 00f9 ffff 00ff ffff 00ff ffff 00ff     ................
  4109a4:	ffff 00ff ffff 00ff ffff 00ff ffff 00ff     ................
  4109b4:	ffff 00ff ffff 00ff ffff 00ff bcd4 00a4     ................
  4109c4:	4587 0000 4587 0000 4587 0000 4587 0000     .E...E...E...E..
  4109d4:	4587 0000 4587 0000 4587 0000 77a7 0044     .E...E...E...wD.
  4109e4:	ffff 00ff ffff 00ff ffff 00ff ffff 00ff     ................
  4109f4:	ffff 00ff ffff 00ff ffff 00ff ffff 00ff     ................
  410a04:	ffff 00ff c6d9 00b1 4587 0000 4587 0000     .........E...E..
  410a14:	4587 0000 4587 0000 4587 0000 4587 0000     .E...E...E...E..
  410a24:	4587 0000 689e 0030 ffff 00ff ffff 00ff     .E...h0.........
  410a34:	ffff 00ff ffff 00ff ffff 00ff ffff 00ff     ................
  410a44:	ffff 00ff ffff 00ff ffff 00ff ffff 00ff     ................
  410a54:	ffff 00ff 7fac 004f 4587 0000 4587 0000     ......O..E...E..
  410a64:	4587 0000 4587 0000 4587 0000 4587 0000     .E...E...E...E..
  410a74:	4587 0000 4587 0000 4587 0000 4587 0000     .E...E...E...E..
  410a84:	4587 0000 4587 0000 88b2 005d ffff 00ff     .E...E....].....
  410a94:	ffff 00ff ffff 00ff ffff 00ff ffff 00ff     ................
  410aa4:	ffff 00ff ffff 00ff ffff 00ff ffff 00ff     ................
  410ab4:	4587 0000 4587 0000 bdd5 00a5 ffff 00ff     .E...E..........
  410ac4:	ffff 00ff ffff 00ff ffff 00ff ffff 00ff     ................
  410ad4:	ffff 00ff ffff 00ff ffff 00ff ffff 00ff     ................
  410ae4:	dde9 00d0 4587 0000 4587 0000 5a95 001e     .....E...E...Z..
  410af4:	fbfc 00f9 ffff 00ff ffff 00ff ffff 00ff     ................
  410b04:	ffff 00ff ffff 00ff ffff 00ff ffff 00ff     ................
  410b14:	ffff 00ff ffff 00ff ffff 00ff ffff 00ff     ................
  410b24:	ffff 00ff ffff 00ff ffff 00ff ffff 00ff     ................
  410b34:	ffff 00ff ffff 00ff ffff 00ff ffff 00ff     ................
  410b44:	ffff 00ff ffff 00ff ffff 00ff ffff 00ff     ................
  410b54:	ffff 00ff ffff 00ff ffff 00ff ffff 00ff     ................
  410b64:	ffff 00ff ffff 00ff ffff 00ff ffff 00ff     ................
  410b74:	ffff 00ff ffff 00ff ffff 00ff ffff 00ff     ................
  410b84:	ffff 00ff ffff 00ff ffff 00ff ffff 00ff     ................
  410b94:	ffff 00ff ffff 00ff ffff 00ff ffff 00ff     ................
  410ba4:	ffff 00ff ffff 00ff ffff 00ff ffff 00ff     ................
  410bb4:	ffff 00ff ffff 00ff ffff 00ff afca 0091     ................
  410bc4:	4587 0000 4587 0000 83af 0055 ffff 00ff     .E...E....U.....
  410bd4:	ffff 00ff ffff 00ff ffff 00ff ffff 00ff     ................
  410be4:	ffff 00ff ffff 00ff ffff 00ff ffff 00ff     ................
  410bf4:	feff 00fe 5893 001b 4587 0000 a5c5 0083     .....X...E......
  410c04:	ffff 00ff ffff 00ff ffff 00ff ffff 00ff     ................
  410c14:	ffff 00ff ffff 00ff ffff 00ff ffff 00ff     ................
  410c24:	ffff 00ff ffff 00ff ffff 00ff ffff 00ff     ................
  410c34:	ffff 00ff ffff 00ff ffff 00ff ffff 00ff     ................
  410c44:	ffff 00ff ffff 00ff ffff 00ff ffff 00ff     ................
  410c54:	ffff 00ff c2d7 00ac 4587 0000 4587 0000     .........E...E..
  410c64:	4587 0000 4587 0000 4587 0000 4587 0000     .E...E...E...E..
  410c74:	4587 0000 4587 0000 4587 0000 4587 0000     .E...E...E...E..
  410c84:	4587 0000 4587 0000 4587 0000 c3d8 00ae     .E...E...E......
  410c94:	ffff 00ff ffff 00ff ffff 00ff ffff 00ff     ................
  410ca4:	ffff 00ff ffff 00ff ffff 00ff ffff 00ff     ................
  410cb4:	ffff 00ff 7baa 004b 4587 0000 4587 0000     .....{K..E...E..
  410cc4:	4587 0000 4587 0000 4587 0000 4587 0000     .E...E...E...E..
  410cd4:	4587 0000 4587 0000 4587 0000 4587 0000     .E...E...E...E..
  410ce4:	4587 0000 4587 0000 4587 0000 d3e3 00c3     .E...E...E......
  410cf4:	ffff 00ff ffff 00ff ffff 00ff ffff 00ff     ................
  410d04:	ffff 00ff ffff 00ff ffff 00ff ffff 00ff     ................
  410d14:	ffff 00ff ffff 00ff 86b1 005b 4587 0000     ..........[..E..
  410d24:	4587 0000 4587 0000 4587 0000 4587 0000     .E...E...E...E..
  410d34:	4587 0000 4587 0000 4587 0000 4587 0000     .E...E...E...E..
  410d44:	4587 0000 4587 0000 4587 0000 4587 0000     .E...E...E...E..
  410d54:	ccdf 00ba ffff 00ff ffff 00ff ffff 00ff     ................
  410d64:	ffff 00ff ffff 00ff ffff 00ff ffff 00ff     ................
  410d74:	ffff 00ff ffff 00ff ffff 00ff bcd4 00a4     ................
  410d84:	4587 0000 4587 0000 4587 0000 4587 0000     .E...E...E...E..
  410d94:	4587 0000 4587 0000 4587 0000 77a7 0044     .E...E...E...wD.
  410da4:	ffff 00ff ffff 00ff ffff 00ff ffff 00ff     ................
  410db4:	ffff 00ff ffff 00ff ffff 00ff ffff 00ff     ................
  410dc4:	ffff 00ff c6d9 00b1 4587 0000 4587 0000     .........E...E..
  410dd4:	4587 0000 4587 0000 4587 0000 4587 0000     .E...E...E...E..
  410de4:	4587 0000 689e 0030 ffff 00ff ffff 00ff     .E...h0.........
  410df4:	ffff 00ff ffff 00ff ffff 00ff ffff 00ff     ................
  410e04:	ffff 00ff ffff 00ff ffff 00ff ffff 00ff     ................
  410e14:	fafc 00f8 4d8c 000c 4587 0000 4587 0000     .....M...E...E..
  410e24:	4587 0000 4587 0000 4587 0000 4587 0000     .E...E...E...E..
  410e34:	4587 0000 4587 0000 4587 0000 4587 0000     .E...E...E...E..
  410e44:	4587 0000 4587 0000 528e 0012 fcfd 00fb     .E...E...R......
  410e54:	ffff 00ff ffff 00ff ffff 00ff ffff 00ff     ................
  410e64:	ffff 00ff ffff 00ff ffff 00ff ffff 00ff     ................
  410e74:	4587 0000 4587 0001 edf3 00e7 ffff 00ff     .E...E..........
  410e84:	ffff 00ff ffff 00ff ffff 00ff ffff 00ff     ................
  410e94:	ffff 00ff ffff 00ff ffff 00ff ffff 00ff     ................
  410ea4:	dde9 00d0 4587 0000 4587 0000 afca 0091     .....E...E......
  410eb4:	ffff 00ff ffff 00ff ffff 00ff ffff 00ff     ................
  410ec4:	ffff 00ff ffff 00ff ffff 00ff ffff 00ff     ................
  410ed4:	ffff 00ff ffff 00ff ffff 00ff ffff 00ff     ................
  410ee4:	ffff 00ff ffff 00ff ffff 00ff ffff 00ff     ................
  410ef4:	ffff 00ff ffff 00ff ffff 00ff ffff 00ff     ................
  410f04:	ffff 00ff ffff 00ff ffff 00ff ffff 00ff     ................
  410f14:	ffff 00ff ffff 00ff ffff 00ff ffff 00ff     ................
  410f24:	ffff 00ff ffff 00ff ffff 00ff ffff 00ff     ................
  410f34:	ffff 00ff ffff 00ff ffff 00ff ffff 00ff     ................
  410f44:	ffff 00ff ffff 00ff ffff 00ff ffff 00ff     ................
  410f54:	ffff 00ff ffff 00ff ffff 00ff ffff 00ff     ................
  410f64:	ffff 00ff ffff 00ff ffff 00ff ffff 00ff     ................
  410f74:	ffff 00ff ffff 00ff ffff 00ff f8fb 00f6     ................
  410f84:	5390 0014 4587 0000 83af 0055 ffff 00ff     .S...E....U.....
  410f94:	ffff 00ff ffff 00ff ffff 00ff ffff 00ff     ................
  410fa4:	ffff 00ff ffff 00ff ffff 00ff ffff 00ff     ................
  410fb4:	ffff 00ff 88b2 005d 4587 0000 a5c5 0083     ......]..E......
  410fc4:	ffff 00ff ffff 00ff ffff 00ff ffff 00ff     ................
  410fd4:	ffff 00ff ffff 00ff ffff 00ff ffff 00ff     ................
  410fe4:	ffff 00ff ffff 00ff ffff 00ff ffff 00ff     ................
  410ff4:	ffff 00ff ffff 00ff ffff 00ff ffff 00ff     ................
  411004:	ffff 00ff ffff 00ff ffff 00ff ffff 00ff     ................
  411014:	ffff 00ff c2d7 00ac 4587 0000 4587 0000     .........E...E..
  411024:	4587 0000 4587 0000 4587 0000 4587 0000     .E...E...E...E..
  411034:	4587 0000 4587 0000 4587 0000 4587 0000     .E...E...E...E..
  411044:	4587 0000 4587 0000 4587 0000 8bb5 0061     .E...E...E....a.
  411054:	ffff 00ff ffff 00ff ffff 00ff ffff 00ff     ................
  411064:	ffff 00ff ffff 00ff ffff 00ff ffff 00ff     ................
  411074:	f9fb 00f7 4c8b 000a 4587 0000 4587 0000     .....L...E...E..
  411084:	4587 0000 4587 0000 4587 0000 4587 0000     .E...E...E...E..
  411094:	4587 0000 4587 0000 4587 0000 4587 0000     .E...E...E...E..
  4110a4:	4587 0000 4587 0000 4587 0000 d3e3 00c3     .E...E...E......
  4110b4:	ffff 00ff ffff 00ff ffff 00ff ffff 00ff     ................
  4110c4:	ffff 00ff ffff 00ff ffff 00ff ffff 00ff     ................
  4110d4:	ffff 00ff fdfe 00fc 528f 0013 4587 0000     .........R...E..
  4110e4:	4587 0000 4587 0000 4587 0000 4587 0000     .E...E...E...E..
  4110f4:	4587 0000 4587 0000 4587 0000 4587 0000     .E...E...E...E..
  411104:	4587 0000 4587 0000 4587 0000 4587 0000     .E...E...E...E..
  411114:	95b9 006d ffff 00ff ffff 00ff ffff 00ff     ..m.............
  411124:	ffff 00ff ffff 00ff ffff 00ff ffff 00ff     ................
  411134:	ffff 00ff ffff 00ff ffff 00ff bcd4 00a4     ................
  411144:	4587 0000 4587 0000 4587 0000 4587 0000     .E...E...E...E..
  411154:	4587 0000 4587 0000 4587 0000 77a7 0044     .E...E...E...wD.
  411164:	ffff 00ff ffff 00ff ffff 00ff ffff 00ff     ................
  411174:	ffff 00ff ffff 00ff ffff 00ff ffff 00ff     ................
  411184:	ffff 00ff c6d9 00b1 4587 0000 4587 0000     .........E...E..
  411194:	4587 0000 4587 0000 4587 0000 4587 0000     .E...E...E...E..
  4111a4:	4587 0000 689e 0030 ffff 00ff ffff 00ff     .E...h0.........
  4111b4:	ffff 00ff ffff 00ff ffff 00ff ffff 00ff     ................
  4111c4:	ffff 00ff ffff 00ff ffff 00ff ffff 00ff     ................
  4111d4:	c9db 00b5 4587 0000 4587 0000 4587 0000     .....E...E...E..
  4111e4:	4587 0000 4587 0000 4587 0000 4587 0000     .E...E...E...E..
  4111f4:	4587 0000 4587 0000 4587 0000 4587 0000     .E...E...E...E..
  411204:	4587 0000 4587 0000 4587 0000 d1e1 00c0     .E...E...E......
  411214:	ffff 00ff ffff 00ff ffff 00ff ffff 00ff     ................
  411224:	ffff 00ff ffff 00ff ffff 00ff ffff 00ff     ................
  411234:	4587 0000 659b 002c ffff 00ff ffff 00ff     .E...e,.........
  411244:	ffff 00ff ffff 00ff ffff 00ff ffff 00ff     ................
  411254:	ffff 00ff ffff 00ff ffff 00ff ffff 00ff     ................
  411264:	dde9 00d0 4587 0000 4989 0006 f0f5 00eb     .....E...I......
  411274:	ffff 00ff ffff 00ff ffff 00ff ffff 00ff     ................
  411284:	ffff 00ff ffff 00ff ffff 00ff ffff 00ff     ................
  411294:	ffff 00ff ffff 00ff ffff 00ff ffff 00ff     ................
  4112a4:	ffff 00ff ffff 00ff ffff 00ff ffff 00ff     ................
  4112b4:	ffff 00ff ffff 00ff ffff 00ff ffff 00ff     ................
  4112c4:	ffff 00ff ffff 00ff ffff 00ff ffff 00ff     ................
  4112d4:	ffff 00ff ffff 00ff ffff 00ff ffff 00ff     ................
  4112e4:	ffff 00ff ffff 00ff ffff 00ff ffff 00ff     ................
  4112f4:	ffff 00ff ffff 00ff ffff 00ff ffff 00ff     ................
  411304:	ffff 00ff ffff 00ff ffff 00ff ffff 00ff     ................
  411314:	ffff 00ff ffff 00ff ffff 00ff ffff 00ff     ................
  411324:	ffff 00ff ffff 00ff ffff 00ff ffff 00ff     ................
  411334:	ffff 00ff ffff 00ff ffff 00ff ffff 00ff     ................
  411344:	93b9 006c 4587 0000 83af 0055 ffff 00ff     ..l..E....U.....
  411354:	ffff 00ff ffff 00ff ffff 00ff ffff 00ff     ................
  411364:	ffff 00ff ffff 00ff ffff 00ff ffff 00ff     ................
  411374:	ffff 00ff b8d1 009f 4587 0000 a5c5 0083     .........E......
  411384:	ffff 00ff ffff 00ff ffff 00ff ffff 00ff     ................
  411394:	ffff 00ff ffff 00ff ffff 00ff ffff 00ff     ................
  4113a4:	ffff 00ff ffff 00ff ffff 00ff ffff 00ff     ................
  4113b4:	ffff 00ff ffff 00ff ffff 00ff ffff 00ff     ................
  4113c4:	ffff 00ff ffff 00ff ffff 00ff ffff 00ff     ................
  4113d4:	ffff 00ff c2d7 00ac 4587 0000 4587 0000     .........E...E..
  4113e4:	4587 0000 4587 0000 4587 0000 4587 0000     .E...E...E...E..
  4113f4:	4587 0000 4587 0000 4587 0000 4587 0000     .E...E...E...E..
  411404:	4587 0000 4587 0000 4587 0000 5490 0015     .E...E...E...T..
  411414:	fdfe 00fc ffff 00ff ffff 00ff ffff 00ff     ................
  411424:	ffff 00ff ffff 00ff ffff 00ff ffff 00ff     ................
  411434:	cadc 00b6 4587 0000 4587 0000 4587 0000     .....E...E...E..
  411444:	4587 0000 4587 0000 4587 0000 4587 0000     .E...E...E...E..
  411454:	4587 0000 4587 0000 4587 0000 4587 0000     .E...E...E...E..
  411464:	4587 0000 4587 0000 4587 0000 d3e3 00c3     .E...E...E......
  411474:	ffff 00ff ffff 00ff ffff 00ff ffff 00ff     ................
  411484:	ffff 00ff ffff 00ff ffff 00ff ffff 00ff     ................
  411494:	ffff 00ff d1e1 00c0 4587 0000 4587 0000     .........E...E..
  4114a4:	4587 0000 4587 0000 4587 0000 4587 0000     .E...E...E...E..
  4114b4:	4587 0000 4587 0000 4587 0000 4587 0000     .E...E...E...E..
  4114c4:	4587 0000 4587 0000 4587 0000 4587 0000     .E...E...E...E..
  4114d4:	5a95 001e feff 00fe ffff 00ff ffff 00ff     .Z..............
  4114e4:	ffff 00ff ffff 00ff ffff 00ff ffff 00ff     ................
  4114f4:	ffff 00ff ffff 00ff ffff 00ff bcd4 00a4     ................
  411504:	4587 0000 4587 0000 4587 0000 4587 0000     .E...E...E...E..
  411514:	4587 0000 4587 0000 4587 0000 77a7 0044     .E...E...E...wD.
  411524:	ffff 00ff ffff 00ff ffff 00ff ffff 00ff     ................
  411534:	ffff 00ff ffff 00ff ffff 00ff ffff 00ff     ................
  411544:	ffff 00ff c6d9 00b1 4587 0000 4587 0000     .........E...E..
  411554:	4587 0000 4587 0000 4587 0000 4587 0000     .E...E...E...E..
  411564:	4587 0000 689e 0030 ffff 00ff ffff 00ff     .E...h0.........
  411574:	ffff 00ff ffff 00ff ffff 00ff ffff 00ff     ................
  411584:	ffff 00ff ffff 00ff ffff 00ff ffff 00ff     ................
  411594:	90b7 0068 4587 0000 4587 0000 4587 0000     ..h..E...E...E..
  4115a4:	4587 0000 4587 0000 4587 0000 4587 0000     .E...E...E...E..
  4115b4:	4587 0000 4587 0000 4587 0000 4587 0000     .E...E...E...E..
  4115c4:	4587 0000 4587 0000 4587 0000 98bd 0072     .E...E...E....r.
  4115d4:	ffff 00ff ffff 00ff ffff 00ff ffff 00ff     ................
  4115e4:	ffff 00ff ffff 00ff ffff 00ff ffff 00ff     ................
  4115f4:	4587 0000 95bb 006f ffff 00ff ffff 00ff     .E....o.........
  411604:	ffff 00ff ffff 00ff ffff 00ff ffff 00ff     ................
  411614:	ffff 00ff ffff 00ff ffff 00ff ffff 00ff     ................
  411624:	dde9 00d0 4587 0000 82ae 0053 ffff 00ff     .....E....S.....
  411634:	ffff 00ff ffff 00ff ffff 00ff ffff 00ff     ................
  411644:	ffff 00ff ffff 00ff ffff 00ff ffff 00ff     ................
  411654:	ffff 00ff ffff 00ff ffff 00ff ffff 00ff     ................
  411664:	ffff 00ff ffff 00ff ffff 00ff ffff 00ff     ................
  411674:	ffff 00ff ffff 00ff ffff 00ff ffff 00ff     ................
  411684:	ffff 00ff ffff 00ff ffff 00ff ffff 00ff     ................
  411694:	ffff 00ff ffff 00ff ffff 00ff ffff 00ff     ................
  4116a4:	ffff 00ff ffff 00ff ffff 00ff ffff 00ff     ................
  4116b4:	ffff 00ff ffff 00ff ffff 00ff ffff 00ff     ................
  4116c4:	ffff 00ff ffff 00ff ffff 00ff ffff 00ff     ................
  4116d4:	ffff 00ff ffff 00ff ffff 00ff ffff 00ff     ................
  4116e4:	ffff 00ff ffff 00ff ffff 00ff ffff 00ff     ................
  4116f4:	ffff 00ff ffff 00ff ffff 00ff ffff 00ff     ................
  411704:	d8e6 00c9 4587 0000 83af 0055 ffff 00ff     .....E....U.....
  411714:	ffff 00ff ffff 00ff ffff 00ff ffff 00ff     ................
  411724:	ffff 00ff ffff 00ff ffff 00ff ffff 00ff     ................
  411734:	ffff 00ff e9f1 00e2 4587 0000 a5c5 0083     .........E......
  411744:	ffff 00ff ffff 00ff ffff 00ff ffff 00ff     ................
  411754:	ffff 00ff ffff 00ff ffff 00ff ffff 00ff     ................
  411764:	ffff 00ff ffff 00ff ffff 00ff ffff 00ff     ................
  411774:	ffff 00ff ffff 00ff ffff 00ff ffff 00ff     ................
  411784:	ffff 00ff ffff 00ff ffff 00ff ffff 00ff     ................
  411794:	ffff 00ff c2d7 00ac 4587 0000 4587 0000     .........E...E..
  4117a4:	4587 0000 4587 0000 4587 0000 4587 0000     .E...E...E...E..
  4117b4:	4587 0000 4587 0000 4587 0000 4587 0000     .E...E...E...E..
  4117c4:	4587 0000 4587 0000 4587 0000 4587 0000     .E...E...E...E..
  4117d4:	d4e3 00c5 ffff 00ff ffff 00ff ffff 00ff     ................
  4117e4:	ffff 00ff ffff 00ff ffff 00ff ffff 00ff     ................
  4117f4:	93b9 006c 4587 0000 4587 0000 4587 0000     ..l..E...E...E..
  411804:	4587 0000 4587 0000 4587 0000 4587 0000     .E...E...E...E..
  411814:	4587 0000 4587 0000 4587 0000 4587 0000     .E...E...E...E..
  411824:	4587 0000 4587 0000 4587 0000 d3e3 00c3     .E...E...E......
  411834:	ffff 00ff ffff 00ff ffff 00ff ffff 00ff     ................
  411844:	ffff 00ff ffff 00ff ffff 00ff ffff 00ff     ................
  411854:	ffff 00ff 9abe 0074 4587 0000 4587 0000     ......t..E...E..
  411864:	4587 0000 4587 0000 4587 0000 4587 0000     .E...E...E...E..
  411874:	4587 0000 4687 0002 4587 0000 4587 0000     .E...F...E...E..
  411884:	4587 0000 4587 0000 4587 0000 4587 0000     .E...E...E...E..
  411894:	4587 0000 dde9 00d0 ffff 00ff ffff 00ff     .E..............
  4118a4:	ffff 00ff ffff 00ff ffff 00ff ffff 00ff     ................
  4118b4:	ffff 00ff ffff 00ff ffff 00ff bcd4 00a4     ................
  4118c4:	4587 0000 4587 0000 4587 0000 4587 0000     .E...E...E...E..
  4118d4:	4587 0000 4587 0000 4587 0000 77a7 0044     .E...E...E...wD.
  4118e4:	ffff 00ff ffff 00ff ffff 00ff ffff 00ff     ................
  4118f4:	ffff 00ff ffff 00ff ffff 00ff ffff 00ff     ................
  411904:	ffff 00ff c6d9 00b1 4587 0000 4587 0000     .........E...E..
  411914:	4587 0000 4587 0000 4587 0000 4587 0000     .E...E...E...E..
  411924:	4587 0000 689e 0030 ffff 00ff ffff 00ff     .E...h0.........
  411934:	ffff 00ff ffff 00ff ffff 00ff ffff 00ff     ................
  411944:	ffff 00ff ffff 00ff ffff 00ff feff 00fe     ................
  411954:	5994 001c 4587 0000 4587 0000 4587 0000     .Y...E...E...E..
  411964:	4587 0000 4587 0000 4587 0000 4587 0000     .E...E...E...E..
  411974:	4687 0002 4587 0000 4587 0000 4587 0000     .F...E...E...E..
  411984:	4587 0000 4587 0000 4587 0000 5f97 0024     .E...E...E..._$.
  411994:	ffff 00ff ffff 00ff ffff 00ff ffff 00ff     ................
  4119a4:	ffff 00ff ffff 00ff ffff 00ff ffff 00ff     ................
  4119b4:	4587 0000 bfd6 00a8 ffff 00ff ffff 00ff     .E..............
  4119c4:	ffff 00ff ffff 00ff ffff 00ff ffff 00ff     ................
  4119d4:	ffff 00ff ffff 00ff ffff 00ff ffff 00ff     ................
  4119e4:	dde9 00d0 4587 0000 bdd5 00a5 ffff 00ff     .....E..........
  4119f4:	ffff 00ff ffff 00ff ffff 00ff ffff 00ff     ................
  411a04:	ffff 00ff ffff 00ff ffff 00ff ffff 00ff     ................
  411a14:	ffff 00ff ffff 00ff ffff 00ff ffff 00ff     ................
  411a24:	ffff 00ff ffff 00ff ffff 00ff ffff 00ff     ................
  411a34:	ffff 00ff ffff 00ff ffff 00ff ffff 00ff     ................
  411a44:	ffff 00ff ffff 00ff ffff 00ff ffff 00ff     ................
  411a54:	ffff 00ff ffff 00ff ffff 00ff ffff 00ff     ................
  411a64:	ffff 00ff ffff 00ff ffff 00ff ffff 00ff     ................
  411a74:	ffff 00ff ffff 00ff ffff 00ff ffff 00ff     ................
  411a84:	ffff 00ff ffff 00ff ffff 00ff ffff 00ff     ................
  411a94:	ffff 00ff ffff 00ff ffff 00ff ffff 00ff     ................
  411aa4:	ffff 00ff ffff 00ff ffff 00ff ffff 00ff     ................
  411ab4:	ffff 00ff ffff 00ff ffff 00ff ffff 00ff     ................
  411ac4:	ffff 00ff 5a94 001d 83af 0055 ffff 00ff     .....Z....U.....
  411ad4:	ffff 00ff ffff 00ff ffff 00ff ffff 00ff     ................
  411ae4:	ffff 00ff ffff 00ff ffff 00ff ffff 00ff     ................
  411af4:	ffff 00ff ffff 00ff 5a95 001e a5c5 0083     .........Z......
  411b04:	ffff 00ff ffff 00ff ffff 00ff ffff 00ff     ................
  411b14:	ffff 00ff ffff 00ff ffff 00ff ffff 00ff     ................
  411b24:	ffff 00ff ffff 00ff ffff 00ff ffff 00ff     ................
  411b34:	ffff 00ff ffff 00ff ffff 00ff ffff 00ff     ................
  411b44:	ffff 00ff ffff 00ff ffff 00ff ffff 00ff     ................
  411b54:	ffff 00ff c2d7 00ac 4587 0000 4587 0000     .........E...E..
  411b64:	4587 0000 4587 0000 4587 0000 4587 0000     .E...E...E...E..
  411b74:	4587 0001 4788 0004 4587 0000 4587 0000     .E...G...E...E..
  411b84:	4587 0000 4587 0000 4587 0000 4587 0000     .E...E...E...E..
  411b94:	9dbe 0078 ffff 00ff ffff 00ff ffff 00ff     ..x.............
  411ba4:	ffff 00ff ffff 00ff ffff 00ff ffff 00ff     ................
  411bb4:	5d97 0022 4587 0000 4587 0000 4587 0000     .]"..E...E...E..
  411bc4:	4587 0000 4587 0000 4587 0000 4889 0005     .E...E...E...H..
  411bd4:	4587 0000 4587 0000 4587 0000 4587 0000     .E...E...E...E..
  411be4:	4587 0000 4587 0000 4587 0000 d3e3 00c3     .E...E...E......
  411bf4:	ffff 00ff ffff 00ff ffff 00ff ffff 00ff     ................
  411c04:	ffff 00ff ffff 00ff ffff 00ff ffff 00ff     ................
  411c14:	ffff 00ff 6098 0026 4587 0000 4587 0000     .....`&..E...E..
  411c24:	4587 0000 4587 0000 4587 0000 4587 0000     .E...E...E...E..
  411c34:	4587 0000 90b7 0068 4587 0000 4587 0000     .E....h..E...E..
  411c44:	4587 0000 4587 0000 4587 0000 4587 0000     .E...E...E...E..
  411c54:	4587 0000 a3c4 0081 ffff 00ff ffff 00ff     .E..............
  411c64:	ffff 00ff ffff 00ff ffff 00ff ffff 00ff     ................
  411c74:	ffff 00ff ffff 00ff ffff 00ff bcd4 00a4     ................
  411c84:	4587 0000 4587 0000 4587 0000 4587 0000     .E...E...E...E..
  411c94:	4587 0000 4587 0000 4587 0000 77a7 0044     .E...E...E...wD.
  411ca4:	ffff 00ff ffff 00ff ffff 00ff ffff 00ff     ................
  411cb4:	ffff 00ff ffff 00ff ffff 00ff ffff 00ff     ................
  411cc4:	ffff 00ff c6d9 00b1 4587 0000 4587 0000     .........E...E..
  411cd4:	4587 0000 4587 0000 4587 0000 4587 0000     .E...E...E...E..
  411ce4:	4587 0000 689e 0030 ffff 00ff ffff 00ff     .E...h0.........
  411cf4:	ffff 00ff ffff 00ff ffff 00ff ffff 00ff     ................
  411d04:	ffff 00ff ffff 00ff ffff 00ff dae7 00cd     ................
  411d14:	4587 0000 4587 0000 4587 0000 4587 0000     .E...E...E...E..
  411d24:	4587 0000 4587 0000 4587 0000 5994 001c     .E...E...E...Y..
  411d34:	7fac 004f 4587 0000 4587 0000 4587 0000     ..O..E...E...E..
  411d44:	4587 0000 4587 0000 4587 0000 4587 0000     .E...E...E...E..
  411d54:	e0eb 00d5 ffff 00ff ffff 00ff ffff 00ff     ................
  411d64:	ffff 00ff ffff 00ff ffff 00ff ffff 00ff     ................
  411d74:	4587 0000 dde8 00d1 ffff 00ff ffff 00ff     .E..............
  411d84:	ffff 00ff ffff 00ff ffff 00ff ffff 00ff     ................
  411d94:	ffff 00ff ffff 00ff ffff 00ff ffff 00ff     ................
  411da4:	dde9 00d0 4587 0000 ecf2 00e5 ffff 00ff     .....E..........
  411db4:	ffff 00ff ffff 00ff ffff 00ff ffff 00ff     ................
  411dc4:	ffff 00ff ffff 00ff ffff 00ff ffff 00ff     ................
  411dd4:	ffff 00ff ffff 00ff ffff 00ff ffff 00ff     ................
  411de4:	ffff 00ff ffff 00ff ffff 00ff ffff 00ff     ................
  411df4:	ffff 00ff ffff 00ff ffff 00ff ffff 00ff     ................
  411e04:	ffff 00ff ffff 00ff ffff 00ff ffff 00ff     ................
  411e14:	ffff 00ff ffff 00ff ffff 00ff ffff 00ff     ................
  411e24:	ffff 00ff ffff 00ff ffff 00ff ffff 00ff     ................
  411e34:	ffff 00ff ffff 00ff ffff 00ff ffff 00ff     ................
  411e44:	ffff 00ff ffff 00ff ffff 00ff ffff 00ff     ................
  411e54:	ffff 00ff ffff 00ff ffff 00ff ffff 00ff     ................
  411e64:	ffff 00ff ffff 00ff ffff 00ff ffff 00ff     ................
  411e74:	ffff 00ff ffff 00ff ffff 00ff ffff 00ff     ................
  411e84:	ffff 00ff 8ab3 005f 83af 0055 ffff 00ff     ......_...U.....
  411e94:	ffff 00ff ffff 00ff ffff 00ff ffff 00ff     ................
  411ea4:	ffff 00ff ffff 00ff ffff 00ff ffff 00ff     ................
  411eb4:	ffff 00ff ffff 00ff 77a6 0045 a5c5 0083     .........wE.....
  411ec4:	ffff 00ff ffff 00ff ffff 00ff ffff 00ff     ................
  411ed4:	ffff 00ff ffff 00ff ffff 00ff ffff 00ff     ................
  411ee4:	ffff 00ff ffff 00ff ffff 00ff ffff 00ff     ................
  411ef4:	ffff 00ff ffff 00ff ffff 00ff ffff 00ff     ................
  411f04:	ffff 00ff ffff 00ff ffff 00ff ffff 00ff     ................
  411f14:	ffff 00ff c2d7 00ac 4587 0000 4587 0000     .........E...E..
  411f24:	4587 0000 4587 0000 4587 0000 4587 0000     .E...E...E...E..
  411f34:	4a8a 0008 90b7 0068 4587 0000 4587 0000     .J....h..E...E..
  411f44:	4587 0000 4587 0000 4587 0000 4587 0000     .E...E...E...E..
  411f54:	639a 002a ffff 00ff ffff 00ff ffff 00ff     .c*.............
  411f64:	ffff 00ff ffff 00ff ffff 00ff e0ec 00d6     ................
  411f74:	4587 0000 4587 0000 4587 0000 4587 0000     .E...E...E...E..
  411f84:	4587 0000 4587 0000 4587 0000 9bbf 0076     .E...E...E....v.
  411f94:	4587 0000 4587 0000 4587 0000 4587 0000     .E...E...E...E..
  411fa4:	4587 0000 4587 0000 4587 0000 d3e3 00c3     .E...E...E......
  411fb4:	ffff 00ff ffff 00ff ffff 00ff ffff 00ff     ................
  411fc4:	ffff 00ff ffff 00ff ffff 00ff ffff 00ff     ................
  411fd4:	e5ee 00db 4587 0000 4587 0000 4587 0000     .....E...E...E..
  411fe4:	4587 0000 4587 0000 4587 0000 4587 0000     .E...E...E...E..
  411ff4:	508f 0010 edf3 00e7 4788 0003 4587 0000     .P.......G...E..
  412004:	4587 0000 4587 0000 4587 0000 4587 0000     .E...E...E...E..
  412014:	4587 0000 6a9e 0034 ffff 00ff ffff 00ff     .E...j4.........
  412024:	ffff 00ff ffff 00ff ffff 00ff ffff 00ff     ................
  412034:	ffff 00ff ffff 00ff ffff 00ff bcd4 00a4     ................
  412044:	4587 0000 4587 0000 4587 0000 4587 0000     .E...E...E...E..
  412054:	4587 0000 4587 0000 4587 0000 77a7 0044     .E...E...E...wD.
  412064:	ffff 00ff ffff 00ff ffff 00ff ffff 00ff     ................
  412074:	ffff 00ff ffff 00ff ffff 00ff ffff 00ff     ................
  412084:	ffff 00ff c6d9 00b1 4587 0000 4587 0000     .........E...E..
  412094:	4587 0000 4587 0000 4587 0000 4587 0000     .E...E...E...E..
  4120a4:	4587 0000 689e 0030 ffff 00ff ffff 00ff     .E...h0.........
  4120b4:	ffff 00ff ffff 00ff ffff 00ff ffff 00ff     ................
  4120c4:	ffff 00ff ffff 00ff ffff 00ff a1c3 0080     ................
  4120d4:	4587 0000 4587 0000 4587 0000 4587 0000     .E...E...E...E..
  4120e4:	4587 0000 4587 0000 4587 0000 8eb7 0066     .E...E...E....f.
  4120f4:	b5cf 0099 4587 0000 4587 0000 4587 0000     .....E...E...E..
  412104:	4587 0000 4587 0000 4587 0000 4587 0000     .E...E...E...E..
  412114:	a7c7 0087 ffff 00ff ffff 00ff ffff 00ff     ................
  412124:	ffff 00ff ffff 00ff ffff 00ff ffff 00ff     ................
  412134:	4687 0002 f8fa 00f5 ffff 00ff ffff 00ff     .F..............
  412144:	ffff 00ff ffff 00ff ffff 00ff ffff 00ff     ................
  412154:	ffff 00ff ffff 00ff ffff 00ff ffff 00ff     ................
  412164:	dde9 00d0 629a 0029 ffff 00ff ffff 00ff     .....b).........
  412174:	ffff 00ff ffff 00ff ffff 00ff ffff 00ff     ................
  412184:	ffff 00ff ffff 00ff ffff 00ff ffff 00ff     ................
  412194:	ffff 00ff ffff 00ff ffff 00ff ffff 00ff     ................
  4121a4:	ffff 00ff ffff 00ff ffff 00ff ffff 00ff     ................
  4121b4:	ffff 00ff ffff 00ff ffff 00ff ffff 00ff     ................
  4121c4:	ffff 00ff ffff 00ff ffff 00ff ffff 00ff     ................
  4121d4:	ffff 00ff ffff 00ff ffff 00ff ffff 00ff     ................
  4121e4:	ffff 00ff ffff 00ff ffff 00ff ffff 00ff     ................
  4121f4:	ffff 00ff ffff 00ff ffff 00ff ffff 00ff     ................
  412204:	ffff 00ff ffff 00ff ffff 00ff ffff 00ff     ................
  412214:	ffff 00ff ffff 00ff ffff 00ff ffff 00ff     ................
  412224:	ffff 00ff ffff 00ff ffff 00ff ffff 00ff     ................
  412234:	ffff 00ff ffff 00ff ffff 00ff ffff 00ff     ................
  412244:	ffff 00ff bad3 00a1 83af 0055 ffff 00ff     ..........U.....
  412254:	ffff 00ff ffff 00ff ffff 00ff ffff 00ff     ................
  412264:	ffff 00ff ffff 00ff ffff 00ff ffff 00ff     ................
  412274:	ffff 00ff ffff 00ff 95b9 006d a5c5 0083     ..........m.....
  412284:	ffff 00ff ffff 00ff ffff 00ff ffff 00ff     ................
  412294:	ffff 00ff ffff 00ff ffff 00ff ffff 00ff     ................
  4122a4:	ffff 00ff ffff 00ff ffff 00ff ffff 00ff     ................
  4122b4:	ffff 00ff ffff 00ff ffff 00ff ffff 00ff     ................
  4122c4:	ffff 00ff ffff 00ff ffff 00ff ffff 00ff     ................
  4122d4:	ffff 00ff c2d7 00ac 4587 0000 4587 0000     .........E...E..
  4122e4:	4587 0000 4587 0000 4587 0000 4587 0000     .E...E...E...E..
  4122f4:	4587 0001 cddf 00bb 4587 0000 4587 0000     .E.......E...E..
  412304:	4587 0000 4587 0000 4587 0000 4587 0000     .E...E...E...E..
  412314:	4587 0000 e4ee 00da ffff 00ff ffff 00ff     .E..............
  412324:	ffff 00ff ffff 00ff ffff 00ff abc8 008c     ................
  412334:	4587 0000 4587 0000 4587 0000 4587 0000     .E...E...E...E..
  412344:	4587 0000 4587 0000 4587 0000 d0df 00be     .E...E...E......
  412354:	4587 0000 4587 0000 4587 0000 4587 0000     .E...E...E...E..
  412364:	4587 0000 4587 0000 4587 0000 d3e3 00c3     .E...E...E......
  412374:	ffff 00ff ffff 00ff ffff 00ff ffff 00ff     ................
  412384:	ffff 00ff ffff 00ff ffff 00ff ffff 00ff     ................
  412394:	a9c7 008b 4587 0000 4587 0000 4587 0000     .....E...E...E..
  4123a4:	4587 0000 4587 0000 4587 0000 4587 0000     .E...E...E...E..
  4123b4:	83af 0055 ffff 00ff 6da1 0038 4587 0000     ..U......m8..E..
  4123c4:	4587 0000 4587 0000 4587 0000 4587 0000     .E...E...E...E..
  4123d4:	4587 0000 4587 0001 ebf2 00e3 ffff 00ff     .E...E..........
  4123e4:	ffff 00ff ffff 00ff ffff 00ff ffff 00ff     ................
  4123f4:	ffff 00ff ffff 00ff ffff 00ff bcd4 00a4     ................
  412404:	4587 0000 4587 0000 4587 0000 4587 0000     .E...E...E...E..
  412414:	4587 0000 4587 0000 4587 0000 77a7 0044     .E...E...E...wD.
  412424:	ffff 00ff ffff 00ff ffff 00ff ffff 00ff     ................
  412434:	ffff 00ff ffff 00ff ffff 00ff ffff 00ff     ................
  412444:	ffff 00ff c6d9 00b1 4587 0000 4587 0000     .........E...E..
  412454:	4587 0000 4587 0000 4587 0000 4587 0000     .E...E...E...E..
  412464:	4587 0000 689e 0030 ffff 00ff ffff 00ff     .E...h0.........
  412474:	ffff 00ff ffff 00ff ffff 00ff ffff 00ff     ................
  412484:	ffff 00ff ffff 00ff ffff 00ff 6a9f 0033     .............j3.
  412494:	4587 0000 4587 0000 4587 0000 4587 0000     .E...E...E...E..
  4124a4:	4587 0000 4587 0000 4587 0000 c2d8 00ad     .E...E...E......
  4124b4:	ebf2 00e3 4587 0001 4587 0000 4587 0000     .....E...E...E..
  4124c4:	4587 0000 4587 0000 4587 0000 4587 0000     .E...E...E...E..
  4124d4:	6fa1 0039 ffff 00ff ffff 00ff ffff 00ff     .o9.............
  4124e4:	ffff 00ff ffff 00ff ffff 00ff ffff 00ff     ................
  4124f4:	5c96 0020 ffff 00ff ffff 00ff ffff 00ff     .\ .............
  412504:	ffff 00ff ffff 00ff ffff 00ff ffff 00ff     ................
  412514:	ffff 00ff ffff 00ff ffff 00ff ffff 00ff     ................
  412524:	dde9 00d0 85b0 0059 ffff 00ff ffff 00ff     ......Y.........
  412534:	ffff 00ff ffff 00ff ffff 00ff ffff 00ff     ................
  412544:	ffff 00ff ffff 00ff ffff 00ff ffff 00ff     ................
  412554:	ffff 00ff ffff 00ff ffff 00ff ffff 00ff     ................
  412564:	ffff 00ff ffff 00ff ffff 00ff ffff 00ff     ................
  412574:	ffff 00ff ffff 00ff ffff 00ff ffff 00ff     ................
  412584:	ffff 00ff ffff 00ff ffff 00ff ffff 00ff     ................
  412594:	ffff 00ff ffff 00ff ffff 00ff ffff 00ff     ................
  4125a4:	ffff 00ff ffff 00ff ffff 00ff ffff 00ff     ................
  4125b4:	ffff 00ff ffff 00ff ffff 00ff ffff 00ff     ................
  4125c4:	ffff 00ff ffff 00ff ffff 00ff ffff 00ff     ................
  4125d4:	ffff 00ff ffff 00ff ffff 00ff ffff 00ff     ................
  4125e4:	ffff 00ff ffff 00ff ffff 00ff ffff 00ff     ................
  4125f4:	ffff 00ff ffff 00ff ffff 00ff ffff 00ff     ................
  412604:	ffff 00ff dde9 00d0 83af 0055 ffff 00ff     ..........U.....
  412614:	ffff 00ff ffff 00ff ffff 00ff ffff 00ff     ................
  412624:	ffff 00ff ffff 00ff ffff 00ff ffff 00ff     ................
  412634:	ffff 00ff ffff 00ff b0cd 0094 a5c5 0083     ................
  412644:	ffff 00ff ffff 00ff ffff 00ff ffff 00ff     ................
  412654:	ffff 00ff ffff 00ff ffff 00ff ffff 00ff     ................
  412664:	ffff 00ff ffff 00ff ffff 00ff ffff 00ff     ................
  412674:	ffff 00ff ffff 00ff ffff 00ff ffff 00ff     ................
  412684:	ffff 00ff ffff 00ff ffff 00ff ffff 00ff     ................
  412694:	ffff 00ff c2d7 00ac 4587 0000 4587 0000     .........E...E..
  4126a4:	4587 0000 4587 0000 4587 0000 4587 0000     .E...E...E...E..
  4126b4:	4587 0000 f5f8 00f2 5792 0019 4587 0000     .E.......W...E..
  4126c4:	4587 0000 4587 0000 4587 0000 4587 0000     .E...E...E...E..
  4126d4:	4587 0000 adc9 008e ffff 00ff ffff 00ff     .E..............
  4126e4:	ffff 00ff ffff 00ff ffff 00ff 73a6 0041     .............sA.
  4126f4:	4587 0000 4587 0000 4587 0000 4587 0000     .E...E...E...E..
  412704:	4587 0000 4587 0000 6b9f 0035 e1ec 00d7     .E...E...k5.....
  412714:	4587 0000 4587 0000 4587 0000 4587 0000     .E...E...E...E..
  412724:	4587 0000 4587 0000 4587 0000 d3e3 00c3     .E...E...E......
  412734:	ffff 00ff ffff 00ff ffff 00ff ffff 00ff     ................
  412744:	ffff 00ff ffff 00ff ffff 00ff ffff 00ff     ................
  412754:	72a4 003e 4587 0000 4587 0000 4587 0000     .r>..E...E...E..
  412764:	4587 0000 4587 0000 4587 0000 4587 0000     .E...E...E...E..
  412774:	b7d0 009d ffff 00ff a3c4 0081 4587 0000     .............E..
  412784:	4587 0000 4587 0000 4587 0000 4587 0000     .E...E...E...E..
  412794:	4587 0000 4587 0000 b2ce 0096 ffff 00ff     .E...E..........
  4127a4:	ffff 00ff ffff 00ff ffff 00ff ffff 00ff     ................
  4127b4:	ffff 00ff ffff 00ff ffff 00ff bcd4 00a4     ................
  4127c4:	4587 0000 4587 0000 4587 0000 4587 0000     .E...E...E...E..
  4127d4:	4587 0000 4587 0000 4587 0000 77a7 0044     .E...E...E...wD.
  4127e4:	ffff 00ff ffff 00ff ffff 00ff ffff 00ff     ................
  4127f4:	ffff 00ff ffff 00ff ffff 00ff ffff 00ff     ................
  412804:	ffff 00ff c6d9 00b1 4587 0000 4587 0000     .........E...E..
  412814:	4587 0000 4587 0000 4587 0000 4587 0000     .E...E...E...E..
  412824:	4587 0000 689e 0030 ffff 00ff ffff 00ff     .E...h0.........
  412834:	ffff 00ff ffff 00ff ffff 00ff ffff 00ff     ................
  412844:	ffff 00ff ffff 00ff ecf2 00e5 4587 0001     .............E..
  412854:	4587 0000 4587 0000 4587 0000 4587 0000     .E...E...E...E..
  412864:	4587 0000 4587 0000 4788 0004 f4f8 00f0     .E...E...G......
  412874:	ffff 00ff 659c 002d 4587 0000 4587 0000     .....e-..E...E..
  412884:	4587 0000 4587 0000 4587 0000 4587 0000     .E...E...E...E..
  412894:	4687 0002 edf3 00e7 ffff 00ff ffff 00ff     .F..............
  4128a4:	ffff 00ff ffff 00ff ffff 00ff ffff 00ff     ................
  4128b4:	73a6 0041 ffff 00ff ffff 00ff ffff 00ff     .sA.............
  4128c4:	ffff 00ff ffff 00ff ffff 00ff ffff 00ff     ................
  4128d4:	ffff 00ff ffff 00ff ffff 00ff ffff 00ff     ................
  4128e4:	dde9 00d0 a1c3 0080 ffff 00ff ffff 00ff     ................
  4128f4:	ffff 00ff ffff 00ff ffff 00ff ffff 00ff     ................
  412904:	ffff 00ff ffff 00ff ffff 00ff ffff 00ff     ................
  412914:	ffff 00ff ffff 00ff ffff 00ff ffff 00ff     ................
  412924:	ffff 00ff ffff 00ff ffff 00ff ffff 00ff     ................
  412934:	ffff 00ff ffff 00ff ffff 00ff ffff 00ff     ................
  412944:	ffff 00ff ffff 00ff ffff 00ff ffff 00ff     ................
  412954:	ffff 00ff ffff 00ff ffff 00ff ffff 00ff     ................
  412964:	ffff 00ff ffff 00ff ffff 00ff ffff 00ff     ................
  412974:	ffff 00ff ffff 00ff ffff 00ff ffff 00ff     ................
  412984:	ffff 00ff ffff 00ff ffff 00ff ffff 00ff     ................
  412994:	ffff 00ff ffff 00ff ffff 00ff ffff 00ff     ................
  4129a4:	ffff 00ff ffff 00ff ffff 00ff ffff 00ff     ................
  4129b4:	ffff 00ff ffff 00ff ffff 00ff ffff 00ff     ................
  4129c4:	ffff 00ff f8fb 00f6 83af 0057 ffff 00ff     ..........W.....
  4129d4:	ffff 00ff ffff 00ff ffff 00ff ffff 00ff     ................
  4129e4:	ffff 00ff ffff 00ff ffff 00ff ffff 00ff     ................
  4129f4:	ffff 00ff ffff 00ff cadc 00b6 a5c5 0083     ................
  412a04:	ffff 00ff ffff 00ff ffff 00ff ffff 00ff     ................
  412a14:	ffff 00ff ffff 00ff ffff 00ff ffff 00ff     ................
  412a24:	ffff 00ff ffff 00ff ffff 00ff ffff 00ff     ................
  412a34:	ffff 00ff ffff 00ff ffff 00ff ffff 00ff     ................
  412a44:	ffff 00ff ffff 00ff ffff 00ff ffff 00ff     ................
  412a54:	ffff 00ff c2d7 00ac 4587 0000 4587 0000     .........E...E..
  412a64:	4587 0000 4587 0000 4587 0000 4587 0000     .E...E...E...E..
  412a74:	4587 0000 f0f5 00ec 91b8 006a 4587 0000     .E........j..E..
  412a84:	4587 0000 4587 0000 4587 0000 4587 0000     .E...E...E...E..
  412a94:	4587 0000 73a6 0041 ffff 00ff ffff 00ff     .E...sA.........
  412aa4:	ffff 00ff ffff 00ff f5f8 00f1 4989 0006     .............I..
  412ab4:	4587 0000 4587 0000 4587 0000 4587 0000     .E...E...E...E..
  412ac4:	4587 0000 4587 0000 aac7 008a dbe7 00ce     .E...E..........
  412ad4:	4587 0000 4587 0000 4587 0000 4587 0000     .E...E...E...E..
  412ae4:	4587 0000 4587 0000 4587 0000 d3e3 00c3     .E...E...E......
  412af4:	ffff 00ff ffff 00ff ffff 00ff ffff 00ff     ................
  412b04:	ffff 00ff ffff 00ff ffff 00ff f2f7 00ed     ................
  412b14:	4788 0004 4587 0000 4587 0000 4587 0000     .G...E...E...E..
  412b24:	4587 0000 4587 0000 4587 0000 4587 0001     .E...E...E...E..
  412b34:	eaf1 00e4 ffff 00ff d7e6 00ca 4587 0000     .............E..
  412b44:	4587 0000 4587 0000 4587 0000 4587 0000     .E...E...E...E..
  412b54:	4587 0000 4587 0000 7aa9 0049 ffff 00ff     .E...E...zI.....
  412b64:	ffff 00ff ffff 00ff ffff 00ff ffff 00ff     ................
  412b74:	ffff 00ff ffff 00ff ffff 00ff bcd4 00a4     ................
  412b84:	4587 0000 4587 0000 4587 0000 4587 0000     .E...E...E...E..
  412b94:	4587 0000 4587 0000 4587 0000 77a7 0044     .E...E...E...wD.
  412ba4:	ffff 00ff ffff 00ff ffff 00ff ffff 00ff     ................
  412bb4:	ffff 00ff ffff 00ff ffff 00ff ffff 00ff     ................
  412bc4:	ffff 00ff c6d9 00b1 4587 0000 4587 0000     .........E...E..
  412bd4:	4587 0000 4587 0000 4587 0000 4587 0000     .E...E...E...E..
  412be4:	4587 0000 689e 0030 ffff 00ff ffff 00ff     .E...h0.........
  412bf4:	ffff 00ff ffff 00ff ffff 00ff ffff 00ff     ................
  412c04:	ffff 00ff ffff 00ff b3ce 0098 4587 0000     .............E..
  412c14:	4587 0000 4587 0000 4587 0000 4587 0000     .E...E...E...E..
  412c24:	4587 0000 4587 0000 72a4 003e ffff 00ff     .E...E...r>.....
  412c34:	ffff 00ff 9bbf 0077 4587 0000 4587 0000     ......w..E...E..
  412c44:	4587 0000 4587 0000 4587 0000 4587 0000     .E...E...E...E..
  412c54:	4587 0000 b7d0 009c ffff 00ff ffff 00ff     .E..............
  412c64:	ffff 00ff ffff 00ff ffff 00ff ffff 00ff     ................
  412c74:	7fac 004f ffff 00ff ffff 00ff ffff 00ff     ..O.............
  412c84:	ffff 00ff ffff 00ff ffff 00ff ffff 00ff     ................
  412c94:	ffff 00ff ffff 00ff ffff 00ff ffff 00ff     ................
  412ca4:	dde9 00d0 bdd5 00a5 ffff 00ff ffff 00ff     ................
  412cb4:	ffff 00ff ffff 00ff ffff 00ff ffff 00ff     ................
  412cc4:	ffff 00ff ffff 00ff ffff 00ff ffff 00ff     ................
  412cd4:	ffff 00ff ffff 00ff ffff 00ff ffff 00ff     ................
  412ce4:	ffff 00ff ffff 00ff ffff 00ff ffff 00ff     ................
  412cf4:	ffff 00ff ffff 00ff ffff 00ff ffff 00ff     ................
  412d04:	ffff 00ff ffff 00ff ffff 00ff ffff 00ff     ................
  412d14:	ffff 00ff ffff 00ff ffff 00ff ffff 00ff     ................
  412d24:	ffff 00ff ffff 00ff ffff 00ff ffff 00ff     ................
  412d34:	ffff 00ff ffff 00ff ffff 00ff ffff 00ff     ................
  412d44:	ffff 00ff ffff 00ff ffff 00ff ffff 00ff     ................
  412d54:	ffff 00ff ffff 00ff ffff 00ff ffff 00ff     ................
  412d64:	ffff 00ff ffff 00ff ffff 00ff ffff 00ff     ................
  412d74:	ffff 00ff ffff 00ff ffff 00ff ffff 00ff     ................
  412d84:	ffff 00ff ffff 00ff 98bd 0073 ffff 00ff     ..........s.....
  412d94:	ffff 00ff ffff 00ff ffff 00ff ffff 00ff     ................
  412da4:	ffff 00ff ffff 00ff ffff 00ff ffff 00ff     ................
  412db4:	ffff 00ff ffff 00ff d3e3 00c4 a5c5 0083     ................
  412dc4:	ffff 00ff ffff 00ff ffff 00ff ffff 00ff     ................
  412dd4:	ffff 00ff ffff 00ff ffff 00ff ffff 00ff     ................
  412de4:	ffff 00ff ffff 00ff ffff 00ff ffff 00ff     ................
  412df4:	ffff 00ff ffff 00ff ffff 00ff ffff 00ff     ................
  412e04:	ffff 00ff ffff 00ff ffff 00ff ffff 00ff     ................
  412e14:	ffff 00ff c2d7 00ac 4587 0000 4587 0000     .........E...E..
  412e24:	4587 0000 4587 0000 4587 0000 4587 0000     .E...E...E...E..
  412e34:	4587 0000 ebf2 00e3 d0e0 00bf 4587 0000     .E...........E..
  412e44:	4587 0000 4587 0000 4587 0000 4587 0000     .E...E...E...E..
  412e54:	4587 0000 4788 0004 f3f7 00ee ffff 00ff     .E...G..........
  412e64:	ffff 00ff ffff 00ff c2d7 00ac 4587 0000     .............E..
  412e74:	4587 0000 4587 0000 4587 0000 4587 0000     .E...E...E...E..
  412e84:	4587 0000 4587 0000 e6ef 00dd d4e3 00c5     .E...E..........
  412e94:	4587 0000 4587 0000 4587 0000 4587 0000     .E...E...E...E..
  412ea4:	4587 0000 4587 0000 4587 0000 d3e3 00c3     .E...E...E......
  412eb4:	ffff 00ff ffff 00ff ffff 00ff ffff 00ff     ................
  412ec4:	ffff 00ff ffff 00ff ffff 00ff bbd4 00a3     ................
  412ed4:	4587 0000 4587 0000 4587 0000 4587 0000     .E...E...E...E..
  412ee4:	4587 0000 4587 0000 4587 0000 679c 002e     .E...E...E...g..
  412ef4:	ffff 00ff ffff 00ff fefe 00fd 5591 0017     .............U..
  412f04:	4587 0000 4587 0000 4587 0000 4587 0000     .E...E...E...E..
  412f14:	4587 0000 4587 0000 4a8a 0007 f5f8 00f2     .E...E...J......
  412f24:	ffff 00ff ffff 00ff ffff 00ff ffff 00ff     ................
  412f34:	ffff 00ff ffff 00ff ffff 00ff bcd4 00a4     ................
  412f44:	4587 0000 4587 0000 4587 0000 4587 0000     .E...E...E...E..
  412f54:	4587 0000 4587 0000 4587 0000 77a7 0044     .E...E...E...wD.
  412f64:	ffff 00ff ffff 00ff ffff 00ff ffff 00ff     ................
  412f74:	ffff 00ff ffff 00ff ffff 00ff ffff 00ff     ................
  412f84:	ffff 00ff c6d9 00b1 4587 0000 4587 0000     .........E...E..
  412f94:	4587 0000 4587 0000 4587 0000 4587 0000     .E...E...E...E..
  412fa4:	4587 0000 689e 0030 ffff 00ff ffff 00ff     .E...h0.........
  412fb4:	ffff 00ff ffff 00ff ffff 00ff ffff 00ff     ................
  412fc4:	ffff 00ff ffff 00ff 7baa 004b 4587 0000     .........{K..E..
  412fd4:	4587 0000 4587 0000 4587 0000 4587 0000     .E...E...E...E..
  412fe4:	4587 0000 4587 0000 a6c6 0085 ffff 00ff     .E...E..........
  412ff4:	ffff 00ff d1e1 00c0 4587 0000 4587 0000     .........E...E..
  413004:	4587 0000 4587 0000 4587 0000 4587 0000     .E...E...E...E..
  413014:	4587 0000 7dab 004e ffff 00ff ffff 00ff     .E...}N.........
  413024:	ffff 00ff ffff 00ff ffff 00ff ffff 00ff     ................
  413034:	88b2 005c ffff 00ff ffff 00ff ffff 00ff     ..\.............
  413044:	ffff 00ff ffff 00ff ffff 00ff ffff 00ff     ................
  413054:	ffff 00ff ffff 00ff ffff 00ff ffff 00ff     ................
  413064:	dde9 00d0 c9dd 00b7 ffff 00ff ffff 00ff     ................
  413074:	ffff 00ff ffff 00ff ffff 00ff ffff 00ff     ................
  413084:	ffff 00ff ffff 00ff ffff 00ff ffff 00ff     ................
  413094:	ffff 00ff ffff 00ff ffff 00ff ffff 00ff     ................
  4130a4:	ffff 00ff ffff 00ff ffff 00ff ffff 00ff     ................
  4130b4:	ffff 00ff ffff 00ff ffff 00ff ffff 00ff     ................
  4130c4:	ffff 00ff ffff 00ff ffff 00ff ffff 00ff     ................
  4130d4:	ffff 00ff ffff 00ff ffff 00ff ffff 00ff     ................
  4130e4:	ffff 00ff ffff 00ff ffff 00ff ffff 00ff     ................
  4130f4:	ffff 00ff ffff 00ff ffff 00ff ffff 00ff     ................
  413104:	ffff 00ff ffff 00ff ffff 00ff ffff 00ff     ................
  413114:	ffff 00ff ffff 00ff ffff 00ff ffff 00ff     ................
  413124:	ffff 00ff ffff 00ff ffff 00ff ffff 00ff     ................
  413134:	ffff 00ff ffff 00ff ffff 00ff ffff 00ff     ................
  413144:	ffff 00ff ffff 00ff a4c5 0084 ffff 00ff     ................
  413154:	ffff 00ff ffff 00ff ffff 00ff ffff 00ff     ................
  413164:	ffff 00ff ffff 00ff ffff 00ff ffff 00ff     ................
  413174:	ffff 00ff ffff 00ff dde8 00d1 a5c5 0083     ................
  413184:	ffff 00ff ffff 00ff ffff 00ff ffff 00ff     ................
  413194:	ffff 00ff ffff 00ff ffff 00ff ffff 00ff     ................
  4131a4:	ffff 00ff ffff 00ff ffff 00ff ffff 00ff     ................
  4131b4:	ffff 00ff ffff 00ff ffff 00ff ffff 00ff     ................
  4131c4:	ffff 00ff ffff 00ff ffff 00ff ffff 00ff     ................
  4131d4:	ffff 00ff c2d7 00ac 4587 0000 4587 0000     .........E...E..
  4131e4:	4587 0000 4587 0000 4587 0000 4587 0000     .E...E...E...E..
  4131f4:	4587 0000 e4ee 00da fefe 00fd 5792 0019     .E...........W..
  413204:	4587 0000 4587 0000 4587 0000 4587 0000     .E...E...E...E..
  413214:	4587 0000 4587 0000 bdd5 00a5 ffff 00ff     .E...E..........
  413224:	ffff 00ff ffff 00ff 8bb5 0062 4587 0000     ..........b..E..
  413234:	4587 0000 4587 0000 4587 0000 4587 0000     .E...E...E...E..
  413244:	4587 0000 6b9f 0035 ffff 00ff cede 00bc     .E...k5.........
  413254:	4587 0000 4587 0000 4587 0000 4587 0000     .E...E...E...E..
  413264:	4587 0000 4587 0000 4587 0000 d3e3 00c3     .E...E...E......
  413274:	ffff 00ff ffff 00ff ffff 00ff ffff 00ff     ................
  413284:	ffff 00ff ffff 00ff ffff 00ff 83ae 0056     ..............V.
  413294:	4587 0000 4587 0000 4587 0000 4587 0000     .E...E...E...E..
  4132a4:	4587 0000 4587 0000 4587 0000 9bbf 0077     .E...E...E....w.
  4132b4:	ffff 00ff ffff 00ff ffff 00ff 8ab3 005f     .............._.
  4132c4:	4587 0000 4587 0000 4587 0000 4587 0000     .E...E...E...E..
  4132d4:	4587 0000 4587 0000 4587 0000 c2d7 00ab     .E...E...E......
  4132e4:	ffff 00ff ffff 00ff ffff 00ff ffff 00ff     ................
  4132f4:	ffff 00ff ffff 00ff ffff 00ff bcd4 00a4     ................
  413304:	4587 0000 4587 0000 4587 0000 4587 0000     .E...E...E...E..
  413314:	4587 0000 4587 0000 4587 0000 77a7 0044     .E...E...E...wD.
  413324:	ffff 00ff ffff 00ff ffff 00ff ffff 00ff     ................
  413334:	ffff 00ff ffff 00ff ffff 00ff ffff 00ff     ................
  413344:	ffff 00ff c6d9 00b1 4587 0000 4587 0000     .........E...E..
  413354:	4587 0000 4587 0000 4587 0000 4587 0000     .E...E...E...E..
  413364:	4587 0000 689e 0030 ffff 00ff ffff 00ff     .E...h0.........
  413374:	ffff 00ff ffff 00ff ffff 00ff ffff 00ff     ................
  413384:	ffff 00ff f8fb 00f6 4c8b 000a 4587 0000     .........L...E..
  413394:	4587 0000 4587 0000 4587 0000 4587 0000     .E...E...E...E..
  4133a4:	4587 0000 4587 0000 dae7 00cd ffff 00ff     .E...E..........
  4133b4:	ffff 00ff fcfd 00fb 508f 0010 4587 0000     .........P...E..
  4133c4:	4587 0000 4587 0000 4587 0000 4587 0000     .E...E...E...E..
  4133d4:	4587 0000 4b8b 0009 f8fa 00f5 ffff 00ff     .E...K..........
  4133e4:	ffff 00ff ffff 00ff ffff 00ff ffff 00ff     ................
  4133f4:	92b7 0069 ffff 00ff ffff 00ff ffff 00ff     ..i.............
  413404:	ffff 00ff ffff 00ff ffff 00ff ffff 00ff     ................
  413414:	ffff 00ff ffff 00ff ffff 00ff ffff 00ff     ................
  413424:	dde9 00d0 d3e3 00c3 ffff 00ff ffff 00ff     ................
  413434:	ffff 00ff ffff 00ff ffff 00ff ffff 00ff     ................
  413444:	ffff 00ff ffff 00ff ffff 00ff ffff 00ff     ................
  413454:	ffff 00ff ffff 00ff ffff 00ff ffff 00ff     ................
  413464:	ffff 00ff ffff 00ff ffff 00ff ffff 00ff     ................
  413474:	ffff 00ff ffff 00ff ffff 00ff ffff 00ff     ................
  413484:	ffff 00ff ffff 00ff ffff 00ff ffff 00ff     ................
  413494:	ffff 00ff ffff 00ff ffff 00ff ffff 00ff     ................
  4134a4:	ffff 00ff ffff 00ff ffff 00ff ffff 00ff     ................
  4134b4:	ffff 00ff ffff 00ff ffff 00ff ffff 00ff     ................
  4134c4:	ffff 00ff ffff 00ff ffff 00ff ffff 00ff     ................
  4134d4:	ffff 00ff ffff 00ff ffff 00ff ffff 00ff     ................
  4134e4:	ffff 00ff ffff 00ff ffff 00ff ffff 00ff     ................
  4134f4:	ffff 00ff ffff 00ff ffff 00ff ffff 00ff     ................
  413504:	ffff 00ff ffff 00ff afcc 0092 ffff 00ff     ................
  413514:	ffff 00ff ffff 00ff ffff 00ff ffff 00ff     ................
  413524:	ffff 00ff ffff 00ff ffff 00ff ffff 00ff     ................
  413534:	ffff 00ff ffff 00ff e7ee 00de a5c5 0083     ................
  413544:	ffff 00ff ffff 00ff ffff 00ff ffff 00ff     ................
  413554:	ffff 00ff ffff 00ff ffff 00ff ffff 00ff     ................
  413564:	ffff 00ff ffff 00ff ffff 00ff ffff 00ff     ................
  413574:	ffff 00ff ffff 00ff ffff 00ff ffff 00ff     ................
  413584:	ffff 00ff ffff 00ff ffff 00ff ffff 00ff     ................
  413594:	ffff 00ff c2d7 00ac 4587 0000 4587 0000     .........E...E..
  4135a4:	4587 0000 4587 0000 4587 0000 4587 0000     .E...E...E...E..
  4135b4:	4587 0000 dde8 00d1 ffff 00ff 93b8 006b     .E............k.
  4135c4:	4587 0000 4587 0000 4587 0000 4587 0000     .E...E...E...E..
  4135d4:	4587 0000 4587 0000 85af 0058 ffff 00ff     .E...E....X.....
  4135e4:	ffff 00ff feff 00fe 5793 001a 4587 0000     .........W...E..
  4135f4:	4587 0000 4587 0000 4587 0000 4587 0000     .E...E...E...E..
  413604:	4587 0000 aac7 008a ffff 00ff c7da 00b3     .E..............
  413614:	4587 0000 4587 0000 4587 0000 4587 0000     .E...E...E...E..
  413624:	4587 0000 4587 0000 4587 0000 d3e3 00c3     .E...E...E......
  413634:	ffff 00ff ffff 00ff ffff 00ff ffff 00ff     ................
  413644:	ffff 00ff ffff 00ff fbfd 00fa 508f 0010     .............P..
  413654:	4587 0000 4587 0000 4587 0000 4587 0000     .E...E...E...E..
  413664:	4587 0000 4587 0000 4587 0000 d0df 00be     .E...E...E......
  413674:	ffff 00ff ffff 00ff ffff 00ff bfd6 00a8     ................
  413684:	4587 0000 4587 0000 4587 0000 4587 0000     .E...E...E...E..
  413694:	4587 0000 4587 0000 4587 0000 8ab3 005e     .E...E...E....^.
  4136a4:	ffff 00ff ffff 00ff ffff 00ff ffff 00ff     ................
  4136b4:	ffff 00ff ffff 00ff ffff 00ff bcd4 00a4     ................
  4136c4:	4587 0000 4587 0000 4587 0000 4587 0000     .E...E...E...E..
  4136d4:	4587 0000 4587 0000 4587 0000 77a7 0044     .E...E...E...wD.
  4136e4:	ffff 00ff ffff 00ff ffff 00ff ffff 00ff     ................
  4136f4:	ffff 00ff ffff 00ff ffff 00ff ffff 00ff     ................
  413704:	ffff 00ff c6d9 00b1 4587 0000 4587 0000     .........E...E..
  413714:	4587 0000 4587 0000 4587 0000 4587 0000     .E...E...E...E..
  413724:	4587 0000 689e 0030 ffff 00ff ffff 00ff     .E...h0.........
  413734:	ffff 00ff ffff 00ff ffff 00ff ffff 00ff     ................
  413744:	ffff 00ff c6d9 00b1 4587 0000 4587 0000     .........E...E..
  413754:	4587 0000 4587 0000 4587 0000 4587 0000     .E...E...E...E..
  413764:	4587 0000 5490 0015 fefe 00fd ffff 00ff     .E...T..........
  413774:	ffff 00ff ffff 00ff 82af 0054 4587 0000     ..........T..E..
  413784:	4587 0000 4587 0000 4587 0000 4587 0000     .E...E...E...E..
  413794:	4587 0000 4587 0000 c6d9 00b1 ffff 00ff     .E...E..........
  4137a4:	ffff 00ff ffff 00ff ffff 00ff ffff 00ff     ................
  4137b4:	98bd 0072 ffff 00ff ffff 00ff ffff 00ff     ..r.............
  4137c4:	ffff 00ff ffff 00ff ffff 00ff ffff 00ff     ................
  4137d4:	ffff 00ff ffff 00ff ffff 00ff ffff 00ff     ................
  4137e4:	dde9 00d0 dae7 00cc ffff 00ff ffff 00ff     ................
  4137f4:	ffff 00ff ffff 00ff ffff 00ff ffff 00ff     ................
  413804:	ffff 00ff ffff 00ff ffff 00ff ffff 00ff     ................
  413814:	ffff 00ff ffff 00ff ffff 00ff ffff 00ff     ................
  413824:	ffff 00ff ffff 00ff ffff 00ff ffff 00ff     ................
  413834:	ffff 00ff ffff 00ff ffff 00ff ffff 00ff     ................
  413844:	ffff 00ff ffff 00ff ffff 00ff ffff 00ff     ................
  413854:	ffff 00ff ffff 00ff ffff 00ff ffff 00ff     ................
  413864:	ffff 00ff ffff 00ff ffff 00ff ffff 00ff     ................
  413874:	ffff 00ff ffff 00ff ffff 00ff ffff 00ff     ................
  413884:	ffff 00ff ffff 00ff ffff 00ff ffff 00ff     ................
  413894:	ffff 00ff ffff 00ff ffff 00ff ffff 00ff     ................
  4138a4:	ffff 00ff ffff 00ff ffff 00ff ffff 00ff     ................
  4138b4:	ffff 00ff ffff 00ff ffff 00ff ffff 00ff     ................
  4138c4:	ffff 00ff ffff 00ff b7d0 009c ffff 00ff     ................
  4138d4:	ffff 00ff ffff 00ff ffff 00ff ffff 00ff     ................
  4138e4:	ffff 00ff ffff 00ff ffff 00ff ffff 00ff     ................
  4138f4:	ffff 00ff ffff 00ff eef3 00e8 a5c5 0083     ................
  413904:	ffff 00ff ffff 00ff ffff 00ff ffff 00ff     ................
  413914:	ffff 00ff ffff 00ff ffff 00ff ffff 00ff     ................
  413924:	ffff 00ff ffff 00ff ffff 00ff ffff 00ff     ................
  413934:	ffff 00ff ffff 00ff ffff 00ff ffff 00ff     ................
  413944:	ffff 00ff ffff 00ff ffff 00ff ffff 00ff     ................
  413954:	ffff 00ff c2d7 00ac 4587 0000 4587 0000     .........E...E..
  413964:	4587 0000 4587 0000 4587 0000 4587 0000     .E...E...E...E..
  413974:	4587 0000 d7e4 00c8 ffff 00ff d1e1 00c0     .E..............
  413984:	4587 0000 4587 0000 4587 0000 4587 0000     .E...E...E...E..
  413994:	4587 0000 4587 0000 4f8e 000f fbfc 00f9     .E...E...O......
  4139a4:	ffff 00ff dae7 00cc 4587 0000 4587 0000     .........E...E..
  4139b4:	4587 0000 4587 0000 4587 0000 4587 0000     .E...E...E...E..
  4139c4:	4587 0000 e5ee 00dc ffff 00ff c1d7 00aa     .E..............
  4139d4:	4587 0000 4587 0000 4587 0000 4587 0000     .E...E...E...E..
  4139e4:	4587 0000 4587 0000 4587 0000 d3e3 00c3     .E...E...E......
  4139f4:	ffff 00ff ffff 00ff ffff 00ff ffff 00ff     ................
  413a04:	ffff 00ff ffff 00ff cddf 00bb 4587 0000     .............E..
  413a14:	4587 0000 4587 0000 4587 0000 4587 0000     .E...E...E...E..
  413a24:	4587 0000 4587 0000 4d8c 000c fafc 00f8     .E...E...M......
  413a34:	ffff 00ff ffff 00ff ffff 00ff f3f7 00ee     ................
  413a44:	4788 0004 4587 0000 4587 0000 4587 0000     .G...E...E...E..
  413a54:	4587 0000 4587 0000 4587 0000 528e 0012     .E...E...E...R..
  413a64:	fcfd 00fb ffff 00ff ffff 00ff ffff 00ff     ................
  413a74:	ffff 00ff ffff 00ff ffff 00ff bcd4 00a4     ................
  413a84:	4587 0000 4587 0000 4587 0000 4587 0000     .E...E...E...E..
  413a94:	4587 0000 4587 0000 4587 0000 77a7 0044     .E...E...E...wD.
  413aa4:	ffff 00ff ffff 00ff ffff 00ff ffff 00ff     ................
  413ab4:	ffff 00ff ffff 00ff ffff 00ff ffff 00ff     ................
  413ac4:	ffff 00ff c6d9 00b1 4587 0000 4587 0000     .........E...E..
  413ad4:	4587 0000 4587 0000 4587 0000 4587 0000     .E...E...E...E..
  413ae4:	4587 0000 689e 0030 ffff 00ff ffff 00ff     .E...h0.........
  413af4:	ffff 00ff ffff 00ff ffff 00ff ffff 00ff     ................
  413b04:	ffff 00ff 8db6 0064 4587 0000 4587 0000     ......d..E...E..
  413b14:	4587 0000 4587 0000 4587 0000 4587 0000     .E...E...E...E..
  413b24:	4587 0000 8ab3 005e ffff 00ff ffff 00ff     .E....^.........
  413b34:	ffff 00ff ffff 00ff b7d0 009d 4587 0000     .............E..
  413b44:	4587 0000 4587 0000 4587 0000 4587 0000     .E...E...E...E..
  413b54:	4587 0000 4587 0000 8db6 0063 ffff 00ff     .E...E....c.....
  413b64:	ffff 00ff ffff 00ff ffff 00ff ffff 00ff     ................
  413b74:	92b7 0069 ffff 00ff ffff 00ff ffff 00ff     ..i.............
  413b84:	ffff 00ff ffff 00ff ffff 00ff ffff 00ff     ................
  413b94:	ffff 00ff ffff 00ff ffff 00ff ffff 00ff     ................
  413ba4:	dde9 00d0 d3e3 00c3 ffff 00ff ffff 00ff     ................
  413bb4:	ffff 00ff ffff 00ff ffff 00ff ffff 00ff     ................
  413bc4:	ffff 00ff ffff 00ff ffff 00ff ffff 00ff     ................
  413bd4:	ffff 00ff ffff 00ff ffff 00ff ffff 00ff     ................
  413be4:	ffff 00ff ffff 00ff ffff 00ff ffff 00ff     ................
  413bf4:	ffff 00ff ffff 00ff ffff 00ff ffff 00ff     ................
  413c04:	ffff 00ff ffff 00ff ffff 00ff ffff 00ff     ................
  413c14:	ffff 00ff ffff 00ff ffff 00ff ffff 00ff     ................
  413c24:	ffff 00ff ffff 00ff ffff 00ff ffff 00ff     ................
  413c34:	ffff 00ff ffff 00ff ffff 00ff ffff 00ff     ................
  413c44:	ffff 00ff ffff 00ff ffff 00ff ffff 00ff     ................
  413c54:	ffff 00ff ffff 00ff ffff 00ff ffff 00ff     ................
  413c64:	ffff 00ff ffff 00ff ffff 00ff ffff 00ff     ................
  413c74:	ffff 00ff ffff 00ff ffff 00ff ffff 00ff     ................
  413c84:	ffff 00ff ffff 00ff afca 0091 ffff 00ff     ................
  413c94:	ffff 00ff ffff 00ff ffff 00ff ffff 00ff     ................
  413ca4:	ffff 00ff ffff 00ff ffff 00ff ffff 00ff     ................
  413cb4:	ffff 00ff ffff 00ff e7ee 00de a5c5 0083     ................
  413cc4:	ffff 00ff ffff 00ff ffff 00ff ffff 00ff     ................
  413cd4:	ffff 00ff ffff 00ff ffff 00ff ffff 00ff     ................
  413ce4:	ffff 00ff ffff 00ff ffff 00ff ffff 00ff     ................
  413cf4:	ffff 00ff ffff 00ff ffff 00ff ffff 00ff     ................
  413d04:	ffff 00ff ffff 00ff ffff 00ff ffff 00ff     ................
  413d14:	ffff 00ff c2d7 00ac 4587 0000 4587 0000     .........E...E..
  413d24:	4587 0000 4587 0000 4587 0000 4587 0000     .E...E...E...E..
  413d34:	4587 0000 d0e0 00bf ffff 00ff fefe 00fd     .E..............
  413d44:	5793 001a 4587 0000 4587 0000 4587 0000     .W...E...E...E..
  413d54:	4587 0000 4587 0000 4587 0000 cede 00bc     .E...E...E......
  413d64:	ffff 00ff a3c4 0082 4587 0000 4587 0000     .........E...E..
  413d74:	4587 0000 4587 0000 4587 0000 4587 0000     .E...E...E...E..
  413d84:	6a9e 0034 ffff 00ff ffff 00ff bad3 00a1     .j4.............
  413d94:	4587 0000 4587 0000 4587 0000 4587 0000     .E...E...E...E..
  413da4:	4587 0000 4587 0000 4587 0000 d3e3 00c3     .E...E...E......
  413db4:	ffff 00ff ffff 00ff ffff 00ff ffff 00ff     ................
  413dc4:	ffff 00ff ffff 00ff 95ba 006e 4587 0000     ..........n..E..
  413dd4:	4587 0000 4587 0000 4587 0000 4587 0000     .E...E...E...E..
  413de4:	4587 0000 4587 0000 7ead 0050 ffff 00ff     .E...E...~P.....
  413df4:	ffff 00ff ffff 00ff ffff 00ff ffff 00ff     ................
  413e04:	70a3 003c 4587 0000 4587 0000 4587 0000     .p<..E...E...E..
  413e14:	4587 0000 4587 0000 4587 0000 4587 0000     .E...E...E...E..
  413e24:	d1e1 00c0 ffff 00ff ffff 00ff ffff 00ff     ................
  413e34:	ffff 00ff ffff 00ff ffff 00ff bcd4 00a4     ................
  413e44:	4587 0000 4587 0000 4587 0000 4587 0000     .E...E...E...E..
  413e54:	4587 0000 4587 0000 4587 0000 77a7 0044     .E...E...E...wD.
  413e64:	ffff 00ff ffff 00ff ffff 00ff ffff 00ff     ................
  413e74:	ffff 00ff ffff 00ff ffff 00ff ffff 00ff     ................
  413e84:	ffff 00ff c6d9 00b1 4587 0000 4587 0000     .........E...E..
  413e94:	4587 0000 4587 0000 4587 0000 4587 0000     .E...E...E...E..
  413ea4:	4587 0000 689e 0030 ffff 00ff ffff 00ff     .E...h0.........
  413eb4:	ffff 00ff ffff 00ff ffff 00ff ffff 00ff     ................
  413ec4:	feff 00fe 5893 001b 4587 0000 4587 0000     .....X...E...E..
  413ed4:	4587 0000 4587 0000 4587 0000 4587 0000     .E...E...E...E..
  413ee4:	4587 0000 bdd5 00a5 ffff 00ff ffff 00ff     .E..............
  413ef4:	ffff 00ff ffff 00ff edf3 00e7 4587 0001     .............E..
  413f04:	4587 0000 4587 0000 4587 0000 4587 0000     .E...E...E...E..
  413f14:	4587 0000 4587 0000 5591 0016 fefe 00fd     .E...E...U......
  413f24:	ffff 00ff ffff 00ff ffff 00ff ffff 00ff     ................
  413f34:	88b2 005c ffff 00ff ffff 00ff ffff 00ff     ..\.............
  413f44:	ffff 00ff ffff 00ff ffff 00ff ffff 00ff     ................
  413f54:	ffff 00ff ffff 00ff ffff 00ff ffff 00ff     ................
  413f64:	dde9 00d0 cadc 00b6 ffff 00ff ffff 00ff     ................
  413f74:	ffff 00ff ffff 00ff ffff 00ff ffff 00ff     ................
  413f84:	ffff 00ff ffff 00ff ffff 00ff ffff 00ff     ................
  413f94:	ffff 00ff ffff 00ff ffff 00ff ffff 00ff     ................
  413fa4:	ffff 00ff ffff 00ff ffff 00ff ffff 00ff     ................
  413fb4:	ffff 00ff ffff 00ff ffff 00ff ffff 00ff     ................
  413fc4:	ffff 00ff ffff 00ff ffff 00ff ffff 00ff     ................
  413fd4:	ffff 00ff ffff 00ff ffff 00ff ffff 00ff     ................
  413fe4:	ffff 00ff ffff 00ff ffff 00ff ffff 00ff     ................
  413ff4:	ffff 00ff ffff 00ff ffff 00ff ffff 00ff     ................
  414004:	ffff 00ff ffff 00ff ffff 00ff ffff 00ff     ................
  414014:	ffff 00ff ffff 00ff ffff 00ff ffff 00ff     ................
  414024:	ffff 00ff ffff 00ff ffff 00ff ffff 00ff     ................
  414034:	ffff 00ff ffff 00ff ffff 00ff ffff 00ff     ................
  414044:	ffff 00ff ffff 00ff a4c5 0084 ffff 00ff     ................
  414054:	ffff 00ff ffff 00ff ffff 00ff ffff 00ff     ................
  414064:	ffff 00ff ffff 00ff ffff 00ff ffff 00ff     ................
  414074:	ffff 00ff ffff 00ff dde9 00d0 a5c5 0083     ................
  414084:	ffff 00ff ffff 00ff ffff 00ff ffff 00ff     ................
  414094:	ffff 00ff ffff 00ff ffff 00ff ffff 00ff     ................
  4140a4:	ffff 00ff ffff 00ff ffff 00ff ffff 00ff     ................
  4140b4:	ffff 00ff ffff 00ff ffff 00ff ffff 00ff     ................
  4140c4:	ffff 00ff ffff 00ff ffff 00ff ffff 00ff     ................
  4140d4:	ffff 00ff c2d7 00ac 4587 0000 4587 0000     .........E...E..
  4140e4:	4587 0000 4587 0000 4587 0000 4587 0000     .E...E...E...E..
  4140f4:	4587 0000 cadc 00b6 ffff 00ff ffff 00ff     .E..............
  414104:	95b9 006d 4587 0000 4587 0000 4587 0000     ..m..E...E...E..
  414114:	4587 0000 4587 0000 4587 0000 95bb 006f     .E...E...E....o.
  414124:	ffff 00ff 6da1 0038 4587 0000 4587 0000     .....m8..E...E..
  414134:	4587 0000 4587 0000 4587 0000 4587 0000     .E...E...E...E..
  414144:	a8c7 0089 ffff 00ff ffff 00ff b3ce 0098     ................
  414154:	4587 0000 4587 0000 4587 0000 4587 0000     .E...E...E...E..
  414164:	4587 0000 4587 0000 4587 0000 d3e3 00c3     .E...E...E......
  414174:	ffff 00ff ffff 00ff ffff 00ff ffff 00ff     ................
  414184:	ffff 00ff ffff 00ff 5d97 0021 4587 0000     .........]!..E..
  414194:	4587 0000 4587 0000 4587 0000 4587 0000     .E...E...E...E..
  4141a4:	4587 0000 4587 0000 b3ce 0097 ffff 00ff     .E...E..........
  4141b4:	ffff 00ff ffff 00ff ffff 00ff ffff 00ff     ................
  4141c4:	a6c6 0085 4587 0000 4587 0000 4587 0000     .....E...E...E..
  4141d4:	4587 0000 4587 0000 4587 0000 4587 0000     .E...E...E...E..
  4141e4:	98bd 0073 ffff 00ff ffff 00ff ffff 00ff     ..s.............
  4141f4:	ffff 00ff ffff 00ff ffff 00ff bcd4 00a4     ................
  414204:	4587 0000 4587 0000 4587 0000 4587 0000     .E...E...E...E..
  414214:	4587 0000 4587 0000 4587 0000 77a7 0044     .E...E...E...wD.
  414224:	ffff 00ff ffff 00ff ffff 00ff ffff 00ff     ................
  414234:	ffff 00ff ffff 00ff ffff 00ff ffff 00ff     ................
  414244:	ffff 00ff c6d9 00b1 4587 0000 4587 0000     .........E...E..
  414254:	4587 0000 4587 0000 4587 0000 4587 0000     .E...E...E...E..
  414264:	4587 0000 689e 0030 ffff 00ff ffff 00ff     .E...h0.........
  414274:	ffff 00ff ffff 00ff ffff 00ff ffff 00ff     ................
  414284:	d7e6 00ca 4587 0000 4587 0000 4587 0000     .....E...E...E..
  414294:	4587 0000 4587 0000 4587 0000 4587 0000     .E...E...E...E..
  4142a4:	4687 0002 eff4 00e9 ffff 00ff ffff 00ff     .F..............
  4142b4:	ffff 00ff ffff 00ff ffff 00ff 689f 0032     .............h2.
  4142c4:	4587 0000 4587 0000 4587 0000 4587 0000     .E...E...E...E..
  4142d4:	4587 0000 4587 0000 4587 0000 d4e3 00c6     .E...E...E......
  4142e4:	ffff 00ff ffff 00ff ffff 00ff ffff 00ff     ................
  4142f4:	7fac 004f ffff 00ff ffff 00ff ffff 00ff     ..O.............
  414304:	ffff 00ff ffff 00ff ffff 00ff ffff 00ff     ................
  414314:	ffff 00ff ffff 00ff ffff 00ff ffff 00ff     ................
  414324:	dde9 00d0 bcd4 00a4 ffff 00ff ffff 00ff     ................
  414334:	ffff 00ff ffff 00ff ffff 00ff ffff 00ff     ................
  414344:	ffff 00ff ffff 00ff ffff 00ff ffff 00ff     ................
  414354:	ffff 00ff ffff 00ff ffff 00ff ffff 00ff     ................
  414364:	ffff 00ff ffff 00ff ffff 00ff ffff 00ff     ................
  414374:	ffff 00ff ffff 00ff ffff 00ff ffff 00ff     ................
  414384:	ffff 00ff ffff 00ff ffff 00ff ffff 00ff     ................
  414394:	ffff 00ff ffff 00ff ffff 00ff ffff 00ff     ................
  4143a4:	ffff 00ff ffff 00ff ffff 00ff ffff 00ff     ................
  4143b4:	ffff 00ff ffff 00ff ffff 00ff ffff 00ff     ................
  4143c4:	ffff 00ff ffff 00ff ffff 00ff ffff 00ff     ................
  4143d4:	ffff 00ff ffff 00ff ffff 00ff ffff 00ff     ................
  4143e4:	ffff 00ff ffff 00ff ffff 00ff ffff 00ff     ................
  4143f4:	ffff 00ff ffff 00ff ffff 00ff ffff 00ff     ................
  414404:	ffff 00ff ffff 00ff 98bd 0072 ffff 00ff     ..........r.....
  414414:	ffff 00ff ffff 00ff ffff 00ff ffff 00ff     ................
  414424:	ffff 00ff ffff 00ff ffff 00ff ffff 00ff     ................
  414434:	ffff 00ff ffff 00ff d3e3 00c3 a5c5 0083     ................
  414444:	ffff 00ff ffff 00ff ffff 00ff ffff 00ff     ................
  414454:	ffff 00ff ffff 00ff ffff 00ff ffff 00ff     ................
  414464:	ffff 00ff ffff 00ff ffff 00ff ffff 00ff     ................
  414474:	ffff 00ff ffff 00ff ffff 00ff ffff 00ff     ................
  414484:	ffff 00ff ffff 00ff ffff 00ff ffff 00ff     ................
  414494:	ffff 00ff c2d7 00ac 4587 0000 4587 0000     .........E...E..
  4144a4:	4587 0000 4587 0000 4587 0000 4587 0000     .E...E...E...E..
  4144b4:	4587 0000 c2d8 00ad ffff 00ff ffff 00ff     .E..............
  4144c4:	d2e2 00c2 4587 0000 4587 0000 4587 0000     .....E...E...E..
  4144d4:	4587 0000 4587 0000 4587 0000 5c96 0020     .E...E...E...\ .
  4144e4:	f0f5 00ea 4788 0003 4587 0000 4587 0000     .....G...E...E..
  4144f4:	4587 0000 4587 0000 4587 0000 4587 0000     .E...E...E...E..
  414504:	e5ee 00dc ffff 00ff ffff 00ff acc9 008f     ................
  414514:	4587 0000 4587 0000 4587 0000 4587 0000     .E...E...E...E..
  414524:	4587 0000 4587 0000 4587 0000 d3e3 00c3     .E...E...E......
  414534:	ffff 00ff ffff 00ff ffff 00ff ffff 00ff     ................
  414544:	ffff 00ff dfe9 00d3 4587 0000 4587 0000     .........E...E..
  414554:	4587 0000 4587 0000 4587 0000 4587 0000     .E...E...E...E..
  414564:	4587 0000 4587 0000 e6ef 00dd ffff 00ff     .E...E..........
  414574:	ffff 00ff ffff 00ff ffff 00ff ffff 00ff     ................
  414584:	dbe8 00cf 4587 0000 4587 0000 4587 0000     .....E...E...E..
  414594:	4587 0000 4587 0000 4587 0000 4587 0000     .E...E...E...E..
  4145a4:	5f96 0023 ffff 00ff ffff 00ff ffff 00ff     ._#.............
  4145b4:	ffff 00ff ffff 00ff ffff 00ff bcd4 00a4     ................
  4145c4:	4587 0000 4587 0000 4587 0000 4587 0000     .E...E...E...E..
  4145d4:	4587 0000 4587 0000 4587 0000 77a7 0044     .E...E...E...wD.
  4145e4:	ffff 00ff ffff 00ff ffff 00ff ffff 00ff     ................
  4145f4:	ffff 00ff ffff 00ff ffff 00ff ffff 00ff     ................
  414604:	ffff 00ff c6d9 00b1 4587 0000 4587 0000     .........E...E..
  414614:	4587 0000 4587 0000 4587 0000 4587 0000     .E...E...E...E..
  414624:	4587 0000 689e 0030 ffff 00ff ffff 00ff     .E...h0.........
  414634:	ffff 00ff ffff 00ff ffff 00ff ffff 00ff     ................
  414644:	a0c1 007d 4587 0000 4587 0000 4587 0000     ..}..E...E...E..
  414654:	4587 0000 4587 0000 4587 0000 4587 0000     .E...E...E...E..
  414664:	6b9f 0035 ffff 00ff ffff 00ff ffff 00ff     .k5.............
  414674:	ffff 00ff ffff 00ff ffff 00ff 9fc0 007b     ..............{.
  414684:	4587 0000 4587 0000 4587 0000 4587 0000     .E...E...E...E..
  414694:	4587 0000 4587 0000 4587 0000 9dbe 0078     .E...E...E....x.
  4146a4:	ffff 00ff ffff 00ff ffff 00ff ffff 00ff     ................
  4146b4:	73a5 0040 ffff 00ff ffff 00ff ffff 00ff     .s@.............
  4146c4:	ffff 00ff ffff 00ff ffff 00ff ffff 00ff     ................
  4146d4:	ffff 00ff ffff 00ff ffff 00ff ffff 00ff     ................
  4146e4:	dde9 00d0 a2c2 007f ffff 00ff ffff 00ff     ................
  4146f4:	ffff 00ff ffff 00ff ffff 00ff ffff 00ff     ................
  414704:	ffff 00ff ffff 00ff ffff 00ff ffff 00ff     ................
  414714:	ffff 00ff ffff 00ff ffff 00ff ffff 00ff     ................
  414724:	ffff 00ff ffff 00ff ffff 00ff ffff 00ff     ................
  414734:	ffff 00ff ffff 00ff ffff 00ff ffff 00ff     ................
  414744:	ffff 00ff ffff 00ff ffff 00ff ffff 00ff     ................
  414754:	ffff 00ff ffff 00ff ffff 00ff ffff 00ff     ................
  414764:	ffff 00ff ffff 00ff ffff 00ff ffff 00ff     ................
  414774:	ffff 00ff ffff 00ff ffff 00ff ffff 00ff     ................
  414784:	ffff 00ff ffff 00ff ffff 00ff ffff 00ff     ................
  414794:	ffff 00ff ffff 00ff ffff 00ff ffff 00ff     ................
  4147a4:	ffff 00ff ffff 00ff ffff 00ff ffff 00ff     ................
  4147b4:	ffff 00ff ffff 00ff ffff 00ff ffff 00ff     ................
  4147c4:	ffff 00ff f8fb 00f6 83ae 0056 ffff 00ff     ..........V.....
  4147d4:	ffff 00ff ffff 00ff ffff 00ff ffff 00ff     ................
  4147e4:	ffff 00ff ffff 00ff ffff 00ff ffff 00ff     ................
  4147f4:	ffff 00ff ffff 00ff c9db 00b5 a5c5 0083     ................
  414804:	ffff 00ff ffff 00ff ffff 00ff ffff 00ff     ................
  414814:	ffff 00ff ffff 00ff ffff 00ff ffff 00ff     ................
  414824:	ffff 00ff ffff 00ff ffff 00ff ffff 00ff     ................
  414834:	ffff 00ff ffff 00ff ffff 00ff ffff 00ff     ................
  414844:	ffff 00ff ffff 00ff ffff 00ff ffff 00ff     ................
  414854:	ffff 00ff c2d7 00ac 4587 0000 4587 0000     .........E...E..
  414864:	4587 0000 4587 0000 4587 0000 4587 0000     .E...E...E...E..
  414874:	4587 0000 bbd4 00a3 ffff 00ff ffff 00ff     .E..............
  414884:	fefe 00fd 5793 001a 4587 0000 4587 0000     .....W...E...E..
  414894:	4587 0000 4587 0000 4587 0000 4587 0000     .E...E...E...E..
  4148a4:	93b8 006b 4587 0000 4587 0000 4587 0000     ..k..E...E...E..
  4148b4:	4587 0000 4587 0000 4587 0000 6a9f 0033     .E...E...E...j3.
  4148c4:	ffff 00ff ffff 00ff ffff 00ff a7c6 0086     ................
  4148d4:	4587 0000 4587 0000 4587 0000 4587 0000     .E...E...E...E..
  4148e4:	4587 0000 4587 0000 4587 0000 d3e3 00c3     .E...E...E......
  4148f4:	ffff 00ff ffff 00ff ffff 00ff ffff 00ff     ................
  414904:	ffff 00ff a6c6 0085 4587 0000 4587 0000     .........E...E..
  414914:	4587 0000 4587 0000 4587 0000 4587 0000     .E...E...E...E..
  414924:	4587 0000 629a 0029 ffff 00ff ffff 00ff     .E...b).........
  414934:	ffff 00ff ffff 00ff ffff 00ff ffff 00ff     ................
  414944:	feff 00fe 5893 001b 4587 0000 4587 0000     .....X...E...E..
  414954:	4587 0000 4587 0000 4587 0000 4587 0000     .E...E...E...E..
  414964:	4587 0000 e0eb 00d5 ffff 00ff ffff 00ff     .E..............
  414974:	ffff 00ff ffff 00ff ffff 00ff bcd4 00a4     ................
  414984:	4587 0000 4587 0000 4587 0000 4587 0000     .E...E...E...E..
  414994:	4587 0000 4587 0000 4587 0000 77a7 0044     .E...E...E...wD.
  4149a4:	ffff 00ff ffff 00ff ffff 00ff ffff 00ff     ................
  4149b4:	ffff 00ff ffff 00ff ffff 00ff ffff 00ff     ................
  4149c4:	ffff 00ff c6d9 00b1 4587 0000 4587 0000     .........E...E..
  4149d4:	4587 0000 4587 0000 4587 0000 4587 0000     .E...E...E...E..
  4149e4:	4587 0000 689e 0030 ffff 00ff ffff 00ff     .E...h0.........
  4149f4:	ffff 00ff ffff 00ff ffff 00ff ffff 00ff     ................
  414a04:	679d 002f 4587 0000 4587 0000 4587 0000     .g/..E...E...E..
  414a14:	4587 0000 4587 0000 4587 0000 4587 0000     .E...E...E...E..
  414a24:	a0c1 007d ffff 00ff ffff 00ff ffff 00ff     ..}.............
  414a34:	ffff 00ff ffff 00ff ffff 00ff d3e3 00c4     ................
  414a44:	4587 0000 4587 0000 4587 0000 4587 0000     .E...E...E...E..
  414a54:	4587 0000 4587 0000 4587 0000 639a 002a     .E...E...E...c*.
  414a64:	ffff 00ff ffff 00ff ffff 00ff ffff 00ff     ................
  414a74:	5b95 001f ffff 00ff ffff 00ff ffff 00ff     .[..............
  414a84:	ffff 00ff ffff 00ff ffff 00ff ffff 00ff     ................
  414a94:	ffff 00ff ffff 00ff ffff 00ff ffff 00ff     ................
  414aa4:	dde9 00d0 85af 0058 ffff 00ff ffff 00ff     ......X.........
  414ab4:	ffff 00ff ffff 00ff ffff 00ff ffff 00ff     ................
  414ac4:	ffff 00ff ffff 00ff ffff 00ff ffff 00ff     ................
  414ad4:	ffff 00ff ffff 00ff ffff 00ff ffff 00ff     ................
  414ae4:	ffff 00ff ffff 00ff ffff 00ff ffff 00ff     ................
  414af4:	ffff 00ff ffff 00ff ffff 00ff ffff 00ff     ................
  414b04:	ffff 00ff ffff 00ff ffff 00ff ffff 00ff     ................
  414b14:	ffff 00ff ffff 00ff ffff 00ff ffff 00ff     ................
  414b24:	ffff 00ff ffff 00ff ffff 00ff ffff 00ff     ................
  414b34:	ffff 00ff ffff 00ff ffff 00ff ffff 00ff     ................
  414b44:	ffff 00ff ffff 00ff ffff 00ff ffff 00ff     ................
  414b54:	ffff 00ff ffff 00ff ffff 00ff ffff 00ff     ................
  414b64:	ffff 00ff ffff 00ff ffff 00ff ffff 00ff     ................
  414b74:	ffff 00ff ffff 00ff ffff 00ff ffff 00ff     ................
  414b84:	ffff 00ff dbe8 00cf 83af 0055 ffff 00ff     ..........U.....
  414b94:	ffff 00ff ffff 00ff ffff 00ff ffff 00ff     ................
  414ba4:	ffff 00ff ffff 00ff ffff 00ff ffff 00ff     ................
  414bb4:	ffff 00ff ffff 00ff afcc 0093 a5c5 0083     ................
  414bc4:	ffff 00ff ffff 00ff ffff 00ff ffff 00ff     ................
  414bd4:	ffff 00ff ffff 00ff ffff 00ff ffff 00ff     ................
  414be4:	ffff 00ff ffff 00ff ffff 00ff ffff 00ff     ................
  414bf4:	ffff 00ff ffff 00ff ffff 00ff ffff 00ff     ................
  414c04:	ffff 00ff ffff 00ff ffff 00ff ffff 00ff     ................
  414c14:	ffff 00ff c2d7 00ac 4587 0000 4587 0000     .........E...E..
  414c24:	4587 0000 4587 0000 4587 0000 4587 0000     .E...E...E...E..
  414c34:	4587 0000 b6cf 009b ffff 00ff ffff 00ff     .E..............
  414c44:	ffff 00ff 95ba 006e 4587 0000 4587 0000     ......n..E...E..
  414c54:	4587 0000 4587 0000 4587 0000 4587 0000     .E...E...E...E..
  414c64:	4587 0000 4587 0000 4587 0000 4587 0000     .E...E...E...E..
  414c74:	4587 0000 4587 0000 4587 0000 a8c7 0089     .E...E...E......
  414c84:	ffff 00ff ffff 00ff ffff 00ff a0c1 007d     ..............}.
  414c94:	4587 0000 4587 0000 4587 0000 4587 0000     .E...E...E...E..
  414ca4:	4587 0000 4587 0000 4587 0000 d3e3 00c3     .E...E...E......
  414cb4:	ffff 00ff ffff 00ff ffff 00ff ffff 00ff     ................
  414cc4:	ffff 00ff 6da1 0038 4587 0000 4587 0000     .....m8..E...E..
  414cd4:	4587 0000 4587 0000 4587 0000 4587 0000     .E...E...E...E..
  414ce4:	4587 0000 4587 0000 4587 0000 4587 0000     .E...E...E...E..
  414cf4:	4587 0000 4587 0000 4587 0000 4587 0000     .E...E...E...E..
  414d04:	4587 0000 4587 0000 4587 0000 4587 0000     .E...E...E...E..
  414d14:	4587 0000 4587 0000 4587 0000 4587 0000     .E...E...E...E..
  414d24:	4587 0000 a7c7 0087 ffff 00ff ffff 00ff     .E..............
  414d34:	ffff 00ff ffff 00ff ffff 00ff bcd4 00a4     ................
  414d44:	4587 0000 4587 0000 4587 0000 4587 0000     .E...E...E...E..
  414d54:	4587 0000 4587 0000 4587 0000 75a7 0043     .E...E...E...uC.
  414d64:	ffff 00ff ffff 00ff ffff 00ff ffff 00ff     ................
  414d74:	ffff 00ff ffff 00ff ffff 00ff ffff 00ff     ................
  414d84:	ffff 00ff c4d9 00af 4587 0000 4587 0000     .........E...E..
  414d94:	4587 0000 4587 0000 4587 0000 4587 0000     .E...E...E...E..
  414da4:	4587 0000 689e 0030 ffff 00ff ffff 00ff     .E...h0.........
  414db4:	ffff 00ff ffff 00ff ffff 00ff e9f1 00e2     ................
  414dc4:	4587 0001 4587 0000 4587 0000 4587 0000     .E...E...E...E..
  414dd4:	4587 0000 4587 0000 4587 0000 4587 0000     .E...E...E...E..
  414de4:	4587 0000 4587 0000 4587 0000 4587 0000     .E...E...E...E..
  414df4:	4587 0000 4587 0000 4587 0000 4587 0000     .E...E...E...E..
  414e04:	4587 0000 4587 0000 4587 0000 4587 0000     .E...E...E...E..
  414e14:	4587 0000 4587 0000 4587 0000 4587 0000     .E...E...E...E..
  414e24:	e4ee 00da ffff 00ff ffff 00ff ffff 00ff     ................
  414e34:	4687 0002 f8fa 00f5 ffff 00ff ffff 00ff     .F..............
  414e44:	ffff 00ff ffff 00ff ffff 00ff ffff 00ff     ................
  414e54:	ffff 00ff ffff 00ff ffff 00ff ffff 00ff     ................
  414e64:	dde9 00d0 6099 0027 ffff 00ff ffff 00ff     .....`'.........
  414e74:	ffff 00ff ffff 00ff ffff 00ff ffff 00ff     ................
  414e84:	ffff 00ff ffff 00ff ffff 00ff ffff 00ff     ................
  414e94:	ffff 00ff ffff 00ff ffff 00ff ffff 00ff     ................
  414ea4:	ffff 00ff ffff 00ff ffff 00ff ffff 00ff     ................
  414eb4:	ffff 00ff ffff 00ff ffff 00ff ffff 00ff     ................
  414ec4:	ffff 00ff ffff 00ff ffff 00ff ffff 00ff     ................
  414ed4:	ffff 00ff ffff 00ff ffff 00ff ffff 00ff     ................
  414ee4:	ffff 00ff ffff 00ff ffff 00ff ffff 00ff     ................
  414ef4:	ffff 00ff ffff 00ff ffff 00ff ffff 00ff     ................
  414f04:	ffff 00ff ffff 00ff ffff 00ff ffff 00ff     ................
  414f14:	ffff 00ff ffff 00ff ffff 00ff ffff 00ff     ................
  414f24:	ffff 00ff ffff 00ff ffff 00ff ffff 00ff     ................
  414f34:	ffff 00ff ffff 00ff ffff 00ff ffff 00ff     ................
  414f44:	ffff 00ff b8d1 009f 83af 0055 ffff 00ff     ..........U.....
  414f54:	ffff 00ff ffff 00ff ffff 00ff ffff 00ff     ................
  414f64:	ffff 00ff ffff 00ff ffff 00ff ffff 00ff     ................
  414f74:	ffff 00ff ffff 00ff 93b9 006c a5c5 0083     ..........l.....
  414f84:	ffff 00ff ffff 00ff ffff 00ff ffff 00ff     ................
  414f94:	ffff 00ff ffff 00ff ffff 00ff ffff 00ff     ................
  414fa4:	ffff 00ff ffff 00ff ffff 00ff ffff 00ff     ................
  414fb4:	ffff 00ff ffff 00ff ffff 00ff ffff 00ff     ................
  414fc4:	ffff 00ff ffff 00ff ffff 00ff ffff 00ff     ................
  414fd4:	ffff 00ff c2d7 00ac 4587 0000 4587 0000     .........E...E..
  414fe4:	4587 0000 4587 0000 4587 0000 4587 0000     .E...E...E...E..
  414ff4:	4587 0000 afcc 0092 ffff 00ff ffff 00ff     .E..............
  415004:	ffff 00ff d3e3 00c3 4587 0000 4587 0000     .........E...E..
  415014:	4587 0000 4587 0000 4587 0000 4587 0000     .E...E...E...E..
  415024:	4587 0000 4587 0000 4587 0000 4587 0000     .E...E...E...E..
  415034:	4587 0000 4587 0000 4587 0000 e5ee 00dc     .E...E...E......
  415044:	ffff 00ff ffff 00ff ffff 00ff 9abe 0074     ..............t.
  415054:	4587 0000 4587 0000 4587 0000 4587 0000     .E...E...E...E..
  415064:	4587 0000 4587 0000 4587 0000 d3e3 00c3     .E...E...E......
  415074:	ffff 00ff ffff 00ff ffff 00ff ffff 00ff     ................
  415084:	eff4 00e9 4687 0002 4587 0000 4587 0000     .....F...E...E..
  415094:	4587 0000 4587 0000 4587 0000 4587 0000     .E...E...E...E..
  4150a4:	4587 0000 4587 0000 4587 0000 4587 0000     .E...E...E...E..
  4150b4:	4587 0000 4587 0000 4587 0000 4587 0000     .E...E...E...E..
  4150c4:	4587 0000 4587 0000 4587 0000 4587 0000     .E...E...E...E..
  4150d4:	4587 0000 4587 0000 4587 0000 4587 0000     .E...E...E...E..
  4150e4:	4587 0000 6fa1 0039 ffff 00ff ffff 00ff     .E...o9.........
  4150f4:	ffff 00ff ffff 00ff ffff 00ff bfd6 00a8     ................
  415104:	4587 0000 4587 0000 4587 0000 4587 0000     .E...E...E...E..
  415114:	4587 0000 4587 0000 4587 0000 6c9f 0036     .E...E...E...l6.
  415124:	ffff 00ff ffff 00ff ffff 00ff ffff 00ff     ................
  415134:	ffff 00ff ffff 00ff ffff 00ff ffff 00ff     ................
  415144:	ffff 00ff bad3 00a1 4587 0000 4587 0000     .........E...E..
  415154:	4587 0000 4587 0000 4587 0000 4587 0000     .E...E...E...E..
  415164:	4587 0000 6fa1 0039 ffff 00ff ffff 00ff     .E...o9.........
  415174:	ffff 00ff ffff 00ff ffff 00ff b2cd 0095     ................
  415184:	4587 0000 4587 0000 4587 0000 4587 0000     .E...E...E...E..
  415194:	4587 0000 4587 0000 4587 0000 4587 0000     .E...E...E...E..
  4151a4:	4587 0000 4587 0000 4587 0000 4587 0000     .E...E...E...E..
  4151b4:	4587 0000 4587 0000 4587 0000 4587 0000     .E...E...E...E..
  4151c4:	4587 0000 4587 0000 4587 0000 4587 0000     .E...E...E...E..
  4151d4:	4587 0000 4587 0000 4587 0000 4587 0000     .E...E...E...E..
  4151e4:	abc8 008d ffff 00ff ffff 00ff ffff 00ff     ................
  4151f4:	4587 0000 dde9 00d0 ffff 00ff ffff 00ff     .E..............
  415204:	ffff 00ff ffff 00ff ffff 00ff ffff 00ff     ................
  415214:	ffff 00ff ffff 00ff ffff 00ff ffff 00ff     ................
  415224:	dde9 00d0 4587 0000 eaf1 00e4 ffff 00ff     .....E..........
  415234:	ffff 00ff ffff 00ff ffff 00ff ffff 00ff     ................
  415244:	ffff 00ff ffff 00ff ffff 00ff ffff 00ff     ................
  415254:	ffff 00ff ffff 00ff ffff 00ff ffff 00ff     ................
  415264:	ffff 00ff ffff 00ff ffff 00ff ffff 00ff     ................
  415274:	ffff 00ff ffff 00ff ffff 00ff ffff 00ff     ................
  415284:	ffff 00ff ffff 00ff ffff 00ff ffff 00ff     ................
  415294:	ffff 00ff ffff 00ff ffff 00ff ffff 00ff     ................
  4152a4:	ffff 00ff ffff 00ff ffff 00ff ffff 00ff     ................
  4152b4:	ffff 00ff ffff 00ff ffff 00ff ffff 00ff     ................
  4152c4:	ffff 00ff ffff 00ff ffff 00ff ffff 00ff     ................
  4152d4:	ffff 00ff ffff 00ff ffff 00ff ffff 00ff     ................
  4152e4:	ffff 00ff ffff 00ff ffff 00ff ffff 00ff     ................
  4152f4:	ffff 00ff ffff 00ff ffff 00ff ffff 00ff     ................
  415304:	ffff 00ff 88b2 005c 83af 0055 ffff 00ff     ......\...U.....
  415314:	ffff 00ff ffff 00ff ffff 00ff ffff 00ff     ................
  415324:	ffff 00ff ffff 00ff ffff 00ff ffff 00ff     ................
  415334:	ffff 00ff ffff 00ff 77a7 0044 a5c5 0083     .........wD.....
  415344:	ffff 00ff ffff 00ff ffff 00ff ffff 00ff     ................
  415354:	ffff 00ff ffff 00ff ffff 00ff ffff 00ff     ................
  415364:	ffff 00ff ffff 00ff ffff 00ff ffff 00ff     ................
  415374:	ffff 00ff ffff 00ff ffff 00ff ffff 00ff     ................
  415384:	ffff 00ff ffff 00ff ffff 00ff ffff 00ff     ................
  415394:	ffff 00ff c2d7 00ac 4587 0000 4587 0000     .........E...E..
  4153a4:	4587 0000 4587 0000 4587 0000 4587 0000     .E...E...E...E..
  4153b4:	4587 0000 a8c7 0089 ffff 00ff ffff 00ff     .E..............
  4153c4:	ffff 00ff feff 00fe 5a95 001e 4587 0000     .........Z...E..
  4153d4:	4587 0000 4587 0000 4587 0000 4587 0000     .E...E...E...E..
  4153e4:	4587 0000 4587 0000 4587 0000 4587 0000     .E...E...E...E..
  4153f4:	4587 0000 4587 0000 6a9f 0033 ffff 00ff     .E...E...j3.....
  415404:	ffff 00ff ffff 00ff ffff 00ff 93b8 006b     ..............k.
  415414:	4587 0000 4587 0000 4587 0000 4587 0000     .E...E...E...E..
  415424:	4587 0000 4587 0000 4587 0000 d3e3 00c3     .E...E...E......
  415434:	ffff 00ff ffff 00ff ffff 00ff ffff 00ff     ................
  415444:	b7d0 009d 4587 0000 4587 0000 4587 0000     .....E...E...E..
  415454:	4587 0000 4587 0000 4587 0000 4587 0000     .E...E...E...E..
  415464:	4587 0000 4587 0000 4587 0000 4587 0000     .E...E...E...E..
  415474:	4587 0000 4587 0000 4587 0000 4587 0000     .E...E...E...E..
  415484:	4587 0000 4587 0000 4587 0000 4587 0000     .E...E...E...E..
  415494:	4587 0000 4587 0000 4587 0000 4587 0000     .E...E...E...E..
  4154a4:	4587 0000 4687 0002 edf3 00e7 ffff 00ff     .E...F..........
  4154b4:	ffff 00ff ffff 00ff ffff 00ff c5da 00b0     ................
  4154c4:	4587 0000 4587 0000 4587 0000 4587 0000     .E...E...E...E..
  4154d4:	4587 0000 4587 0000 4587 0000 4c8b 000a     .E...E...E...L..
  4154e4:	f6f9 00f3 ffff 00ff ffff 00ff ffff 00ff     ................
  4154f4:	ffff 00ff ffff 00ff ffff 00ff ffff 00ff     ................
  415504:	ffff 00ff 95bb 006f 4587 0000 4587 0000     ......o..E...E..
  415514:	4587 0000 4587 0000 4587 0000 4587 0000     .E...E...E...E..
  415524:	4587 0000 7aa9 004a ffff 00ff ffff 00ff     .E...zJ.........
  415534:	ffff 00ff ffff 00ff ffff 00ff 7aa8 0048     .............zH.
  415544:	4587 0000 4587 0000 4587 0000 4587 0000     .E...E...E...E..
  415554:	4587 0000 4587 0000 4587 0000 4587 0000     .E...E...E...E..
  415564:	4587 0000 4587 0000 4587 0000 4587 0000     .E...E...E...E..
  415574:	4587 0000 4587 0000 4587 0000 4587 0000     .E...E...E...E..
  415584:	4587 0000 4587 0000 4587 0000 4587 0000     .E...E...E...E..
  415594:	4587 0000 4587 0000 4587 0000 4587 0000     .E...E...E...E..
  4155a4:	72a4 003f ffff 00ff ffff 00ff ffff 00ff     .r?.............
  4155b4:	4587 0000 bfd5 00a7 ffff 00ff ffff 00ff     .E..............
  4155c4:	ffff 00ff ffff 00ff ffff 00ff ffff 00ff     ................
  4155d4:	ffff 00ff ffff 00ff ffff 00ff ffff 00ff     ................
  4155e4:	dde9 00d0 4587 0000 bbd2 00a2 ffff 00ff     .....E..........
  4155f4:	ffff 00ff ffff 00ff ffff 00ff ffff 00ff     ................
  415604:	ffff 00ff ffff 00ff ffff 00ff ffff 00ff     ................
  415614:	ffff 00ff ffff 00ff ffff 00ff ffff 00ff     ................
  415624:	ffff 00ff ffff 00ff ffff 00ff ffff 00ff     ................
  415634:	ffff 00ff ffff 00ff ffff 00ff ffff 00ff     ................
  415644:	ffff 00ff ffff 00ff ffff 00ff ffff 00ff     ................
  415654:	ffff 00ff ffff 00ff ffff 00ff ffff 00ff     ................
  415664:	ffff 00ff ffff 00ff ffff 00ff ffff 00ff     ................
  415674:	ffff 00ff ffff 00ff ffff 00ff ffff 00ff     ................
  415684:	ffff 00ff ffff 00ff ffff 00ff ffff 00ff     ................
  415694:	ffff 00ff ffff 00ff ffff 00ff ffff 00ff     ................
  4156a4:	ffff 00ff ffff 00ff ffff 00ff ffff 00ff     ................
  4156b4:	ffff 00ff ffff 00ff ffff 00ff ffff 00ff     ................
  4156c4:	feff 00fe 5893 001b 83af 0055 ffff 00ff     .....X....U.....
  4156d4:	ffff 00ff ffff 00ff ffff 00ff ffff 00ff     ................
  4156e4:	ffff 00ff ffff 00ff ffff 00ff ffff 00ff     ................
  4156f4:	ffff 00ff ffff 00ff 5994 001c a5c5 0083     .........Y......
  415704:	ffff 00ff ffff 00ff ffff 00ff ffff 00ff     ................
  415714:	ffff 00ff ffff 00ff ffff 00ff ffff 00ff     ................
  415724:	ffff 00ff ffff 00ff ffff 00ff ffff 00ff     ................
  415734:	ffff 00ff ffff 00ff ffff 00ff ffff 00ff     ................
  415744:	ffff 00ff ffff 00ff ffff 00ff ffff 00ff     ................
  415754:	ffff 00ff c2d7 00ac 4587 0000 4587 0000     .........E...E..
  415764:	4587 0000 4587 0000 4587 0000 4587 0000     .E...E...E...E..
  415774:	4587 0000 a2c2 007f ffff 00ff ffff 00ff     .E..............
  415784:	ffff 00ff ffff 00ff 97bc 0070 4587 0000     ..........p..E..
  415794:	4587 0000 4587 0000 4587 0000 4587 0000     .E...E...E...E..
  4157a4:	4587 0000 4587 0000 4587 0000 4587 0000     .E...E...E...E..
  4157b4:	4587 0000 4587 0000 a8c7 0088 ffff 00ff     .E...E..........
  4157c4:	ffff 00ff ffff 00ff ffff 00ff 8bb5 0062     ..............b.
  4157d4:	4587 0000 4587 0000 4587 0000 4587 0000     .E...E...E...E..
  4157e4:	4587 0000 4587 0000 4587 0000 d3e3 00c3     .E...E...E......
  4157f4:	ffff 00ff ffff 00ff ffff 00ff ffff 00ff     ................
  415804:	7ead 0050 4587 0000 4587 0000 4587 0000     .~P..E...E...E..
  415814:	4587 0000 4587 0000 4587 0000 4587 0000     .E...E...E...E..
  415824:	4587 0000 4587 0000 4587 0000 4587 0000     .E...E...E...E..
  415834:	4587 0000 4587 0000 4587 0000 4587 0000     .E...E...E...E..
  415844:	4587 0000 4587 0000 4587 0000 4587 0000     .E...E...E...E..
  415854:	4587 0000 4587 0000 4587 0000 4587 0000     .E...E...E...E..
  415864:	4587 0000 4587 0000 b7d0 009c ffff 00ff     .E...E..........
  415874:	ffff 00ff ffff 00ff ffff 00ff cddf 00bb     ................
  415884:	4587 0000 4587 0000 4587 0000 4587 0000     .E...E...E...E..
  415894:	4587 0000 4587 0000 4587 0000 4587 0000     .E...E...E...E..
  4158a4:	82ae 0053 f0f5 00ec ffff 00ff ffff 00ff     ..S.............
  4158b4:	ffff 00ff ffff 00ff ffff 00ff ffff 00ff     ................
  4158c4:	d0e0 00bf 4d8d 000d 4587 0000 4587 0000     .....M...E...E..
  4158d4:	4587 0000 4587 0000 4587 0000 4587 0000     .E...E...E...E..
  4158e4:	4587 0000 88b2 005d ffff 00ff ffff 00ff     .E....].........
  4158f4:	ffff 00ff ffff 00ff f7f9 00f4 4a8a 0008     .............J..
  415904:	4587 0000 4587 0000 4587 0000 4587 0000     .E...E...E...E..
  415914:	4587 0000 4587 0000 4587 0000 4587 0000     .E...E...E...E..
  415924:	4587 0000 4587 0000 4587 0000 4587 0000     .E...E...E...E..
  415934:	4587 0000 4587 0000 4587 0000 4587 0000     .E...E...E...E..
  415944:	4587 0000 4587 0000 4587 0000 4587 0000     .E...E...E...E..
  415954:	4587 0000 4587 0000 4587 0000 4587 0000     .E...E...E...E..
  415964:	4788 0003 f0f5 00eb ffff 00ff ffff 00ff     .G..............
  415974:	4587 0000 93b9 006c ffff 00ff ffff 00ff     .E....l.........
  415984:	ffff 00ff ffff 00ff ffff 00ff ffff 00ff     ................
  415994:	ffff 00ff ffff 00ff ffff 00ff ffff 00ff     ................
  4159a4:	dde9 00d0 4587 0000 7ead 0050 ffff 00ff     .....E...~P.....
  4159b4:	ffff 00ff ffff 00ff ffff 00ff ffff 00ff     ................
  4159c4:	ffff 00ff ffff 00ff ffff 00ff ffff 00ff     ................
  4159d4:	ffff 00ff ffff 00ff ffff 00ff ffff 00ff     ................
  4159e4:	ffff 00ff ffff 00ff ffff 00ff ffff 00ff     ................
  4159f4:	ffff 00ff ffff 00ff ffff 00ff ffff 00ff     ................
  415a04:	ffff 00ff ffff 00ff ffff 00ff ffff 00ff     ................
  415a14:	ffff 00ff ffff 00ff ffff 00ff ffff 00ff     ................
  415a24:	ffff 00ff ffff 00ff ffff 00ff ffff 00ff     ................
  415a34:	ffff 00ff ffff 00ff ffff 00ff ffff 00ff     ................
  415a44:	ffff 00ff ffff 00ff ffff 00ff ffff 00ff     ................
  415a54:	ffff 00ff ffff 00ff ffff 00ff ffff 00ff     ................
  415a64:	ffff 00ff ffff 00ff ffff 00ff ffff 00ff     ................
  415a74:	ffff 00ff ffff 00ff ffff 00ff ffff 00ff     ................
  415a84:	d4e3 00c6 4587 0000 83af 0055 ffff 00ff     .....E....U.....
  415a94:	ffff 00ff ffff 00ff ffff 00ff ffff 00ff     ................
  415aa4:	ffff 00ff ffff 00ff ffff 00ff ffff 00ff     ................
  415ab4:	ffff 00ff e9f1 00e1 4587 0000 a5c5 0083     .........E......
  415ac4:	ffff 00ff ffff 00ff ffff 00ff ffff 00ff     ................
  415ad4:	ffff 00ff ffff 00ff ffff 00ff ffff 00ff     ................
  415ae4:	ffff 00ff ffff 00ff ffff 00ff ffff 00ff     ................
  415af4:	ffff 00ff ffff 00ff ffff 00ff ffff 00ff     ................
  415b04:	ffff 00ff ffff 00ff ffff 00ff ffff 00ff     ................
  415b14:	ffff 00ff c2d7 00ac 4587 0000 4587 0000     .........E...E..
  415b24:	4587 0000 4587 0000 4587 0000 4587 0000     .E...E...E...E..
  415b34:	4587 0000 9bbf 0076 ffff 00ff ffff 00ff     .E....v.........
  415b44:	ffff 00ff ffff 00ff d4e3 00c5 4587 0000     .............E..
  415b54:	4587 0000 4587 0000 4587 0000 4587 0000     .E...E...E...E..
  415b64:	4587 0000 4587 0000 4587 0000 4587 0000     .E...E...E...E..
  415b74:	4587 0000 4587 0000 e5ee 00db ffff 00ff     .E...E..........
  415b84:	ffff 00ff ffff 00ff ffff 00ff 85af 0058     ..............X.
  415b94:	4587 0000 4587 0000 4587 0000 4587 0000     .E...E...E...E..
  415ba4:	4587 0000 4587 0000 4587 0000 d3e3 00c3     .E...E...E......
  415bb4:	ffff 00ff ffff 00ff ffff 00ff fafc 00f8     ................
  415bc4:	4d8d 000d 4587 0000 4587 0000 4587 0000     .M...E...E...E..
  415bd4:	4587 0000 4587 0000 4587 0000 4587 0000     .E...E...E...E..
  415be4:	4587 0000 4587 0000 4587 0000 4587 0000     .E...E...E...E..
  415bf4:	4587 0000 4587 0000 4587 0000 4587 0000     .E...E...E...E..
  415c04:	4587 0000 4587 0000 4587 0000 4587 0000     .E...E...E...E..
  415c14:	4587 0000 4587 0000 4587 0000 4587 0000     .E...E...E...E..
  415c24:	4587 0000 4587 0000 7fac 004f ffff 00ff     .E...E....O.....
  415c34:	ffff 00ff ffff 00ff ffff 00ff e5ee 00dc     ................
  415c44:	4587 0000 4587 0000 4587 0000 4587 0000     .E...E...E...E..
  415c54:	4587 0000 4587 0000 4587 0000 4587 0000     .E...E...E...E..
  415c64:	4587 0000 4788 0004 639a 002a 70a3 003c     .E...G...c*..p<.
  415c74:	77a7 0044 77a7 0044 6a9f 0033 5a95 001e     .wD..wD..j3..Z..
  415c84:	4587 0000 4587 0000 4587 0000 4587 0000     .E...E...E...E..
  415c94:	4587 0000 4587 0000 4587 0000 4587 0000     .E...E...E...E..
  415ca4:	4587 0000 acc9 008f ffff 00ff ffff 00ff     .E..............
  415cb4:	ffff 00ff ffff 00ff c3d8 00ae 4587 0000     .............E..
  415cc4:	4587 0000 4587 0000 4587 0000 4587 0000     .E...E...E...E..
  415cd4:	4587 0000 4587 0000 4587 0000 4587 0000     .E...E...E...E..
  415ce4:	4587 0000 4587 0000 4587 0000 4587 0000     .E...E...E...E..
  415cf4:	4587 0000 4587 0000 4587 0000 4587 0000     .E...E...E...E..
  415d04:	4587 0000 4587 0000 4587 0000 4587 0000     .E...E...E...E..
  415d14:	4587 0000 4587 0000 4587 0000 4587 0000     .E...E...E...E..
  415d24:	4587 0000 bbd2 00a2 ffff 00ff ffff 00ff     .E..............
  415d34:	4587 0000 639a 002a ffff 00ff ffff 00ff     .E...c*.........
  415d44:	ffff 00ff ffff 00ff ffff 00ff ffff 00ff     ................
  415d54:	ffff 00ff ffff 00ff ffff 00ff ffff 00ff     ................
  415d64:	dde9 00d0 4587 0000 4889 0005 f0f5 00ea     .....E...H......
  415d74:	ffff 00ff ffff 00ff ffff 00ff ffff 00ff     ................
  415d84:	ffff 00ff ffff 00ff ffff 00ff ffff 00ff     ................
  415d94:	ffff 00ff ffff 00ff ffff 00ff ffff 00ff     ................
  415da4:	ffff 00ff ffff 00ff ffff 00ff ffff 00ff     ................
  415db4:	ffff 00ff ffff 00ff ffff 00ff ffff 00ff     ................
  415dc4:	ffff 00ff ffff 00ff ffff 00ff ffff 00ff     ................
  415dd4:	ffff 00ff ffff 00ff ffff 00ff ffff 00ff     ................
  415de4:	ffff 00ff ffff 00ff ffff 00ff ffff 00ff     ................
  415df4:	ffff 00ff ffff 00ff ffff 00ff ffff 00ff     ................
  415e04:	ffff 00ff ffff 00ff ffff 00ff ffff 00ff     ................
  415e14:	ffff 00ff ffff 00ff ffff 00ff ffff 00ff     ................
  415e24:	ffff 00ff ffff 00ff ffff 00ff ffff 00ff     ................
  415e34:	ffff 00ff ffff 00ff ffff 00ff ffff 00ff     ................
  415e44:	92b7 0069 4587 0000 83af 0055 ffff 00ff     ..i..E....U.....
  415e54:	ffff 00ff ffff 00ff ffff 00ff ffff 00ff     ................
  415e64:	ffff 00ff ffff 00ff ffff 00ff ffff 00ff     ................
  415e74:	ffff 00ff b7d0 009d 4587 0000 a5c5 0083     .........E......
  415e84:	ffff 00ff ffff 00ff ffff 00ff ffff 00ff     ................
  415e94:	ffff 00ff ffff 00ff ffff 00ff ffff 00ff     ................
  415ea4:	ffff 00ff ffff 00ff ffff 00ff ffff 00ff     ................
  415eb4:	ffff 00ff ffff 00ff ffff 00ff ffff 00ff     ................
  415ec4:	ffff 00ff ffff 00ff ffff 00ff ffff 00ff     ................
  415ed4:	ffff 00ff c2d7 00ac 4587 0000 4587 0000     .........E...E..
  415ee4:	4587 0000 4587 0000 4587 0000 4587 0000     .E...E...E...E..
  415ef4:	4587 0000 95b9 006d ffff 00ff ffff 00ff     .E....m.........
  415f04:	ffff 00ff ffff 00ff feff 00fe 5b95 001f     .............[..
  415f14:	4587 0000 4587 0000 4587 0000 4587 0000     .E...E...E...E..
  415f24:	4587 0000 4587 0000 4587 0000 4587 0000     .E...E...E...E..
  415f34:	4587 0000 689f 0032 ffff 00ff ffff 00ff     .E...h2.........
  415f44:	ffff 00ff ffff 00ff ffff 00ff 7fac 004f     ..............O.
  415f54:	4587 0000 4587 0000 4587 0000 4587 0000     .E...E...E...E..
  415f64:	4587 0000 4587 0000 4587 0000 d3e3 00c3     .E...E...E......
  415f74:	ffff 00ff ffff 00ff ffff 00ff cadc 00b6     ................
  415f84:	4587 0000 4587 0000 4587 0000 4587 0000     .E...E...E...E..
  415f94:	4587 0000 4587 0000 4587 0000 4687 0002     .E...E...E...F..
  415fa4:	5d97 0022 5d97 0022 5d97 0022 5d97 0022     .]"..]"..]"..]".
  415fb4:	5d97 0022 5d97 0022 5d97 0022 5d97 0022     .]"..]"..]"..]".
  415fc4:	5d97 0022 5d97 0022 5a95 001e 4587 0000     .]"..]"..Z...E..
  415fd4:	4587 0000 4587 0000 4587 0000 4587 0000     .E...E...E...E..
  415fe4:	4587 0000 4587 0000 4c8b 000a f8fa 00f5     .E...E...L......
  415ff4:	ffff 00ff ffff 00ff ffff 00ff fdfe 00fc     ................
  416004:	4c8b 000a 4587 0000 4587 0000 4587 0000     .L...E...E...E..
  416014:	4587 0000 4587 0000 4587 0000 4587 0000     .E...E...E...E..
  416024:	4587 0000 4587 0000 4587 0000 4587 0000     .E...E...E...E..
  416034:	4587 0000 4587 0000 4587 0000 4587 0000     .E...E...E...E..
  416044:	4587 0000 4587 0000 4587 0000 4587 0000     .E...E...E...E..
  416054:	4587 0000 4587 0000 4587 0000 4587 0000     .E...E...E...E..
  416064:	4587 0000 dbe7 00ce ffff 00ff ffff 00ff     .E..............
  416074:	ffff 00ff ffff 00ff 8bb5 0062 4587 0000     ..........b..E..
  416084:	4587 0000 4587 0000 4587 0000 4587 0000     .E...E...E...E..
  416094:	4587 0000 4587 0000 4d8d 000d 5d97 0022     .E...E...M...]".
  4160a4:	5d97 0022 5d97 0022 5d97 0022 5d97 0022     .]"..]"..]"..]".
  4160b4:	5d97 0022 5d97 0022 5d97 0022 5d97 0022     .]"..]"..]"..]".
  4160c4:	5d97 0022 528f 0013 4587 0000 4587 0000     .]"..R...E...E..
  4160d4:	4587 0000 4587 0000 4587 0000 4587 0000     .E...E...E...E..
  4160e4:	4587 0000 82af 0054 ffff 00ff ffff 00ff     .E....T.........
  4160f4:	4587 0000 4587 0000 ecf2 00e5 ffff 00ff     .E...E..........
  416104:	ffff 00ff ffff 00ff ffff 00ff ffff 00ff     ................
  416114:	ffff 00ff ffff 00ff ffff 00ff ffff 00ff     ................
  416124:	dde9 00d0 4587 0000 4587 0000 adc9 008e     .....E...E......
  416134:	ffff 00ff ffff 00ff ffff 00ff ffff 00ff     ................
  416144:	ffff 00ff ffff 00ff ffff 00ff ffff 00ff     ................
  416154:	ffff 00ff ffff 00ff ffff 00ff ffff 00ff     ................
  416164:	ffff 00ff ffff 00ff ffff 00ff ffff 00ff     ................
  416174:	ffff 00ff ffff 00ff ffff 00ff ffff 00ff     ................
  416184:	ffff 00ff ffff 00ff ffff 00ff ffff 00ff     ................
  416194:	ffff 00ff ffff 00ff ffff 00ff ffff 00ff     ................
  4161a4:	ffff 00ff ffff 00ff ffff 00ff ffff 00ff     ................
  4161b4:	ffff 00ff ffff 00ff ffff 00ff ffff 00ff     ................
  4161c4:	ffff 00ff ffff 00ff ffff 00ff ffff 00ff     ................
  4161d4:	ffff 00ff ffff 00ff ffff 00ff ffff 00ff     ................
  4161e4:	ffff 00ff ffff 00ff ffff 00ff ffff 00ff     ................
  4161f4:	ffff 00ff ffff 00ff ffff 00ff f8fa 00f5     ................
  416204:	528e 0012 4587 0000 83af 0055 ffff 00ff     .R...E....U.....
  416214:	ffff 00ff ffff 00ff ffff 00ff ffff 00ff     ................
  416224:	ffff 00ff ffff 00ff ffff 00ff ffff 00ff     ................
  416234:	ffff 00ff 86b1 005b 4587 0000 a5c5 0083     ......[..E......
  416244:	ffff 00ff ffff 00ff ffff 00ff ffff 00ff     ................
  416254:	ffff 00ff ffff 00ff ffff 00ff ffff 00ff     ................
  416264:	ffff 00ff ffff 00ff ffff 00ff ffff 00ff     ................
  416274:	ffff 00ff ffff 00ff ffff 00ff ffff 00ff     ................
  416284:	ffff 00ff ffff 00ff ffff 00ff ffff 00ff     ................
  416294:	ffff 00ff c2d7 00ac 4587 0000 4587 0000     .........E...E..
  4162a4:	4587 0000 4587 0000 4587 0000 4587 0000     .E...E...E...E..
  4162b4:	4587 0000 8db6 0064 ffff 00ff ffff 00ff     .E....d.........
  4162c4:	ffff 00ff ffff 00ff ffff 00ff 98bd 0072     ..............r.
  4162d4:	4587 0000 4587 0000 4587 0000 4587 0000     .E...E...E...E..
  4162e4:	4587 0000 4587 0000 4587 0000 4587 0000     .E...E...E...E..
  4162f4:	4587 0000 a7c7 0087 ffff 00ff ffff 00ff     .E..............
  416304:	ffff 00ff ffff 00ff ffff 00ff 78a7 0046     .............xF.
  416314:	4587 0000 4587 0000 4587 0000 4587 0000     .E...E...E...E..
  416324:	4587 0000 4587 0000 4587 0000 d3e3 00c3     .E...E...E......
  416334:	ffff 00ff ffff 00ff ffff 00ff 90b7 0068     ..............h.
  416344:	4587 0000 4587 0000 4587 0000 4587 0000     .E...E...E...E..
  416354:	4587 0000 4587 0000 4587 0000 6c9f 0036     .E...E...E...l6.
  416364:	ffff 00ff ffff 00ff ffff 00ff ffff 00ff     ................
  416374:	ffff 00ff ffff 00ff ffff 00ff ffff 00ff     ................
  416384:	ffff 00ff ffff 00ff fcfd 00fb 518f 0011     .............Q..
  416394:	4587 0000 4587 0000 4587 0000 4587 0000     .E...E...E...E..
  4163a4:	4587 0000 4587 0000 4587 0000 c6d9 00b1     .E...E...E......
  4163b4:	ffff 00ff ffff 00ff ffff 00ff ffff 00ff     ................
  4163c4:	85af 0058 4587 0000 4587 0000 4587 0000     ..X..E...E...E..
  4163d4:	4587 0000 4587 0000 4587 0000 4587 0000     .E...E...E...E..
  4163e4:	4587 0000 4587 0000 4587 0000 4587 0000     .E...E...E...E..
  4163f4:	4587 0000 4587 0000 4587 0000 4587 0000     .E...E...E...E..
  416404:	4587 0000 4587 0000 4587 0000 4587 0000     .E...E...E...E..
  416414:	4587 0000 4587 0000 4587 0000 4587 0000     .E...E...E...E..
  416424:	6a9f 0033 feff 00fe ffff 00ff ffff 00ff     .j3.............
  416434:	ffff 00ff fefe 00fd 5591 0017 4587 0000     .........U...E..
  416444:	4587 0000 4587 0000 4587 0000 4587 0000     .E...E...E...E..
  416454:	4587 0000 4587 0000 acc9 008f ffff 00ff     .E...E..........
  416464:	ffff 00ff ffff 00ff ffff 00ff ffff 00ff     ................
  416474:	ffff 00ff ffff 00ff ffff 00ff ffff 00ff     ................
  416484:	ffff 00ff c9dd 00b7 4587 0000 4587 0000     .........E...E..
  416494:	4587 0000 4587 0000 4587 0000 4587 0000     .E...E...E...E..
  4164a4:	4587 0000 4d8c 000c f9fb 00f7 ffff 00ff     .E...M..........
  4164b4:	4587 0000 4587 0000 bbd4 00a3 ffff 00ff     .E...E..........
  4164c4:	ffff 00ff ffff 00ff ffff 00ff ffff 00ff     ................
  4164d4:	ffff 00ff ffff 00ff ffff 00ff ffff 00ff     ................
  4164e4:	dde9 00d0 4587 0000 4587 0000 5994 001c     .....E...E...Y..
  4164f4:	fbfc 00f9 ffff 00ff ffff 00ff ffff 00ff     ................
  416504:	ffff 00ff ffff 00ff ffff 00ff ffff 00ff     ................
  416514:	ffff 00ff ffff 00ff ffff 00ff ffff 00ff     ................
  416524:	ffff 00ff ffff 00ff ffff 00ff ffff 00ff     ................
  416534:	ffff 00ff ffff 00ff ffff 00ff ffff 00ff     ................
  416544:	ffff 00ff ffff 00ff ffff 00ff ffff 00ff     ................
  416554:	ffff 00ff ffff 00ff ffff 00ff ffff 00ff     ................
  416564:	ffff 00ff ffff 00ff ffff 00ff ffff 00ff     ................
  416574:	ffff 00ff ffff 00ff ffff 00ff ffff 00ff     ................
  416584:	ffff 00ff ffff 00ff ffff 00ff ffff 00ff     ................
  416594:	ffff 00ff ffff 00ff ffff 00ff ffff 00ff     ................
  4165a4:	ffff 00ff ffff 00ff ffff 00ff ffff 00ff     ................
  4165b4:	ffff 00ff ffff 00ff ffff 00ff abc8 008d     ................
  4165c4:	4587 0000 4587 0000 83af 0055 ffff 00ff     .E...E....U.....
  4165d4:	ffff 00ff ffff 00ff ffff 00ff ffff 00ff     ................
  4165e4:	ffff 00ff ffff 00ff ffff 00ff ffff 00ff     ................
  4165f4:	fefe 00fd 5792 0019 4587 0000 a5c5 0083     .....W...E......
  416604:	ffff 00ff ffff 00ff ffff 00ff ffff 00ff     ................
  416614:	ffff 00ff ffff 00ff ffff 00ff ffff 00ff     ................
  416624:	ffff 00ff ffff 00ff ffff 00ff ffff 00ff     ................
  416634:	ffff 00ff ffff 00ff ffff 00ff ffff 00ff     ................
  416644:	ffff 00ff ffff 00ff ffff 00ff ffff 00ff     ................
  416654:	ffff 00ff c2d7 00ac 4587 0000 4587 0000     .........E...E..
  416664:	4587 0000 4587 0000 4587 0000 4587 0000     .E...E...E...E..
  416674:	4587 0000 86b1 005b ffff 00ff ffff 00ff     .E....[.........
  416684:	ffff 00ff ffff 00ff ffff 00ff d5e5 00c7     ................
  416694:	4587 0000 4587 0000 4587 0000 4587 0000     .E...E...E...E..
  4166a4:	4587 0000 4587 0000 4587 0000 4587 0000     .E...E...E...E..
  4166b4:	4587 0000 e5ee 00db ffff 00ff ffff 00ff     .E..............
  4166c4:	ffff 00ff ffff 00ff ffff 00ff 70a3 003d     .............p=.
  4166d4:	4587 0000 4587 0000 4587 0000 4587 0000     .E...E...E...E..
  4166e4:	4587 0000 4587 0000 4587 0000 d3e3 00c3     .E...E...E......
  4166f4:	ffff 00ff ffff 00ff feff 00fe 5994 001c     .............Y..
  416704:	4587 0000 4587 0000 4587 0000 4587 0000     .E...E...E...E..
  416714:	4587 0000 4587 0000 4587 0000 a2c2 007f     .E...E...E......
  416724:	ffff 00ff ffff 00ff ffff 00ff ffff 00ff     ................
  416734:	ffff 00ff ffff 00ff ffff 00ff ffff 00ff     ................
  416744:	ffff 00ff ffff 00ff ffff 00ff 87b0 005a     ..............Z.
  416754:	4587 0000 4587 0000 4587 0000 4587 0000     .E...E...E...E..
  416764:	4587 0000 4587 0000 4587 0000 8db6 0064     .E...E...E....d.
  416774:	ffff 00ff ffff 00ff ffff 00ff ffff 00ff     ................
  416784:	d2e2 00c1 4587 0001 4587 0000 4587 0000     .....E...E...E..
  416794:	4587 0000 4587 0000 4587 0000 4587 0000     .E...E...E...E..
  4167a4:	4587 0000 4587 0000 4587 0000 4587 0000     .E...E...E...E..
  4167b4:	4587 0000 4587 0000 4587 0000 4587 0000     .E...E...E...E..
  4167c4:	4587 0000 4587 0000 4587 0000 4587 0000     .E...E...E...E..
  4167d4:	4587 0000 4587 0000 4587 0000 4587 0001     .E...E...E...E..
  4167e4:	cddf 00bb ffff 00ff ffff 00ff ffff 00ff     ................
  4167f4:	ffff 00ff d4e3 00c6 4587 0000 4587 0000     .........E...E..
  416804:	4587 0000 4587 0000 4587 0000 4587 0000     .E...E...E...E..
  416814:	4587 0000 4587 0000 e2ec 00d9 ffff 00ff     .E...E..........
  416824:	ffff 00ff ffff 00ff ffff 00ff ffff 00ff     ................
  416834:	ffff 00ff ffff 00ff ffff 00ff ffff 00ff     ................
  416844:	ffff 00ff fafc 00f8 4f8d 000e 4587 0000     .........O...E..
  416854:	4587 0000 4587 0000 4587 0000 4587 0000     .E...E...E...E..
  416864:	4587 0000 4587 0000 c9dd 00b7 ffff 00ff     .E...E..........
  416874:	4587 0000 4587 0000 7aa9 004a ffff 00ff     .E...E...zJ.....
  416884:	ffff 00ff ffff 00ff ffff 00ff ffff 00ff     ................
  416894:	ffff 00ff ffff 00ff ffff 00ff ffff 00ff     ................
  4168a4:	dde9 00d0 4587 0000 4587 0000 4587 0000     .....E...E...E..
  4168b4:	b4cf 009a ffff 00ff ffff 00ff ffff 00ff     ................
  4168c4:	ffff 00ff ffff 00ff ffff 00ff ffff 00ff     ................
  4168d4:	ffff 00ff ffff 00ff ffff 00ff ffff 00ff     ................
  4168e4:	ffff 00ff ffff 00ff ffff 00ff ffff 00ff     ................
  4168f4:	ffff 00ff ffff 00ff ffff 00ff ffff 00ff     ................
  416904:	ffff 00ff ffff 00ff ffff 00ff ffff 00ff     ................
  416914:	ffff 00ff ffff 00ff ffff 00ff ffff 00ff     ................
  416924:	ffff 00ff ffff 00ff ffff 00ff ffff 00ff     ................
  416934:	ffff 00ff ffff 00ff ffff 00ff ffff 00ff     ................
  416944:	ffff 00ff ffff 00ff ffff 00ff ffff 00ff     ................
  416954:	ffff 00ff ffff 00ff ffff 00ff ffff 00ff     ................
  416964:	ffff 00ff ffff 00ff ffff 00ff ffff 00ff     ................
  416974:	ffff 00ff ffff 00ff f9fb 00f7 5793 001a     .............W..
  416984:	4587 0000 4587 0000 83af 0055 ffff 00ff     .E...E....U.....
  416994:	ffff 00ff ffff 00ff ffff 00ff ffff 00ff     ................
  4169a4:	ffff 00ff ffff 00ff ffff 00ff ffff 00ff     ................
  4169b4:	cfdf 00bd 4587 0000 4587 0000 a5c5 0083     .....E...E......
  4169c4:	ffff 00ff ffff 00ff ffff 00ff ffff 00ff     ................
  4169d4:	ffff 00ff ffff 00ff ffff 00ff ffff 00ff     ................
  4169e4:	ffff 00ff ffff 00ff ffff 00ff ffff 00ff     ................
  4169f4:	ffff 00ff ffff 00ff ffff 00ff ffff 00ff     ................
  416a04:	ffff 00ff ffff 00ff ffff 00ff ffff 00ff     ................
  416a14:	ffff 00ff c2d7 00ac 4587 0000 4587 0000     .........E...E..
  416a24:	4587 0000 4587 0000 4587 0000 4587 0000     .E...E...E...E..
  416a34:	4587 0000 80ae 0052 ffff 00ff ffff 00ff     .E....R.........
  416a44:	ffff 00ff ffff 00ff ffff 00ff feff 00fe     ................
  416a54:	5b95 001f 4587 0000 4587 0000 4587 0000     .[...E...E...E..
  416a64:	4587 0000 4587 0000 4587 0000 4587 0000     .E...E...E...E..
  416a74:	689f 0032 ffff 00ff ffff 00ff ffff 00ff     .h2.............
  416a84:	ffff 00ff ffff 00ff ffff 00ff 6a9e 0034     .............j4.
  416a94:	4587 0000 4587 0000 4587 0000 4587 0000     .E...E...E...E..
  416aa4:	4587 0000 4587 0000 4587 0000 d3e3 00c3     .E...E...E......
  416ab4:	ffff 00ff ffff 00ff dae7 00cd 4587 0000     .............E..
  416ac4:	4587 0000 4587 0000 4587 0000 4587 0000     .E...E...E...E..
  416ad4:	4587 0000 4587 0000 4587 0000 d8e6 00c9     .E...E...E......
  416ae4:	ffff 00ff ffff 00ff ffff 00ff ffff 00ff     ................
  416af4:	ffff 00ff ffff 00ff ffff 00ff ffff 00ff     ................
  416b04:	ffff 00ff ffff 00ff ffff 00ff bfd6 00a8     ................
  416b14:	4587 0000 4587 0000 4587 0000 4587 0000     .E...E...E...E..
  416b24:	4587 0000 4587 0000 4587 0000 5591 0016     .E...E...E...U..
  416b34:	fefe 00fd ffff 00ff ffff 00ff ffff 00ff     ................
  416b44:	ffff 00ff 9fc0 007b 4587 0000 4587 0000     ......{..E...E..
  416b54:	4587 0000 4587 0000 4587 0000 4587 0000     .E...E...E...E..
  416b64:	4587 0000 4587 0000 4587 0000 4587 0000     .E...E...E...E..
  416b74:	4587 0000 4587 0000 4587 0000 4587 0000     .E...E...E...E..
  416b84:	4587 0000 4587 0000 4587 0000 4587 0000     .E...E...E...E..
  416b94:	4587 0000 4587 0000 4587 0001 afcc 0093     .E...E...E......
  416ba4:	ffff 00ff ffff 00ff ffff 00ff ffff 00ff     ................
  416bb4:	ffff 00ff 9dbf 0079 4587 0000 4587 0000     ......y..E...E..
  416bc4:	4587 0000 4587 0000 4587 0000 4587 0000     .E...E...E...E..
  416bd4:	4587 0000 5d97 0021 ffff 00ff ffff 00ff     .E...]!.........
  416be4:	ffff 00ff ffff 00ff ffff 00ff ffff 00ff     ................
  416bf4:	ffff 00ff ffff 00ff ffff 00ff ffff 00ff     ................
  416c04:	ffff 00ff ffff 00ff 83af 0055 4587 0000     ..........U..E..
  416c14:	4587 0000 4587 0000 4587 0000 4587 0000     .E...E...E...E..
  416c24:	4587 0000 4587 0000 92b7 0069 ffff 00ff     .E...E....i.....
  416c34:	4587 0000 4587 0000 4788 0004 ecf3 00e6     .E...E...G......
  416c44:	ffff 00ff ffff 00ff ffff 00ff ffff 00ff     ................
  416c54:	ffff 00ff ffff 00ff ffff 00ff ffff 00ff     ................
  416c64:	dde9 00d0 4587 0000 4587 0000 4587 0000     .....E...E...E..
  416c74:	5792 0019 f4f8 00f0 ffff 00ff ffff 00ff     .W..............
  416c84:	ffff 00ff ffff 00ff ffff 00ff ffff 00ff     ................
  416c94:	ffff 00ff ffff 00ff ffff 00ff ffff 00ff     ................
  416ca4:	ffff 00ff ffff 00ff ffff 00ff ffff 00ff     ................
  416cb4:	ffff 00ff ffff 00ff ffff 00ff ffff 00ff     ................
  416cc4:	ffff 00ff ffff 00ff ffff 00ff ffff 00ff     ................
  416cd4:	ffff 00ff ffff 00ff ffff 00ff ffff 00ff     ................
  416ce4:	ffff 00ff ffff 00ff ffff 00ff ffff 00ff     ................
  416cf4:	ffff 00ff ffff 00ff ffff 00ff ffff 00ff     ................
  416d04:	ffff 00ff ffff 00ff ffff 00ff ffff 00ff     ................
  416d14:	ffff 00ff ffff 00ff ffff 00ff ffff 00ff     ................
  416d24:	ffff 00ff ffff 00ff ffff 00ff ffff 00ff     ................
  416d34:	ffff 00ff ffff 00ff a5c5 0083 4587 0000     .............E..
  416d44:	4587 0000 4587 0000 83af 0055 ffff 00ff     .E...E....U.....
  416d54:	ffff 00ff ffff 00ff ffff 00ff ffff 00ff     ................
  416d64:	ffff 00ff ffff 00ff ffff 00ff ffff 00ff     ................
  416d74:	8ab3 005f 4587 0000 4587 0000 a5c5 0083     .._..E...E......
  416d84:	ffff 00ff ffff 00ff ffff 00ff ffff 00ff     ................
  416d94:	ffff 00ff ffff 00ff ffff 00ff ffff 00ff     ................
  416da4:	ffff 00ff ffff 00ff ffff 00ff ffff 00ff     ................
  416db4:	ffff 00ff ffff 00ff ffff 00ff ffff 00ff     ................
  416dc4:	ffff 00ff ffff 00ff ffff 00ff ffff 00ff     ................
  416dd4:	ffff 00ff c2d7 00ac 4587 0000 4587 0000     .........E...E..
  416de4:	4587 0000 4587 0000 4587 0000 4587 0000     .E...E...E...E..
  416df4:	4587 0000 7aa9 0049 ffff 00ff ffff 00ff     .E...zI.........
  416e04:	ffff 00ff ffff 00ff ffff 00ff ffff 00ff     ................
  416e14:	98bd 0073 4587 0000 4587 0000 4587 0000     ..s..E...E...E..
  416e24:	4587 0000 4587 0000 4587 0000 4587 0000     .E...E...E...E..
  416e34:	a7c7 0087 ffff 00ff ffff 00ff ffff 00ff     ................
  416e44:	ffff 00ff ffff 00ff ffff 00ff 649b 002b     .............d+.
  416e54:	4587 0000 4587 0000 4587 0000 4587 0000     .E...E...E...E..
  416e64:	4587 0000 4587 0000 4587 0000 d3e3 00c3     .E...E...E......
  416e74:	ffff 00ff ffff 00ff a1c3 0080 4587 0000     .............E..
  416e84:	4587 0000 4587 0000 4587 0000 4587 0000     .E...E...E...E..
  416e94:	4587 0000 4587 0000 5390 0014 fefe 00fd     .E...E...S......
  416ea4:	ffff 00ff ffff 00ff ffff 00ff ffff 00ff     ................
  416eb4:	ffff 00ff ffff 00ff ffff 00ff ffff 00ff     ................
  416ec4:	ffff 00ff ffff 00ff ffff 00ff f5f8 00f1     ................
  416ed4:	4989 0006 4587 0000 4587 0000 4587 0000     .I...E...E...E..
  416ee4:	4587 0000 4587 0000 4587 0000 4587 0000     .E...E...E...E..
  416ef4:	d4e3 00c6 ffff 00ff ffff 00ff ffff 00ff     ................
  416f04:	ffff 00ff ffff 00ff bad3 00a1 5792 0019     .............W..
  416f14:	4587 0000 4587 0000 4587 0000 4587 0000     .E...E...E...E..
  416f24:	4587 0000 4587 0000 4587 0000 4587 0000     .E...E...E...E..
  416f34:	4587 0000 4587 0000 4587 0000 4587 0000     .E...E...E...E..
  416f44:	4587 0000 4587 0000 4587 0000 4587 0000     .E...E...E...E..
  416f54:	4587 0000 5f98 0025 c6d9 00b1 ffff 00ff     .E..._%.........
  416f64:	ffff 00ff ffff 00ff ffff 00ff ffff 00ff     ................
  416f74:	ffff 00ff 659b 002c 4587 0000 4587 0000     .....e,..E...E..
  416f84:	4587 0000 4587 0000 4587 0000 4587 0000     .E...E...E...E..
  416f94:	4587 0000 95b9 006d ffff 00ff ffff 00ff     .E....m.........
  416fa4:	ffff 00ff ffff 00ff ffff 00ff ffff 00ff     ................
  416fb4:	ffff 00ff ffff 00ff ffff 00ff ffff 00ff     ................
  416fc4:	ffff 00ff ffff 00ff bbd4 00a3 4587 0000     .............E..
  416fd4:	4587 0000 4587 0000 4587 0000 4587 0000     .E...E...E...E..
  416fe4:	4587 0000 4587 0000 5793 001a feff 00fe     .E...E...W......
  416ff4:	4587 0000 4587 0000 4587 0000 abc8 008c     .E...E...E......
  417004:	ffff 00ff ffff 00ff ffff 00ff ffff 00ff     ................
  417014:	ffff 00ff ffff 00ff ffff 00ff ffff 00ff     ................
  417024:	dde9 00d0 4587 0000 4587 0000 4587 0000     .....E...E...E..
  417034:	4587 0000 96bc 0071 ffff 00ff ffff 00ff     .E....q.........
  417044:	ffff 00ff ffff 00ff ffff 00ff ffff 00ff     ................
  417054:	ffff 00ff ffff 00ff ffff 00ff ffff 00ff     ................
  417064:	ffff 00ff ffff 00ff ffff 00ff ffff 00ff     ................
  417074:	ffff 00ff ffff 00ff ffff 00ff ffff 00ff     ................
  417084:	ffff 00ff ffff 00ff ffff 00ff ffff 00ff     ................
  417094:	ffff 00ff ffff 00ff ffff 00ff ffff 00ff     ................
  4170a4:	ffff 00ff ffff 00ff ffff 00ff ffff 00ff     ................
  4170b4:	ffff 00ff ffff 00ff ffff 00ff ffff 00ff     ................
  4170c4:	ffff 00ff ffff 00ff ffff 00ff ffff 00ff     ................
  4170d4:	ffff 00ff ffff 00ff ffff 00ff ffff 00ff     ................
  4170e4:	ffff 00ff ffff 00ff ffff 00ff ffff 00ff     ................
  4170f4:	ffff 00ff e8f0 00e0 4d8c 000b 4587 0000     .........M...E..
  417104:	4587 0000 4587 0000 83af 0055 ffff 00ff     .E...E....U.....
  417114:	ffff 00ff ffff 00ff ffff 00ff ffff 00ff     ................
  417124:	ffff 00ff ffff 00ff ffff 00ff f7f9 00f4     ................
  417134:	4d8d 000d 4587 0000 4587 0000 a5c5 0083     .M...E...E......
  417144:	ffff 00ff ffff 00ff ffff 00ff ffff 00ff     ................
  417154:	ffff 00ff ffff 00ff ffff 00ff ffff 00ff     ................
  417164:	ffff 00ff ffff 00ff ffff 00ff ffff 00ff     ................
  417174:	ffff 00ff ffff 00ff ffff 00ff ffff 00ff     ................
  417184:	ffff 00ff ffff 00ff ffff 00ff ffff 00ff     ................
  417194:	ffff 00ff c2d7 00ac 4587 0000 4587 0000     .........E...E..
  4171a4:	4587 0000 4587 0000 4587 0000 4587 0000     .E...E...E...E..
  4171b4:	4587 0000 73a5 0040 ffff 00ff ffff 00ff     .E...s@.........
  4171c4:	ffff 00ff ffff 00ff ffff 00ff ffff 00ff     ................
  4171d4:	d7e4 00c8 4587 0000 4587 0000 4587 0000     .....E...E...E..
  4171e4:	4587 0000 4587 0000 4587 0000 4587 0000     .E...E...E...E..
  4171f4:	e5ee 00db ffff 00ff ffff 00ff ffff 00ff     ................
  417204:	ffff 00ff ffff 00ff ffff 00ff 5d97 0022     .............]".
  417214:	4587 0000 4587 0000 4587 0000 4587 0000     .E...E...E...E..
  417224:	4587 0000 4587 0000 4587 0000 d3e3 00c3     .E...E...E......
  417234:	ffff 00ff ffff 00ff 6a9f 0033 4587 0000     .........j3..E..
  417244:	4587 0000 4587 0000 4587 0000 4587 0000     .E...E...E...E..
  417254:	4587 0000 4587 0000 88b2 005d ffff 00ff     .E...E....].....
  417264:	ffff 00ff ffff 00ff ffff 00ff ffff 00ff     ................
  417274:	ffff 00ff ffff 00ff ffff 00ff ffff 00ff     ................
  417284:	ffff 00ff ffff 00ff ffff 00ff ffff 00ff     ................
  417294:	78a7 0046 4587 0000 4587 0000 4587 0000     .xF..E...E...E..
  4172a4:	4587 0000 4587 0000 4587 0000 4587 0000     .E...E...E...E..
  4172b4:	9dbf 0079 ffff 00ff ffff 00ff ffff 00ff     ..y.............
  4172c4:	ffff 00ff ffff 00ff ffff 00ff fcfd 00fb     ................
  4172d4:	cddf 00bb 92b7 0069 6a9e 0034 518f 0011     ......i..j4..Q..
  4172e4:	4587 0000 4587 0000 4587 0000 4587 0000     .E...E...E...E..
  4172f4:	4587 0000 4587 0000 4587 0000 4587 0000     .E...E...E...E..
  417304:	4587 0000 4788 0004 5f96 0023 8db6 0063     .E...G..._#...c.
  417314:	c5da 00b0 fbfc 00f9 ffff 00ff ffff 00ff     ................
  417324:	ffff 00ff ffff 00ff ffff 00ff ffff 00ff     ................
  417334:	e8f0 00e0 4587 0000 4587 0000 4587 0000     .....E...E...E..
  417344:	4587 0000 4587 0000 4587 0000 4587 0000     .E...E...E...E..
  417354:	4587 0000 cadc 00b6 ffff 00ff ffff 00ff     .E..............
  417364:	ffff 00ff ffff 00ff ffff 00ff ffff 00ff     ................
  417374:	ffff 00ff ffff 00ff ffff 00ff ffff 00ff     ................
  417384:	ffff 00ff ffff 00ff f2f7 00ed 4788 0004     .............G..
  417394:	4587 0000 4587 0000 4587 0000 4587 0000     .E...E...E...E..
  4173a4:	4587 0000 4587 0000 4587 0000 dae7 00cc     .E...E...E......
  4173b4:	4587 0000 4587 0000 4587 0000 629a 0029     .E...E...E...b).
  4173c4:	fefe 00fd ffff 00ff ffff 00ff ffff 00ff     ................
  4173d4:	ffff 00ff ffff 00ff ffff 00ff ffff 00ff     ................
  4173e4:	dde9 00d0 4587 0000 4587 0000 4587 0000     .....E...E...E..
  4173f4:	4587 0000 4788 0004 d7e4 00c8 ffff 00ff     .E...G..........
  417404:	ffff 00ff ffff 00ff ffff 00ff ffff 00ff     ................
  417414:	ffff 00ff ffff 00ff ffff 00ff ffff 00ff     ................
  417424:	ffff 00ff ffff 00ff ffff 00ff ffff 00ff     ................
  417434:	ffff 00ff ffff 00ff ffff 00ff ffff 00ff     ................
  417444:	ffff 00ff ffff 00ff ffff 00ff ffff 00ff     ................
  417454:	ffff 00ff ffff 00ff ffff 00ff ffff 00ff     ................
  417464:	ffff 00ff ffff 00ff ffff 00ff ffff 00ff     ................
  417474:	ffff 00ff ffff 00ff ffff 00ff ffff 00ff     ................
  417484:	ffff 00ff ffff 00ff ffff 00ff ffff 00ff     ................
  417494:	ffff 00ff ffff 00ff ffff 00ff ffff 00ff     ................
  4174a4:	ffff 00ff ffff 00ff ffff 00ff ffff 00ff     ................
  4174b4:	fefe 00fd 77a7 0044 4587 0000 4587 0000     .....wD..E...E..
  4174c4:	4587 0000 4587 0000 83af 0055 ffff 00ff     .E...E....U.....
  4174d4:	ffff 00ff ffff 00ff ffff 00ff ffff 00ff     ................
  4174e4:	ffff 00ff ffff 00ff ffff 00ff b7d0 009d     ................
  4174f4:	4587 0000 4587 0000 4587 0000 a5c5 0083     .E...E...E......
  417504:	ffff 00ff ffff 00ff ffff 00ff ffff 00ff     ................
  417514:	ffff 00ff ffff 00ff ffff 00ff ffff 00ff     ................
  417524:	ffff 00ff ffff 00ff ffff 00ff ffff 00ff     ................
  417534:	ffff 00ff ffff 00ff ffff 00ff ffff 00ff     ................
  417544:	ffff 00ff ffff 00ff ffff 00ff ffff 00ff     ................
  417554:	ffff 00ff fbfc 00f9 f3f7 00ee f3f7 00ee     ................
  417564:	f3f7 00ee f3f7 00ee f3f7 00ee f3f7 00ee     ................
  417574:	f3f7 00ee f5f8 00f2 ffff 00ff ffff 00ff     ................
  417584:	ffff 00ff ffff 00ff ffff 00ff ffff 00ff     ................
  417594:	feff 00fe f3f7 00ee f3f7 00ee f3f7 00ee     ................
  4175a4:	f3f7 00ee f3f7 00ee f3f7 00ee f3f7 00ef     ................
  4175b4:	ffff 00ff ffff 00ff ffff 00ff ffff 00ff     ................
  4175c4:	ffff 00ff ffff 00ff ffff 00ff f4f8 00f0     ................
  4175d4:	f3f7 00ee f3f7 00ee f3f7 00ee f3f7 00ee     ................
  4175e4:	f3f7 00ee f3f7 00ee f3f7 00ee fcfd 00fb     ................
  4175f4:	ffff 00ff ffff 00ff f3f7 00ef f3f7 00ee     ................
  417604:	f3f7 00ee f3f7 00ee f3f7 00ee f3f7 00ee     ................
  417614:	f3f7 00ee f3f7 00ee f9fb 00f7 ffff 00ff     ................
  417624:	ffff 00ff ffff 00ff ffff 00ff ffff 00ff     ................
  417634:	ffff 00ff ffff 00ff ffff 00ff ffff 00ff     ................
  417644:	ffff 00ff ffff 00ff ffff 00ff ffff 00ff     ................
  417654:	f8fa 00f5 f3f7 00ee f3f7 00ee f3f7 00ee     ................
  417664:	f3f7 00ee f3f7 00ee f3f7 00ee f3f7 00ee     ................
  417674:	f6f9 00f3 ffff 00ff ffff 00ff ffff 00ff     ................
  417684:	ffff 00ff ffff 00ff ffff 00ff ffff 00ff     ................
  417694:	ffff 00ff ffff 00ff ffff 00ff ffff 00ff     ................
  4176a4:	f0f5 00ec dfea 00d4 dae7 00cc d1e1 00c0     ................
  4176b4:	cddf 00bb ccdf 00ba cfdf 00bd dae7 00cc     ................
  4176c4:	e5ee 00db fbfd 00fa ffff 00ff ffff 00ff     ................
  4176d4:	ffff 00ff ffff 00ff ffff 00ff ffff 00ff     ................
  4176e4:	ffff 00ff ffff 00ff ffff 00ff ffff 00ff     ................
  4176f4:	fbfd 00fa f3f7 00ee f3f7 00ee f3f7 00ee     ................
  417704:	f3f7 00ee f3f7 00ee f3f7 00ee f3f7 00ee     ................
  417714:	f3f7 00ee fefe 00fd ffff 00ff ffff 00ff     ................
  417724:	ffff 00ff ffff 00ff ffff 00ff ffff 00ff     ................
  417734:	ffff 00ff ffff 00ff ffff 00ff ffff 00ff     ................
  417744:	ffff 00ff ffff 00ff ffff 00ff f4f8 00f0     ................
  417754:	f3f7 00ee f3f7 00ee f3f7 00ee f3f7 00ee     ................
  417764:	f3f7 00ee f3f7 00ee f3f7 00ee fbfc 00f9     ................
  417774:	4587 0000 4587 0000 4587 0000 4587 0000     .E...E...E...E..
  417784:	c3d8 00ae ffff 00ff ffff 00ff ffff 00ff     ................
  417794:	ffff 00ff ffff 00ff ffff 00ff ffff 00ff     ................
  4177a4:	dde9 00d0 4587 0000 4587 0000 4587 0000     .....E...E...E..
  4177b4:	4587 0000 4587 0000 5a94 001d f0f5 00ec     .E...E...Z......
  4177c4:	ffff 00ff ffff 00ff ffff 00ff ffff 00ff     ................
  4177d4:	ffff 00ff ffff 00ff ffff 00ff ffff 00ff     ................
  4177e4:	ffff 00ff ffff 00ff ffff 00ff ffff 00ff     ................
  4177f4:	ffff 00ff ffff 00ff ffff 00ff ffff 00ff     ................
  417804:	ffff 00ff ffff 00ff ffff 00ff ffff 00ff     ................
  417814:	ffff 00ff ffff 00ff ffff 00ff ffff 00ff     ................
  417824:	ffff 00ff ffff 00ff ffff 00ff ffff 00ff     ................
  417834:	ffff 00ff ffff 00ff ffff 00ff ffff 00ff     ................
  417844:	ffff 00ff ffff 00ff ffff 00ff ffff 00ff     ................
  417854:	ffff 00ff ffff 00ff ffff 00ff ffff 00ff     ................
  417864:	ffff 00ff ffff 00ff ffff 00ff ffff 00ff     ................
  417874:	a5c5 0083 4587 0000 4587 0000 4587 0000     .....E...E...E..
  417884:	4587 0000 4587 0000 83af 0055 ffff 00ff     .E...E....U.....
  417894:	ffff 00ff ffff 00ff ffff 00ff ffff 00ff     ................
  4178a4:	ffff 00ff ffff 00ff fdfe 00fc 6099 0027     .............`'.
  4178b4:	4587 0000 4587 0000 4587 0000 a5c5 0083     .E...E...E......
  4178c4:	ffff 00ff ffff 00ff ffff 00ff ffff 00ff     ................
  4178d4:	ffff 00ff ffff 00ff ffff 00ff ffff 00ff     ................
  4178e4:	ffff 00ff ffff 00ff ffff 00ff ffff 00ff     ................
  4178f4:	ffff 00ff ffff 00ff ffff 00ff ffff 00ff     ................
  417904:	ffff 00ff ffff 00ff ffff 00ff ffff 00ff     ................
  417914:	ffff 00ff ffff 00ff ffff 00ff ffff 00ff     ................
  417924:	ffff 00ff ffff 00ff ffff 00ff ffff 00ff     ................
  417934:	ffff 00ff ffff 00ff ffff 00ff ffff 00ff     ................
  417944:	ffff 00ff ffff 00ff ffff 00ff ffff 00ff     ................
  417954:	ffff 00ff ffff 00ff ffff 00ff ffff 00ff     ................
  417964:	ffff 00ff ffff 00ff ffff 00ff ffff 00ff     ................
  417974:	ffff 00ff ffff 00ff ffff 00ff ffff 00ff     ................
  417984:	ffff 00ff ffff 00ff ffff 00ff ffff 00ff     ................
  417994:	ffff 00ff ffff 00ff ffff 00ff ffff 00ff     ................
  4179a4:	ffff 00ff ffff 00ff ffff 00ff ffff 00ff     ................
  4179b4:	ffff 00ff ffff 00ff ffff 00ff ffff 00ff     ................
  4179c4:	ffff 00ff ffff 00ff ffff 00ff ffff 00ff     ................
  4179d4:	ffff 00ff ffff 00ff ffff 00ff ffff 00ff     ................
  4179e4:	ffff 00ff ffff 00ff ffff 00ff ffff 00ff     ................
  4179f4:	ffff 00ff ffff 00ff ffff 00ff ffff 00ff     ................
  417a04:	ffff 00ff ffff 00ff ffff 00ff ffff 00ff     ................
  417a14:	ffff 00ff ffff 00ff ffff 00ff ffff 00ff     ................
  417a24:	ffff 00ff ffff 00ff ffff 00ff ffff 00ff     ................
  417a34:	ffff 00ff ffff 00ff ffff 00ff ffff 00ff     ................
  417a44:	ffff 00ff ffff 00ff ffff 00ff ffff 00ff     ................
  417a54:	ffff 00ff ffff 00ff ffff 00ff ffff 00ff     ................
  417a64:	ffff 00ff ffff 00ff ffff 00ff ffff 00ff     ................
  417a74:	ffff 00ff ffff 00ff ffff 00ff ffff 00ff     ................
  417a84:	ffff 00ff ffff 00ff ffff 00ff ffff 00ff     ................
  417a94:	ffff 00ff ffff 00ff ffff 00ff ffff 00ff     ................
  417aa4:	ffff 00ff ffff 00ff ffff 00ff ffff 00ff     ................
  417ab4:	ffff 00ff ffff 00ff ffff 00ff ffff 00ff     ................
  417ac4:	ffff 00ff ffff 00ff ffff 00ff ffff 00ff     ................
  417ad4:	ffff 00ff ffff 00ff ffff 00ff ffff 00ff     ................
  417ae4:	ffff 00ff ffff 00ff ffff 00ff ffff 00ff     ................
  417af4:	ffff 00ff ffff 00ff ffff 00ff ffff 00ff     ................
  417b04:	ffff 00ff ffff 00ff ffff 00ff ffff 00ff     ................
  417b14:	ffff 00ff ffff 00ff ffff 00ff ffff 00ff     ................
  417b24:	ffff 00ff ffff 00ff ffff 00ff ffff 00ff     ................
  417b34:	4587 0000 4587 0000 4587 0000 4587 0000     .E...E...E...E..
  417b44:	689e 0031 feff 00fe ffff 00ff ffff 00ff     .h1.............
  417b54:	ffff 00ff ffff 00ff ffff 00ff ffff 00ff     ................
  417b64:	dde9 00d0 4587 0000 4587 0000 4587 0000     .....E...E...E..
  417b74:	4587 0000 4587 0000 4587 0000 7baa 004c     .E...E...E...{L.
  417b84:	fdfe 00fc ffff 00ff ffff 00ff ffff 00ff     ................
  417b94:	ffff 00ff ffff 00ff ffff 00ff ffff 00ff     ................
  417ba4:	ffff 00ff ffff 00ff ffff 00ff ffff 00ff     ................
  417bb4:	ffff 00ff ffff 00ff ffff 00ff ffff 00ff     ................
  417bc4:	ffff 00ff ffff 00ff ffff 00ff ffff 00ff     ................
  417bd4:	ffff 00ff ffff 00ff ffff 00ff ffff 00ff     ................
  417be4:	ffff 00ff ffff 00ff ffff 00ff ffff 00ff     ................
  417bf4:	ffff 00ff ffff 00ff ffff 00ff ffff 00ff     ................
  417c04:	ffff 00ff ffff 00ff ffff 00ff ffff 00ff     ................
  417c14:	ffff 00ff ffff 00ff ffff 00ff ffff 00ff     ................
  417c24:	ffff 00ff ffff 00ff ffff 00ff ccdf 00ba     ................
  417c34:	4788 0003 4587 0000 4587 0000 4587 0000     .G...E...E...E..
  417c44:	4587 0000 4587 0000 83af 0055 ffff 00ff     .E...E....U.....
  417c54:	ffff 00ff ffff 00ff ffff 00ff ffff 00ff     ................
  417c64:	ffff 00ff ffff 00ff bed5 00a6 4587 0000     .............E..
  417c74:	4587 0000 4587 0000 4587 0000 a5c5 0083     .E...E...E......
  417c84:	ffff 00ff ffff 00ff ffff 00ff ffff 00ff     ................
  417c94:	ffff 00ff ffff 00ff ffff 00ff ffff 00ff     ................
  417ca4:	ffff 00ff ffff 00ff ffff 00ff ffff 00ff     ................
  417cb4:	ffff 00ff ffff 00ff ffff 00ff ffff 00ff     ................
  417cc4:	ffff 00ff ffff 00ff ffff 00ff ffff 00ff     ................
  417cd4:	ffff 00ff ffff 00ff ffff 00ff ffff 00ff     ................
  417ce4:	ffff 00ff ffff 00ff ffff 00ff ffff 00ff     ................
  417cf4:	ffff 00ff ffff 00ff ffff 00ff ffff 00ff     ................
  417d04:	ffff 00ff ffff 00ff ffff 00ff ffff 00ff     ................
  417d14:	ffff 00ff ffff 00ff ffff 00ff ffff 00ff     ................
  417d24:	ffff 00ff ffff 00ff ffff 00ff ffff 00ff     ................
  417d34:	ffff 00ff ffff 00ff ffff 00ff ffff 00ff     ................
  417d44:	ffff 00ff ffff 00ff ffff 00ff ffff 00ff     ................
  417d54:	ffff 00ff ffff 00ff ffff 00ff ffff 00ff     ................
  417d64:	ffff 00ff ffff 00ff ffff 00ff ffff 00ff     ................
  417d74:	ffff 00ff ffff 00ff ffff 00ff ffff 00ff     ................
  417d84:	ffff 00ff ffff 00ff ffff 00ff ffff 00ff     ................
  417d94:	ffff 00ff ffff 00ff ffff 00ff ffff 00ff     ................
  417da4:	ffff 00ff ffff 00ff ffff 00ff ffff 00ff     ................
  417db4:	ffff 00ff ffff 00ff ffff 00ff ffff 00ff     ................
  417dc4:	ffff 00ff ffff 00ff ffff 00ff ffff 00ff     ................
  417dd4:	ffff 00ff ffff 00ff ffff 00ff ffff 00ff     ................
  417de4:	ffff 00ff ffff 00ff ffff 00ff ffff 00ff     ................
  417df4:	ffff 00ff ffff 00ff ffff 00ff ffff 00ff     ................
  417e04:	ffff 00ff ffff 00ff ffff 00ff ffff 00ff     ................
  417e14:	ffff 00ff ffff 00ff ffff 00ff ffff 00ff     ................
  417e24:	ffff 00ff ffff 00ff ffff 00ff ffff 00ff     ................
  417e34:	ffff 00ff ffff 00ff ffff 00ff ffff 00ff     ................
  417e44:	ffff 00ff ffff 00ff ffff 00ff ffff 00ff     ................
  417e54:	ffff 00ff ffff 00ff ffff 00ff ffff 00ff     ................
  417e64:	ffff 00ff ffff 00ff ffff 00ff ffff 00ff     ................
  417e74:	ffff 00ff ffff 00ff ffff 00ff ffff 00ff     ................
  417e84:	ffff 00ff ffff 00ff ffff 00ff ffff 00ff     ................
  417e94:	ffff 00ff ffff 00ff ffff 00ff ffff 00ff     ................
  417ea4:	ffff 00ff ffff 00ff ffff 00ff ffff 00ff     ................
  417eb4:	ffff 00ff ffff 00ff ffff 00ff ffff 00ff     ................
  417ec4:	ffff 00ff ffff 00ff ffff 00ff ffff 00ff     ................
  417ed4:	ffff 00ff ffff 00ff ffff 00ff ffff 00ff     ................
  417ee4:	ffff 00ff ffff 00ff ffff 00ff ffff 00ff     ................
  417ef4:	4587 0000 4587 0000 4587 0000 4587 0000     .E...E...E...E..
  417f04:	4587 0000 cadc 00b6 ffff 00ff ffff 00ff     .E..............
  417f14:	ffff 00ff ffff 00ff ffff 00ff ffff 00ff     ................
  417f24:	dde9 00d0 4587 0000 4587 0000 4587 0000     .....E...E...E..
  417f34:	4587 0000 4587 0000 4587 0000 4587 0000     .E...E...E...E..
  417f44:	8ab3 005e feff 00fe ffff 00ff ffff 00ff     ..^.............
  417f54:	ffff 00ff ffff 00ff ffff 00ff ffff 00ff     ................
  417f64:	ffff 00ff ffff 00ff ffff 00ff ffff 00ff     ................
  417f74:	ffff 00ff ffff 00ff ffff 00ff ffff 00ff     ................
  417f84:	ffff 00ff ffff 00ff ffff 00ff ffff 00ff     ................
  417f94:	ffff 00ff ffff 00ff ffff 00ff ffff 00ff     ................
  417fa4:	ffff 00ff ffff 00ff ffff 00ff ffff 00ff     ................
  417fb4:	ffff 00ff ffff 00ff ffff 00ff ffff 00ff     ................
  417fc4:	ffff 00ff ffff 00ff ffff 00ff ffff 00ff     ................
  417fd4:	ffff 00ff ffff 00ff ffff 00ff ffff 00ff     ................
  417fe4:	ffff 00ff ffff 00ff dde8 00d1 508f 0010     .............P..
  417ff4:	4587 0000 4587 0000 4587 0000 4587 0000     .E...E...E...E..
  418004:	4587 0000 4587 0000 83af 0055 ffff 00ff     .E...E....U.....
  418014:	ffff 00ff ffff 00ff ffff 00ff ffff 00ff     ................
  418024:	ffff 00ff feff 00fe 659c 002d 4587 0000     .........e-..E..
  418034:	4587 0000 4587 0000 4587 0000 a5c5 0083     .E...E...E......
  418044:	ffff 00ff ffff 00ff ffff 00ff ffff 00ff     ................
  418054:	ffff 00ff ffff 00ff ffff 00ff ffff 00ff     ................
  418064:	ffff 00ff ffff 00ff ffff 00ff ffff 00ff     ................
  418074:	ffff 00ff ffff 00ff ffff 00ff ffff 00ff     ................
  418084:	ffff 00ff ffff 00ff ffff 00ff ffff 00ff     ................
  418094:	ffff 00ff ffff 00ff ffff 00ff ffff 00ff     ................
  4180a4:	ffff 00ff ffff 00ff ffff 00ff ffff 00ff     ................
  4180b4:	ffff 00ff ffff 00ff ffff 00ff ffff 00ff     ................
  4180c4:	ffff 00ff ffff 00ff ffff 00ff ffff 00ff     ................
  4180d4:	ffff 00ff ffff 00ff ffff 00ff ffff 00ff     ................
  4180e4:	ffff 00ff ffff 00ff ffff 00ff ffff 00ff     ................
  4180f4:	ffff 00ff ffff 00ff ffff 00ff ffff 00ff     ................
  418104:	ffff 00ff ffff 00ff ffff 00ff ffff 00ff     ................
  418114:	ffff 00ff ffff 00ff ffff 00ff ffff 00ff     ................
  418124:	ffff 00ff ffff 00ff ffff 00ff ffff 00ff     ................
  418134:	ffff 00ff ffff 00ff ffff 00ff ffff 00ff     ................
  418144:	ffff 00ff ffff 00ff ffff 00ff ffff 00ff     ................
  418154:	ffff 00ff ffff 00ff ffff 00ff ffff 00ff     ................
  418164:	ffff 00ff ffff 00ff ffff 00ff ffff 00ff     ................
  418174:	ffff 00ff ffff 00ff ffff 00ff ffff 00ff     ................
  418184:	ffff 00ff ffff 00ff ffff 00ff ffff 00ff     ................
  418194:	ffff 00ff ffff 00ff ffff 00ff ffff 00ff     ................
  4181a4:	ffff 00ff ffff 00ff ffff 00ff ffff 00ff     ................
  4181b4:	ffff 00ff ffff 00ff ffff 00ff ffff 00ff     ................
  4181c4:	ffff 00ff ffff 00ff ffff 00ff ffff 00ff     ................
  4181d4:	ffff 00ff ffff 00ff ffff 00ff ffff 00ff     ................
  4181e4:	ffff 00ff ffff 00ff ffff 00ff ffff 00ff     ................
  4181f4:	ffff 00ff ffff 00ff ffff 00ff ffff 00ff     ................
  418204:	ffff 00ff ffff 00ff ffff 00ff ffff 00ff     ................
  418214:	ffff 00ff ffff 00ff ffff 00ff ffff 00ff     ................
  418224:	ffff 00ff ffff 00ff ffff 00ff ffff 00ff     ................
  418234:	ffff 00ff ffff 00ff ffff 00ff ffff 00ff     ................
  418244:	ffff 00ff ffff 00ff ffff 00ff ffff 00ff     ................
  418254:	ffff 00ff ffff 00ff ffff 00ff ffff 00ff     ................
  418264:	ffff 00ff ffff 00ff ffff 00ff ffff 00ff     ................
  418274:	ffff 00ff ffff 00ff ffff 00ff ffff 00ff     ................
  418284:	ffff 00ff ffff 00ff ffff 00ff ffff 00ff     ................
  418294:	ffff 00ff ffff 00ff ffff 00ff ffff 00ff     ................
  4182a4:	ffff 00ff ffff 00ff ffff 00ff ffff 00ff     ................
  4182b4:	4587 0000 4587 0000 4587 0000 4587 0000     .E...E...E...E..
  4182c4:	4587 0000 659b 002c fbfd 00fa ffff 00ff     .E...e,.........
  4182d4:	ffff 00ff ffff 00ff ffff 00ff ffff 00ff     ................
  4182e4:	dde9 00d0 4587 0000 4587 0000 4587 0000     .....E...E...E..
  4182f4:	4587 0000 4587 0000 4587 0000 4587 0000     .E...E...E...E..
  418304:	4587 0000 9bbf 0076 ffff 00ff ffff 00ff     .E....v.........
  418314:	ffff 00ff ffff 00ff ffff 00ff ffff 00ff     ................
  418324:	ffff 00ff ffff 00ff ffff 00ff ffff 00ff     ................
  418334:	ffff 00ff ffff 00ff ffff 00ff ffff 00ff     ................
  418344:	ffff 00ff ffff 00ff ffff 00ff ffff 00ff     ................
  418354:	ffff 00ff ffff 00ff ffff 00ff ffff 00ff     ................
  418364:	ffff 00ff ffff 00ff ffff 00ff ffff 00ff     ................
  418374:	ffff 00ff ffff 00ff ffff 00ff ffff 00ff     ................
  418384:	ffff 00ff ffff 00ff ffff 00ff ffff 00ff     ................
  418394:	ffff 00ff ffff 00ff ffff 00ff ffff 00ff     ................
  4183a4:	ffff 00ff e0eb 00d5 5591 0016 4587 0000     .........U...E..
  4183b4:	4587 0000 4587 0000 4587 0000 4587 0000     .E...E...E...E..
  4183c4:	4587 0000 4587 0000 83af 0055 ffff 00ff     .E...E....U.....
  4183d4:	ffff 00ff ffff 00ff ffff 00ff ffff 00ff     ................
  4183e4:	ffff 00ff b7d0 009c 4587 0000 4587 0000     .........E...E..
  4183f4:	4587 0000 4587 0000 4587 0000 a5c5 0083     .E...E...E......
  418404:	ffff 00ff ffff 00ff ffff 00ff ffff 00ff     ................
  418414:	ffff 00ff ffff 00ff ffff 00ff ffff 00ff     ................
  418424:	ffff 00ff ffff 00ff ffff 00ff ffff 00ff     ................
  418434:	ffff 00ff ffff 00ff ffff 00ff ffff 00ff     ................
  418444:	ffff 00ff ffff 00ff ffff 00ff ffff 00ff     ................
  418454:	ffff 00ff ffff 00ff ffff 00ff ffff 00ff     ................
  418464:	ffff 00ff ffff 00ff ffff 00ff ffff 00ff     ................
  418474:	ffff 00ff ffff 00ff ffff 00ff ffff 00ff     ................
  418484:	ffff 00ff ffff 00ff ffff 00ff ffff 00ff     ................
  418494:	ffff 00ff ffff 00ff ffff 00ff ffff 00ff     ................
  4184a4:	ffff 00ff ffff 00ff ffff 00ff ffff 00ff     ................
  4184b4:	ffff 00ff ffff 00ff ffff 00ff ffff 00ff     ................
  4184c4:	ffff 00ff ffff 00ff ffff 00ff ffff 00ff     ................
  4184d4:	ffff 00ff ffff 00ff ffff 00ff ffff 00ff     ................
  4184e4:	ffff 00ff ffff 00ff ffff 00ff ffff 00ff     ................
  4184f4:	ffff 00ff ffff 00ff ffff 00ff ffff 00ff     ................
  418504:	ffff 00ff ffff 00ff ffff 00ff ffff 00ff     ................
  418514:	ffff 00ff ffff 00ff ffff 00ff ffff 00ff     ................
  418524:	ffff 00ff ffff 00ff ffff 00ff ffff 00ff     ................
  418534:	ffff 00ff ffff 00ff ffff 00ff ffff 00ff     ................
  418544:	ffff 00ff ffff 00ff ffff 00ff ffff 00ff     ................
  418554:	ffff 00ff ffff 00ff ffff 00ff ffff 00ff     ................
  418564:	ffff 00ff ffff 00ff ffff 00ff ffff 00ff     ................
  418574:	ffff 00ff ffff 00ff ffff 00ff ffff 00ff     ................
  418584:	ffff 00ff ffff 00ff ffff 00ff ffff 00ff     ................
  418594:	ffff 00ff ffff 00ff ffff 00ff ffff 00ff     ................
  4185a4:	ffff 00ff ffff 00ff ffff 00ff ffff 00ff     ................
  4185b4:	ffff 00ff ffff 00ff ffff 00ff ffff 00ff     ................
  4185c4:	ffff 00ff ffff 00ff ffff 00ff ffff 00ff     ................
  4185d4:	ffff 00ff ffff 00ff ffff 00ff ffff 00ff     ................
  4185e4:	ffff 00ff ffff 00ff ffff 00ff ffff 00ff     ................
  4185f4:	ffff 00ff ffff 00ff ffff 00ff ffff 00ff     ................
  418604:	ffff 00ff ffff 00ff ffff 00ff ffff 00ff     ................
  418614:	ffff 00ff ffff 00ff ffff 00ff ffff 00ff     ................
  418624:	ffff 00ff ffff 00ff ffff 00ff ffff 00ff     ................
  418634:	ffff 00ff ffff 00ff ffff 00ff ffff 00ff     ................
  418644:	ffff 00ff ffff 00ff ffff 00ff ffff 00ff     ................
  418654:	ffff 00ff ffff 00ff ffff 00ff ffff 00ff     ................
  418664:	ffff 00ff ffff 00ff ffff 00ff ffff 00ff     ................
  418674:	4587 0000 4587 0000 4587 0000 4587 0000     .E...E...E...E..
  418684:	4587 0000 4587 0000 abc8 008c ffff 00ff     .E...E..........
  418694:	ffff 00ff ffff 00ff ffff 00ff ffff 00ff     ................
  4186a4:	dde9 00d0 4587 0000 4587 0000 4587 0000     .....E...E...E..
  4186b4:	4587 0000 4587 0000 4587 0000 4587 0000     .E...E...E...E..
  4186c4:	4587 0000 4587 0000 8bb4 0060 fcfd 00fb     .E...E....`.....
  4186d4:	ffff 00ff ffff 00ff ffff 00ff ffff 00ff     ................
  4186e4:	ffff 00ff ffff 00ff ffff 00ff ffff 00ff     ................
  4186f4:	ffff 00ff ffff 00ff ffff 00ff ffff 00ff     ................
  418704:	ffff 00ff ffff 00ff ffff 00ff ffff 00ff     ................
  418714:	ffff 00ff ffff 00ff ffff 00ff ffff 00ff     ................
  418724:	ffff 00ff ffff 00ff ffff 00ff ffff 00ff     ................
  418734:	ffff 00ff ffff 00ff ffff 00ff ffff 00ff     ................
  418744:	ffff 00ff ffff 00ff ffff 00ff ffff 00ff     ................
  418754:	ffff 00ff ffff 00ff ffff 00ff ffff 00ff     ................
  418764:	d7e4 00c8 5390 0014 4587 0000 4587 0000     .....S...E...E..
  418774:	4587 0000 4587 0000 4587 0000 4587 0000     .E...E...E...E..
  418784:	4587 0000 4587 0000 83af 0055 ffff 00ff     .E...E....U.....
  418794:	ffff 00ff ffff 00ff ffff 00ff ffff 00ff     ................
  4187a4:	f2f7 00ed 5490 0015 4587 0000 4587 0000     .....T...E...E..
  4187b4:	4587 0000 4587 0000 4587 0000 a5c5 0083     .E...E...E......
  4187c4:	ffff 00ff ffff 00ff ffff 00ff ffff 00ff     ................
  4187d4:	ffff 00ff ffff 00ff ffff 00ff ffff 00ff     ................
  4187e4:	ffff 00ff ffff 00ff ffff 00ff ffff 00ff     ................
  4187f4:	ffff 00ff ffff 00ff ffff 00ff ffff 00ff     ................
  418804:	ffff 00ff ffff 00ff ffff 00ff ffff 00ff     ................
  418814:	ffff 00ff ffff 00ff ffff 00ff ffff 00ff     ................
  418824:	ffff 00ff ffff 00ff ffff 00ff ffff 00ff     ................
  418834:	ffff 00ff ffff 00ff ffff 00ff ffff 00ff     ................
  418844:	ffff 00ff ffff 00ff ffff 00ff ffff 00ff     ................
  418854:	ffff 00ff ffff 00ff ffff 00ff ffff 00ff     ................
  418864:	ffff 00ff ffff 00ff ffff 00ff ffff 00ff     ................
  418874:	ffff 00ff ffff 00ff ffff 00ff ffff 00ff     ................
  418884:	ffff 00ff ffff 00ff ffff 00ff ffff 00ff     ................
  418894:	ffff 00ff ffff 00ff ffff 00ff ffff 00ff     ................
  4188a4:	ffff 00ff ffff 00ff ffff 00ff ffff 00ff     ................
  4188b4:	ffff 00ff ffff 00ff ffff 00ff ffff 00ff     ................
  4188c4:	ffff 00ff ffff 00ff ffff 00ff ffff 00ff     ................
  4188d4:	ffff 00ff ffff 00ff ffff 00ff ffff 00ff     ................
  4188e4:	ffff 00ff ffff 00ff ffff 00ff ffff 00ff     ................
  4188f4:	ffff 00ff ffff 00ff ffff 00ff ffff 00ff     ................
  418904:	ffff 00ff ffff 00ff ffff 00ff ffff 00ff     ................
  418914:	ffff 00ff ffff 00ff ffff 00ff ffff 00ff     ................
  418924:	ffff 00ff ffff 00ff ffff 00ff ffff 00ff     ................
  418934:	ffff 00ff ffff 00ff ffff 00ff ffff 00ff     ................
  418944:	ffff 00ff ffff 00ff ffff 00ff ffff 00ff     ................
  418954:	ffff 00ff ffff 00ff ffff 00ff ffff 00ff     ................
  418964:	ffff 00ff ffff 00ff ffff 00ff ffff 00ff     ................
  418974:	ffff 00ff ffff 00ff ffff 00ff ffff 00ff     ................
  418984:	ffff 00ff ffff 00ff ffff 00ff ffff 00ff     ................
  418994:	ffff 00ff ffff 00ff ffff 00ff ffff 00ff     ................
  4189a4:	ffff 00ff ffff 00ff ffff 00ff ffff 00ff     ................
  4189b4:	ffff 00ff ffff 00ff ffff 00ff ffff 00ff     ................
  4189c4:	ffff 00ff ffff 00ff ffff 00ff ffff 00ff     ................
  4189d4:	ffff 00ff ffff 00ff ffff 00ff ffff 00ff     ................
  4189e4:	ffff 00ff ffff 00ff ffff 00ff ffff 00ff     ................
  4189f4:	ffff 00ff ffff 00ff ffff 00ff ffff 00ff     ................
  418a04:	ffff 00ff ffff 00ff ffff 00ff ffff 00ff     ................
  418a14:	ffff 00ff ffff 00ff ffff 00ff ffff 00ff     ................
  418a24:	ffff 00ff ffff 00ff ffff 00ff ffff 00ff     ................
  418a34:	4587 0000 4587 0000 4587 0000 4587 0000     .E...E...E...E..
  418a44:	4587 0000 4587 0000 4c8b 000a e8ef 00df     .E...E...L......
  418a54:	ffff 00ff ffff 00ff ffff 00ff ffff 00ff     ................
  418a64:	dde9 00d0 4587 0000 4587 0000 4587 0000     .....E...E...E..
  418a74:	4587 0000 4587 0000 4587 0000 4587 0000     .E...E...E...E..
  418a84:	4587 0000 4587 0000 4587 0000 7baa 004c     .E...E...E...{L.
  418a94:	f3f7 00ee ffff 00ff ffff 00ff ffff 00ff     ................
  418aa4:	ffff 00ff ffff 00ff ffff 00ff ffff 00ff     ................
  418ab4:	ffff 00ff ffff 00ff ffff 00ff ffff 00ff     ................
  418ac4:	ffff 00ff ffff 00ff ffff 00ff ffff 00ff     ................
  418ad4:	ffff 00ff ffff 00ff ffff 00ff ffff 00ff     ................
  418ae4:	ffff 00ff ffff 00ff ffff 00ff ffff 00ff     ................
  418af4:	ffff 00ff ffff 00ff ffff 00ff ffff 00ff     ................
  418b04:	ffff 00ff ffff 00ff ffff 00ff ffff 00ff     ................
  418b14:	ffff 00ff ffff 00ff ffff 00ff bed5 00a6     ................
  418b24:	4b8b 0009 4587 0000 4587 0000 4587 0000     .K...E...E...E..
  418b34:	4587 0000 4587 0000 4587 0000 4587 0000     .E...E...E...E..
  418b44:	4587 0000 4587 0000 83af 0055 ffff 00ff     .E...E....U.....
  418b54:	ffff 00ff ffff 00ff ffff 00ff ffff 00ff     ................
  418b64:	8db6 0063 4587 0000 4587 0000 4587 0000     ..c..E...E...E..
  418b74:	4587 0000 4587 0000 4587 0000 a5c5 0083     .E...E...E......
  418b84:	ffff 00ff ffff 00ff ffff 00ff ffff 00ff     ................
  418b94:	ffff 00ff ffff 00ff ffff 00ff ffff 00ff     ................
  418ba4:	ffff 00ff ffff 00ff ffff 00ff ffff 00ff     ................
  418bb4:	ffff 00ff ffff 00ff ffff 00ff ffff 00ff     ................
  418bc4:	ffff 00ff ffff 00ff ffff 00ff ffff 00ff     ................
  418bd4:	ffff 00ff ffff 00ff ffff 00ff ffff 00ff     ................
  418be4:	ffff 00ff ffff 00ff ffff 00ff ffff 00ff     ................
  418bf4:	ffff 00ff ffff 00ff ffff 00ff ffff 00ff     ................
  418c04:	ffff 00ff ffff 00ff ffff 00ff ffff 00ff     ................
  418c14:	ffff 00ff ffff 00ff ffff 00ff ffff 00ff     ................
  418c24:	ffff 00ff ffff 00ff ffff 00ff ffff 00ff     ................
  418c34:	ffff 00ff ffff 00ff ffff 00ff ffff 00ff     ................
  418c44:	ffff 00ff ffff 00ff ffff 00ff ffff 00ff     ................
  418c54:	ffff 00ff ffff 00ff ffff 00ff ffff 00ff     ................
  418c64:	ffff 00ff ffff 00ff ffff 00ff ffff 00ff     ................
  418c74:	ffff 00ff ffff 00ff ffff 00ff ffff 00ff     ................
  418c84:	ffff 00ff ffff 00ff ffff 00ff ffff 00ff     ................
  418c94:	ffff 00ff ffff 00ff ffff 00ff ffff 00ff     ................
  418ca4:	ffff 00ff ffff 00ff ffff 00ff ffff 00ff     ................
  418cb4:	ffff 00ff ffff 00ff ffff 00ff ffff 00ff     ................
  418cc4:	ffff 00ff ffff 00ff ffff 00ff ffff 00ff     ................
  418cd4:	ffff 00ff ffff 00ff ffff 00ff ffff 00ff     ................
  418ce4:	ffff 00ff ffff 00ff ffff 00ff ffff 00ff     ................
  418cf4:	ffff 00ff ffff 00ff ffff 00ff ffff 00ff     ................
  418d04:	ffff 00ff ffff 00ff ffff 00ff ffff 00ff     ................
  418d14:	ffff 00ff ffff 00ff ffff 00ff ffff 00ff     ................
  418d24:	ffff 00ff ffff 00ff ffff 00ff ffff 00ff     ................
  418d34:	ffff 00ff ffff 00ff ffff 00ff ffff 00ff     ................
  418d44:	ffff 00ff ffff 00ff ffff 00ff ffff 00ff     ................
  418d54:	ffff 00ff ffff 00ff ffff 00ff ffff 00ff     ................
  418d64:	ffff 00ff ffff 00ff ffff 00ff ffff 00ff     ................
  418d74:	ffff 00ff ffff 00ff ffff 00ff ffff 00ff     ................
  418d84:	ffff 00ff ffff 00ff ffff 00ff ffff 00ff     ................
  418d94:	ffff 00ff ffff 00ff ffff 00ff ffff 00ff     ................
  418da4:	ffff 00ff ffff 00ff ffff 00ff ffff 00ff     ................
  418db4:	ffff 00ff ffff 00ff ffff 00ff ffff 00ff     ................
  418dc4:	ffff 00ff ffff 00ff ffff 00ff ffff 00ff     ................
  418dd4:	ffff 00ff ffff 00ff ffff 00ff ffff 00ff     ................
  418de4:	ffff 00ff ffff 00ff ffff 00ff ffff 00ff     ................
  418df4:	4587 0000 4587 0000 4587 0000 4587 0000     .E...E...E...E..
  418e04:	4587 0000 4587 0000 4587 0000 7baa 004c     .E...E...E...{L.
  418e14:	feff 00fe ffff 00ff ffff 00ff ffff 00ff     ................
  418e24:	dde9 00d0 4587 0000 4587 0000 4587 0000     .....E...E...E..
  418e34:	4587 0000 4587 0000 4587 0000 4587 0000     .E...E...E...E..
  418e44:	4587 0000 4587 0000 4587 0000 4587 0000     .E...E...E...E..
  418e54:	5a94 001d d3e3 00c4 ffff 00ff ffff 00ff     .Z..............
  418e64:	ffff 00ff ffff 00ff ffff 00ff ffff 00ff     ................
  418e74:	ffff 00ff ffff 00ff ffff 00ff ffff 00ff     ................
  418e84:	ffff 00ff ffff 00ff ffff 00ff ffff 00ff     ................
  418e94:	ffff 00ff ffff 00ff ffff 00ff ffff 00ff     ................
  418ea4:	ffff 00ff ffff 00ff ffff 00ff ffff 00ff     ................
  418eb4:	ffff 00ff ffff 00ff ffff 00ff ffff 00ff     ................
  418ec4:	ffff 00ff ffff 00ff ffff 00ff ffff 00ff     ................
  418ed4:	ffff 00ff f9fb 00f7 95ba 006e 4587 0000     ..........n..E..
  418ee4:	4587 0000 4587 0000 4587 0000 4587 0000     .E...E...E...E..
  418ef4:	4587 0000 4587 0000 4587 0000 4587 0000     .E...E...E...E..
  418f04:	4587 0000 4587 0000 83af 0055 ffff 00ff     .E...E....U.....
  418f14:	ffff 00ff ffff 00ff ffff 00ff d0df 00be     ................
  418f24:	4587 0001 4587 0000 4587 0000 4587 0000     .E...E...E...E..
  418f34:	4587 0000 4587 0000 4587 0000 a5c5 0083     .E...E...E......
  418f44:	ffff 00ff ffff 00ff ffff 00ff ffff 00ff     ................
  418f54:	ffff 00ff ffff 00ff ffff 00ff ffff 00ff     ................
  418f64:	ffff 00ff ffff 00ff ffff 00ff ffff 00ff     ................
  418f74:	ffff 00ff ffff 00ff ffff 00ff ffff 00ff     ................
  418f84:	ffff 00ff ffff 00ff ffff 00ff ffff 00ff     ................
  418f94:	ffff 00ff ffff 00ff ffff 00ff ffff 00ff     ................
  418fa4:	ffff 00ff ffff 00ff ffff 00ff ffff 00ff     ................
  418fb4:	ffff 00ff ffff 00ff ffff 00ff ffff 00ff     ................
  418fc4:	ffff 00ff ffff 00ff ffff 00ff ffff 00ff     ................
  418fd4:	ffff 00ff ffff 00ff ffff 00ff ffff 00ff     ................
  418fe4:	ffff 00ff ffff 00ff ffff 00ff ffff 00ff     ................
  418ff4:	ffff 00ff ffff 00ff ffff 00ff ffff 00ff     ................
  419004:	ffff 00ff ffff 00ff ffff 00ff ffff 00ff     ................
  419014:	ffff 00ff ffff 00ff ffff 00ff ffff 00ff     ................
  419024:	ffff 00ff ffff 00ff ffff 00ff ffff 00ff     ................
  419034:	ffff 00ff ffff 00ff ffff 00ff ffff 00ff     ................
  419044:	ffff 00ff ffff 00ff ffff 00ff ffff 00ff     ................
  419054:	ffff 00ff ffff 00ff ffff 00ff ffff 00ff     ................
  419064:	ffff 00ff ffff 00ff ffff 00ff ffff 00ff     ................
  419074:	ffff 00ff ffff 00ff ffff 00ff ffff 00ff     ................
  419084:	ffff 00ff ffff 00ff ffff 00ff ffff 00ff     ................
  419094:	ffff 00ff ffff 00ff ffff 00ff ffff 00ff     ................
  4190a4:	ffff 00ff ffff 00ff ffff 00ff ffff 00ff     ................
  4190b4:	ffff 00ff ffff 00ff ffff 00ff ffff 00ff     ................
  4190c4:	ffff 00ff ffff 00ff ffff 00ff ffff 00ff     ................
  4190d4:	ffff 00ff ffff 00ff ffff 00ff ffff 00ff     ................
  4190e4:	ffff 00ff ffff 00ff ffff 00ff ffff 00ff     ................
  4190f4:	ffff 00ff ffff 00ff ffff 00ff ffff 00ff     ................
  419104:	ffff 00ff ffff 00ff ffff 00ff ffff 00ff     ................
  419114:	ffff 00ff ffff 00ff ffff 00ff ffff 00ff     ................
  419124:	ffff 00ff ffff 00ff ffff 00ff ffff 00ff     ................
  419134:	ffff 00ff ffff 00ff ffff 00ff ffff 00ff     ................
  419144:	ffff 00ff ffff 00ff ffff 00ff ffff 00ff     ................
  419154:	ffff 00ff ffff 00ff ffff 00ff ffff 00ff     ................
  419164:	ffff 00ff ffff 00ff ffff 00ff ffff 00ff     ................
  419174:	ffff 00ff ffff 00ff ffff 00ff ffff 00ff     ................
  419184:	ffff 00ff ffff 00ff ffff 00ff ffff 00ff     ................
  419194:	ffff 00ff ffff 00ff ffff 00ff ffff 00ff     ................
  4191a4:	ffff 00ff ffff 00ff ffff 00ff ffff 00ff     ................
  4191b4:	4587 0000 4587 0000 4587 0000 4587 0000     .E...E...E...E..
  4191c4:	4587 0000 4587 0000 4587 0000 4587 0000     .E...E...E...E..
  4191d4:	abc8 008c ffff 00ff ffff 00ff ffff 00ff     ................
  4191e4:	dde9 00d0 4587 0000 4587 0000 4587 0000     .....E...E...E..
  4191f4:	4587 0000 4587 0000 4587 0000 4587 0000     .E...E...E...E..
  419204:	4587 0000 4587 0000 4587 0000 4587 0000     .E...E...E...E..
  419214:	4587 0000 4788 0004 95ba 006e f5f8 00f1     .E...G....n.....
  419224:	ffff 00ff ffff 00ff ffff 00ff ffff 00ff     ................
  419234:	ffff 00ff ffff 00ff ffff 00ff ffff 00ff     ................
  419244:	ffff 00ff ffff 00ff ffff 00ff ffff 00ff     ................
  419254:	ffff 00ff ffff 00ff ffff 00ff ffff 00ff     ................
  419264:	ffff 00ff ffff 00ff ffff 00ff ffff 00ff     ................
  419274:	ffff 00ff ffff 00ff ffff 00ff ffff 00ff     ................
  419284:	ffff 00ff ffff 00ff ffff 00ff ffff 00ff     ................
  419294:	d0df 00be 629a 0029 4587 0000 4587 0000     .....b)..E...E..
  4192a4:	4587 0000 4587 0000 4587 0000 4587 0000     .E...E...E...E..
  4192b4:	4587 0000 4587 0000 4587 0000 4587 0000     .E...E...E...E..
  4192c4:	4587 0000 4587 0000 83af 0055 ffff 00ff     .E...E....U.....
  4192d4:	ffff 00ff ffff 00ff eff4 00e9 5793 001a     .............W..
  4192e4:	4587 0000 4587 0000 4587 0000 4587 0000     .E...E...E...E..
  4192f4:	4587 0000 4587 0000 4587 0000 a5c5 0083     .E...E...E......
  419304:	ffff 00ff ffff 00ff ffff 00ff ffff 00ff     ................
  419314:	ffff 00ff ffff 00ff ffff 00ff ffff 00ff     ................
  419324:	ffff 00ff ffff 00ff ffff 00ff ffff 00ff     ................
  419334:	ffff 00ff ffff 00ff ffff 00ff ffff 00ff     ................
  419344:	ffff 00ff ffff 00ff ffff 00ff ffff 00ff     ................
  419354:	ffff 00ff ffff 00ff ffff 00ff ffff 00ff     ................
  419364:	ffff 00ff ffff 00ff ffff 00ff ffff 00ff     ................
  419374:	ffff 00ff ffff 00ff ffff 00ff ffff 00ff     ................
  419384:	ffff 00ff ffff 00ff ffff 00ff ffff 00ff     ................
  419394:	ffff 00ff ffff 00ff ffff 00ff ffff 00ff     ................
  4193a4:	ffff 00ff ffff 00ff ffff 00ff ffff 00ff     ................
  4193b4:	ffff 00ff ffff 00ff ffff 00ff ffff 00ff     ................
  4193c4:	ffff 00ff ffff 00ff ffff 00ff ffff 00ff     ................
  4193d4:	ffff 00ff ffff 00ff ffff 00ff ffff 00ff     ................
  4193e4:	ffff 00ff ffff 00ff ffff 00ff ffff 00ff     ................
  4193f4:	ffff 00ff ffff 00ff ffff 00ff ffff 00ff     ................
  419404:	ffff 00ff ffff 00ff ffff 00ff ffff 00ff     ................
  419414:	ffff 00ff ffff 00ff ffff 00ff ffff 00ff     ................
  419424:	ffff 00ff ffff 00ff ffff 00ff ffff 00ff     ................
  419434:	ffff 00ff ffff 00ff ffff 00ff ffff 00ff     ................
  419444:	ffff 00ff ffff 00ff ffff 00ff ffff 00ff     ................
  419454:	ffff 00ff ffff 00ff ffff 00ff ffff 00ff     ................
  419464:	ffff 00ff ffff 00ff ffff 00ff ffff 00ff     ................
  419474:	ffff 00ff ffff 00ff ffff 00ff ffff 00ff     ................
  419484:	ffff 00ff ffff 00ff ffff 00ff ffff 00ff     ................
  419494:	ffff 00ff ffff 00ff ffff 00ff ffff 00ff     ................
  4194a4:	ffff 00ff ffff 00ff ffff 00ff ffff 00ff     ................
  4194b4:	ffff 00ff ffff 00ff ffff 00ff ffff 00ff     ................
  4194c4:	ffff 00ff ffff 00ff ffff 00ff ffff 00ff     ................
  4194d4:	ffff 00ff ffff 00ff ffff 00ff ffff 00ff     ................
  4194e4:	ffff 00ff ffff 00ff ffff 00ff ffff 00ff     ................
  4194f4:	ffff 00ff ffff 00ff ffff 00ff ffff 00ff     ................
  419504:	ffff 00ff ffff 00ff ffff 00ff ffff 00ff     ................
  419514:	ffff 00ff ffff 00ff ffff 00ff ffff 00ff     ................
  419524:	ffff 00ff ffff 00ff ffff 00ff ffff 00ff     ................
  419534:	ffff 00ff ffff 00ff ffff 00ff ffff 00ff     ................
  419544:	ffff 00ff ffff 00ff ffff 00ff ffff 00ff     ................
  419554:	ffff 00ff ffff 00ff ffff 00ff ffff 00ff     ................
  419564:	ffff 00ff ffff 00ff ffff 00ff ffff 00ff     ................
  419574:	4587 0000 4587 0000 4587 0000 4587 0000     .E...E...E...E..
  419584:	4587 0000 4587 0000 4587 0000 4587 0000     .E...E...E...E..
  419594:	4788 0004 d3e3 00c4 ffff 00ff ffff 00ff     .G..............
  4195a4:	dde9 00d0 4587 0000 4587 0000 4587 0000     .....E...E...E..
  4195b4:	4587 0000 4587 0000 4587 0000 4587 0000     .E...E...E...E..
  4195c4:	4587 0000 4587 0000 4587 0000 4587 0000     .E...E...E...E..
  4195d4:	4587 0000 4587 0000 4587 0000 5793 001a     .E...E...E...W..
  4195e4:	b7d0 009c fbfc 00f9 ffff 00ff ffff 00ff     ................
  4195f4:	ffff 00ff ffff 00ff ffff 00ff ffff 00ff     ................
  419604:	ffff 00ff ffff 00ff ffff 00ff ffff 00ff     ................
  419614:	ffff 00ff ffff 00ff ffff 00ff ffff 00ff     ................
  419624:	ffff 00ff ffff 00ff ffff 00ff ffff 00ff     ................
  419634:	ffff 00ff ffff 00ff ffff 00ff ffff 00ff     ................
  419644:	ffff 00ff ffff 00ff dfe9 00d3 80ae 0052     ..............R.
  419654:	4587 0000 4587 0000 4587 0000 4587 0000     .E...E...E...E..
  419664:	4587 0000 4587 0000 4587 0000 4587 0000     .E...E...E...E..
  419674:	4587 0000 4587 0000 4587 0000 4587 0000     .E...E...E...E..
  419684:	4587 0000 4587 0000 83af 0055 ffff 00ff     .E...E....U.....
  419694:	ffff 00ff fefe 00fd 77a6 0045 4587 0000     .........wE..E..
  4196a4:	4587 0000 4587 0000 4587 0000 4587 0000     .E...E...E...E..
  4196b4:	4587 0000 4587 0000 4587 0000 a5c5 0083     .E...E...E......
  4196c4:	ffff 00ff ffff 00ff ffff 00ff ffff 00ff     ................
  4196d4:	ffff 00ff ffff 00ff ffff 00ff ffff 00ff     ................
  4196e4:	ffff 00ff ffff 00ff ffff 00ff ffff 00ff     ................
  4196f4:	ffff 00ff ffff 00ff ffff 00ff ffff 00ff     ................
  419704:	ffff 00ff ffff 00ff ffff 00ff ffff 00ff     ................
  419714:	ffff 00ff ffff 00ff ffff 00ff ffff 00ff     ................
  419724:	ffff 00ff ffff 00ff ffff 00ff ffff 00ff     ................
  419734:	ffff 00ff ffff 00ff ffff 00ff ffff 00ff     ................
  419744:	ffff 00ff ffff 00ff ffff 00ff ffff 00ff     ................
  419754:	ffff 00ff ffff 00ff ffff 00ff ffff 00ff     ................
  419764:	ffff 00ff ffff 00ff ffff 00ff ffff 00ff     ................
  419774:	ffff 00ff ffff 00ff ffff 00ff ffff 00ff     ................
  419784:	ffff 00ff ffff 00ff ffff 00ff ffff 00ff     ................
  419794:	ffff 00ff ffff 00ff ffff 00ff ffff 00ff     ................
  4197a4:	ffff 00ff ffff 00ff ffff 00ff ffff 00ff     ................
  4197b4:	ffff 00ff ffff 00ff ffff 00ff ffff 00ff     ................
  4197c4:	ffff 00ff ffff 00ff ffff 00ff ffff 00ff     ................
  4197d4:	ffff 00ff ffff 00ff ffff 00ff ffff 00ff     ................
  4197e4:	ffff 00ff ffff 00ff ffff 00ff ffff 00ff     ................
  4197f4:	ffff 00ff ffff 00ff ffff 00ff ffff 00ff     ................
  419804:	ffff 00ff ffff 00ff ffff 00ff ffff 00ff     ................
  419814:	ffff 00ff ffff 00ff ffff 00ff ffff 00ff     ................
  419824:	ffff 00ff ffff 00ff ffff 00ff ffff 00ff     ................
  419834:	ffff 00ff ffff 00ff ffff 00ff ffff 00ff     ................
  419844:	ffff 00ff ffff 00ff ffff 00ff ffff 00ff     ................
  419854:	ffff 00ff ffff 00ff ffff 00ff ffff 00ff     ................
  419864:	ffff 00ff ffff 00ff ffff 00ff ffff 00ff     ................
  419874:	ffff 00ff ffff 00ff ffff 00ff ffff 00ff     ................
  419884:	ffff 00ff ffff 00ff ffff 00ff ffff 00ff     ................
  419894:	ffff 00ff ffff 00ff ffff 00ff ffff 00ff     ................
  4198a4:	ffff 00ff ffff 00ff ffff 00ff ffff 00ff     ................
  4198b4:	ffff 00ff ffff 00ff ffff 00ff ffff 00ff     ................
  4198c4:	ffff 00ff ffff 00ff ffff 00ff ffff 00ff     ................
  4198d4:	ffff 00ff ffff 00ff ffff 00ff ffff 00ff     ................
  4198e4:	ffff 00ff ffff 00ff ffff 00ff ffff 00ff     ................
  4198f4:	ffff 00ff ffff 00ff ffff 00ff ffff 00ff     ................
  419904:	ffff 00ff ffff 00ff ffff 00ff ffff 00ff     ................
  419914:	ffff 00ff ffff 00ff ffff 00ff ffff 00ff     ................
  419924:	ffff 00ff ffff 00ff ffff 00ff ffff 00ff     ................
  419934:	4587 0000 4587 0000 4587 0000 4587 0000     .E...E...E...E..
  419944:	4587 0000 4587 0000 4587 0000 4587 0000     .E...E...E...E..
  419954:	4587 0000 5a95 001e edf3 00e7 ffff 00ff     .E...Z..........
  419964:	dde9 00d0 4587 0000 4587 0000 4587 0000     .....E...E...E..
  419974:	4587 0000 4587 0000 4587 0000 4587 0000     .E...E...E...E..
  419984:	4587 0000 4587 0000 4587 0000 4587 0000     .E...E...E...E..
  419994:	4587 0000 4587 0000 4587 0000 4587 0000     .E...E...E...E..
  4199a4:	4587 0000 5a95 001e aecb 0090 f2f7 00ed     .E...Z..........
  4199b4:	ffff 00ff ffff 00ff ffff 00ff ffff 00ff     ................
  4199c4:	ffff 00ff ffff 00ff ffff 00ff ffff 00ff     ................
  4199d4:	ffff 00ff ffff 00ff ffff 00ff ffff 00ff     ................
  4199e4:	ffff 00ff ffff 00ff ffff 00ff ffff 00ff     ................
  4199f4:	ffff 00ff ffff 00ff ffff 00ff feff 00fe     ................
  419a04:	d2e2 00c1 80ad 0051 4587 0001 4587 0000     ......Q..E...E..
  419a14:	4587 0000 4587 0000 4587 0000 4587 0000     .E...E...E...E..
  419a24:	4587 0000 4587 0000 4587 0000 4587 0000     .E...E...E...E..
  419a34:	4587 0000 4587 0000 4587 0000 4587 0000     .E...E...E...E..
  419a44:	4587 0000 4587 0000 83af 0055 ffff 00ff     .E...E....U.....
  419a54:	ffff 00ff 9dbf 007a 4587 0000 4587 0000     ......z..E...E..
  419a64:	4587 0000 4587 0000 4587 0000 4587 0000     .E...E...E...E..
  419a74:	4587 0000 4587 0000 4587 0000 a5c5 0083     .E...E...E......
  419a84:	ffff 00ff ffff 00ff ffff 00ff ffff 00ff     ................
  419a94:	ffff 00ff ffff 00ff ffff 00ff ffff 00ff     ................
  419aa4:	ffff 00ff ffff 00ff ffff 00ff ffff 00ff     ................
  419ab4:	ffff 00ff ffff 00ff ffff 00ff ffff 00ff     ................
  419ac4:	ffff 00ff ffff 00ff ffff 00ff ffff 00ff     ................
  419ad4:	ffff 00ff ffff 00ff ffff 00ff ffff 00ff     ................
  419ae4:	ffff 00ff ffff 00ff ffff 00ff ffff 00ff     ................
  419af4:	ffff 00ff ffff 00ff ffff 00ff ffff 00ff     ................
  419b04:	ffff 00ff ffff 00ff ffff 00ff ffff 00ff     ................
  419b14:	ffff 00ff ffff 00ff ffff 00ff ffff 00ff     ................
  419b24:	ffff 00ff ffff 00ff ffff 00ff ffff 00ff     ................
  419b34:	ffff 00ff ffff 00ff ffff 00ff ffff 00ff     ................
  419b44:	ffff 00ff ffff 00ff ffff 00ff ffff 00ff     ................
  419b54:	ffff 00ff ffff 00ff ffff 00ff ffff 00ff     ................
  419b64:	ffff 00ff ffff 00ff ffff 00ff ffff 00ff     ................
  419b74:	ffff 00ff ffff 00ff ffff 00ff ffff 00ff     ................
  419b84:	ffff 00ff ffff 00ff ffff 00ff ffff 00ff     ................
  419b94:	ffff 00ff ffff 00ff ffff 00ff ffff 00ff     ................
  419ba4:	ffff 00ff ffff 00ff ffff 00ff ffff 00ff     ................
  419bb4:	ffff 00ff ffff 00ff ffff 00ff ffff 00ff     ................
  419bc4:	ffff 00ff ffff 00ff ffff 00ff ffff 00ff     ................
  419bd4:	ffff 00ff ffff 00ff ffff 00ff ffff 00ff     ................
  419be4:	ffff 00ff ffff 00ff ffff 00ff ffff 00ff     ................
  419bf4:	ffff 00ff ffff 00ff ffff 00ff ffff 00ff     ................
  419c04:	ffff 00ff ffff 00ff ffff 00ff ffff 00ff     ................
  419c14:	ffff 00ff ffff 00ff ffff 00ff ffff 00ff     ................
  419c24:	ffff 00ff ffff 00ff ffff 00ff ffff 00ff     ................
  419c34:	ffff 00ff ffff 00ff ffff 00ff ffff 00ff     ................
  419c44:	ffff 00ff ffff 00ff ffff 00ff ffff 00ff     ................
  419c54:	ffff 00ff ffff 00ff ffff 00ff ffff 00ff     ................
  419c64:	ffff 00ff ffff 00ff ffff 00ff ffff 00ff     ................
  419c74:	ffff 00ff ffff 00ff ffff 00ff ffff 00ff     ................
  419c84:	ffff 00ff ffff 00ff ffff 00ff ffff 00ff     ................
  419c94:	ffff 00ff ffff 00ff ffff 00ff ffff 00ff     ................
  419ca4:	ffff 00ff ffff 00ff ffff 00ff ffff 00ff     ................
  419cb4:	ffff 00ff ffff 00ff ffff 00ff ffff 00ff     ................
  419cc4:	ffff 00ff ffff 00ff ffff 00ff ffff 00ff     ................
  419cd4:	ffff 00ff ffff 00ff ffff 00ff ffff 00ff     ................
  419ce4:	ffff 00ff ffff 00ff ffff 00ff ffff 00ff     ................
  419cf4:	4587 0000 4587 0000 4587 0000 4587 0000     .E...E...E...E..
  419d04:	4587 0000 4587 0000 4587 0000 4587 0000     .E...E...E...E..
  419d14:	4587 0000 4587 0000 659c 002d f3f7 00ee     .E...E...e-.....
  419d24:	dde9 00d0 4587 0000 4587 0000 4587 0000     .....E...E...E..
  419d34:	4587 0000 4587 0000 4587 0000 4587 0000     .E...E...E...E..
  419d44:	4587 0000 4587 0000 4587 0000 4587 0000     .E...E...E...E..
  419d54:	4587 0000 4587 0000 4587 0000 4587 0000     .E...E...E...E..
  419d64:	4587 0000 4587 0000 4587 0000 4a8a 0007     .E...E...E...J..
  419d74:	80ad 0051 bfd5 00a7 eef3 00e8 ffff 00ff     ..Q.............
  419d84:	ffff 00ff ffff 00ff ffff 00ff ffff 00ff     ................
  419d94:	ffff 00ff ffff 00ff ffff 00ff ffff 00ff     ................
  419da4:	ffff 00ff ffff 00ff ffff 00ff ffff 00ff     ................
  419db4:	fcfd 00fb d4e3 00c5 9fc0 007b 5c96 0020     ..........{..\ .
  419dc4:	4587 0000 4587 0000 4587 0000 4587 0000     .E...E...E...E..
  419dd4:	4587 0000 4587 0000 4587 0000 4587 0000     .E...E...E...E..
  419de4:	4587 0000 4587 0000 4587 0000 4587 0000     .E...E...E...E..
  419df4:	4587 0000 4587 0000 4587 0000 4587 0000     .E...E...E...E..
  419e04:	4587 0000 4587 0000 83af 0055 ffff 00ff     .E...E....U.....
  419e14:	b3ce 0097 4587 0000 4587 0000 4587 0000     .....E...E...E..
  419e24:	4587 0000 4587 0000 4587 0000 4587 0000     .E...E...E...E..
  419e34:	4587 0000 4587 0000 4587 0000 a5c5 0083     .E...E...E......
  419e44:	ffff 00ff ffff 00ff ffff 00ff ffff 00ff     ................
  419e54:	ffff 00ff ffff 00ff ffff 00ff ffff 00ff     ................
  419e64:	ffff 00ff ffff 00ff ffff 00ff ffff 00ff     ................
  419e74:	ffff 00ff ffff 00ff ffff 00ff ffff 00ff     ................
  419e84:	ffff 00ff ffff 00ff ffff 00ff ffff 00ff     ................
  419e94:	ffff 00ff ffff 00ff ffff 00ff ffff 00ff     ................
  419ea4:	ffff 00ff ffff 00ff ffff 00ff ffff 00ff     ................
  419eb4:	ffff 00ff ffff 00ff ffff 00ff ffff 00ff     ................
  419ec4:	ffff 00ff ffff 00ff ffff 00ff ffff 00ff     ................
  419ed4:	ffff 00ff ffff 00ff ffff 00ff ffff 00ff     ................
  419ee4:	ffff 00ff ffff 00ff ffff 00ff ffff 00ff     ................
  419ef4:	ffff 00ff ffff 00ff ffff 00ff ffff 00ff     ................
  419f04:	ffff 00ff ffff 00ff ffff 00ff ffff 00ff     ................
  419f14:	ffff 00ff ffff 00ff ffff 00ff ffff 00ff     ................
  419f24:	ffff 00ff ffff 00ff ffff 00ff ffff 00ff     ................
  419f34:	ffff 00ff ffff 00ff ffff 00ff ffff 00ff     ................
  419f44:	ffff 00ff ffff 00ff ffff 00ff ffff 00ff     ................
  419f54:	ffff 00ff ffff 00ff ffff 00ff ffff 00ff     ................
  419f64:	ffff 00ff ffff 00ff ffff 00ff ffff 00ff     ................
  419f74:	ffff 00ff ffff 00ff ffff 00ff ffff 00ff     ................
  419f84:	ffff 00ff ffff 00ff ffff 00ff ffff 00ff     ................
  419f94:	ffff 00ff ffff 00ff ffff 00ff ffff 00ff     ................
  419fa4:	ffff 00ff ffff 00ff ffff 00ff ffff 00ff     ................
  419fb4:	ffff 00ff ffff 00ff ffff 00ff ffff 00ff     ................
  419fc4:	ffff 00ff ffff 00ff ffff 00ff ffff 00ff     ................
  419fd4:	ffff 00ff ffff 00ff ffff 00ff ffff 00ff     ................
  419fe4:	ffff 00ff ffff 00ff ffff 00ff ffff 00ff     ................
  419ff4:	ffff 00ff ffff 00ff ffff 00ff ffff 00ff     ................
  41a004:	ffff 00ff ffff 00ff ffff 00ff ffff 00ff     ................
  41a014:	ffff 00ff ffff 00ff ffff 00ff ffff 00ff     ................
  41a024:	ffff 00ff ffff 00ff ffff 00ff ffff 00ff     ................
  41a034:	ffff 00ff ffff 00ff ffff 00ff ffff 00ff     ................
  41a044:	ffff 00ff ffff 00ff ffff 00ff ffff 00ff     ................
  41a054:	ffff 00ff ffff 00ff ffff 00ff ffff 00ff     ................
  41a064:	ffff 00ff ffff 00ff ffff 00ff ffff 00ff     ................
  41a074:	ffff 00ff ffff 00ff ffff 00ff ffff 00ff     ................
  41a084:	ffff 00ff ffff 00ff ffff 00ff ffff 00ff     ................
  41a094:	ffff 00ff ffff 00ff ffff 00ff ffff 00ff     ................
  41a0a4:	ffff 00ff ffff 00ff ffff 00ff ffff 00ff     ................
  41a0b4:	4587 0000 4587 0000 4587 0000 4587 0000     .E...E...E...E..
  41a0c4:	4587 0000 4587 0000 4587 0000 4587 0000     .E...E...E...E..
  41a0d4:	4587 0000 4587 0000 4587 0000 6fa1 0039     .E...E...E...o9.
  41a0e4:	d7e4 00c8 4587 0000 4587 0000 4587 0000     .....E...E...E..
  41a0f4:	4587 0000 4587 0000 4587 0000 4587 0000     .E...E...E...E..
  41a104:	4587 0000 4587 0000 4587 0000 4587 0000     .E...E...E...E..
  41a114:	4587 0000 4587 0000 4587 0000 4587 0000     .E...E...E...E..
  41a124:	4587 0000 4587 0000 4587 0000 4587 0000     .E...E...E...E..
  41a134:	4587 0000 4587 0000 4587 0001 649b 002b     .E...E...E...d+.
  41a144:	8bb4 0060 a7c7 0087 c2d8 00ad d3e3 00c3     ..`.............
  41a154:	dde9 00d0 e6ef 00dd e3ec 00d8 d9e6 00cb     ................
  41a164:	cadd 00b8 b5cf 0099 98bd 0072 78a7 0047     ..........r..xG.
  41a174:	4d8c 000c 4587 0000 4587 0000 4587 0000     .M...E...E...E..
  41a184:	4587 0000 4587 0000 4587 0000 4587 0000     .E...E...E...E..
  41a194:	4587 0000 4587 0000 4587 0000 4587 0000     .E...E...E...E..
  41a1a4:	4587 0000 4587 0000 4587 0000 4587 0000     .E...E...E...E..
  41a1b4:	4587 0000 4587 0000 4587 0000 4587 0000     .E...E...E...E..
  41a1c4:	4587 0000 4587 0000 83af 0055 c4d9 00af     .E...E....U.....
  41a1d4:	4788 0003 4587 0000 4587 0000 4587 0000     .G...E...E...E..
  41a1e4:	4587 0000 4587 0000 4587 0000 4587 0000     .E...E...E...E..
  41a1f4:	4587 0000 4587 0000 4587 0000 a5c5 0083     .E...E...E......
  41a204:	ffff 00ff ffff 00ff ffff 00ff ffff 00ff     ................
  41a214:	ffff 00ff ffff 00ff ffff 00ff ffff 00ff     ................
  41a224:	ffff 00ff ffff 00ff ffff 00ff ffff 00ff     ................
  41a234:	ffff 00ff ffff 00ff ffff 00ff ffff 00ff     ................
  41a244:	ffff 00ff ffff 00ff ffff 00ff ffff 00ff     ................
  41a254:	ffff 00ff ffff 00ff ffff 00ff ffff 00ff     ................
  41a264:	ffff 00ff ffff 00ff ffff 00ff ffff 00ff     ................
  41a274:	ffff 00ff ffff 00ff ffff 00ff ffff 00ff     ................
  41a284:	ffff 00ff ffff 00ff ffff 00ff ffff 00ff     ................
  41a294:	ffff 00ff ffff 00ff ffff 00ff ffff 00ff     ................
  41a2a4:	ffff 00ff ffff 00ff ffff 00ff ffff 00ff     ................
  41a2b4:	ffff 00ff ffff 00ff ffff 00ff ffff 00ff     ................
  41a2c4:	ffff 00ff ffff 00ff ffff 00ff ffff 00ff     ................
  41a2d4:	ffff 00ff ffff 00ff ffff 00ff ffff 00ff     ................
  41a2e4:	ffff 00ff ffff 00ff ffff 00ff ffff 00ff     ................
  41a2f4:	ffff 00ff ffff 00ff ffff 00ff ffff 00ff     ................
  41a304:	ffff 00ff ffff 00ff ffff 00ff ffff 00ff     ................
  41a314:	ffff 00ff ffff 00ff ffff 00ff ffff 00ff     ................
  41a324:	ffff 00ff ffff 00ff ffff 00ff ffff 00ff     ................
  41a334:	ffff 00ff ffff 00ff ffff 00ff ffff 00ff     ................
  41a344:	ffff 00ff ffff 00ff ffff 00ff ffff 00ff     ................
  41a354:	ffff 00ff ffff 00ff ffff 00ff ffff 00ff     ................
  41a364:	ffff 00ff ffff 00ff ffff 00ff ffff 00ff     ................
  41a374:	ffff 00ff ffff 00ff ffff 00ff ffff 00ff     ................
  41a384:	ffff 00ff ffff 00ff ffff 00ff ffff 00ff     ................
  41a394:	ffff 00ff ffff 00ff ffff 00ff ffff 00ff     ................
  41a3a4:	ffff 00ff ffff 00ff ffff 00ff ffff 00ff     ................
  41a3b4:	ffff 00ff ffff 00ff ffff 00ff ffff 00ff     ................
  41a3c4:	ffff 00ff ffff 00ff ffff 00ff ffff 00ff     ................
  41a3d4:	ffff 00ff ffff 00ff ffff 00ff ffff 00ff     ................
  41a3e4:	ffff 00ff ffff 00ff ffff 00ff ffff 00ff     ................
  41a3f4:	ffff 00ff ffff 00ff ffff 00ff ffff 00ff     ................
  41a404:	ffff 00ff ffff 00ff ffff 00ff ffff 00ff     ................
  41a414:	ffff 00ff ffff 00ff ffff 00ff ffff 00ff     ................
  41a424:	ffff 00ff ffff 00ff ffff 00ff ffff 00ff     ................
  41a434:	ffff 00ff ffff 00ff ffff 00ff ffff 00ff     ................
  41a444:	ffff 00ff ffff 00ff ffff 00ff ffff 00ff     ................
  41a454:	ffff 00ff ffff 00ff ffff 00ff ffff 00ff     ................
  41a464:	ffff 00ff ffff 00ff ffff 00ff ffff 00ff     ................
  41a474:	4587 0000 4587 0000 4587 0000 4587 0000     .E...E...E...E..
  41a484:	4587 0000 4587 0000 4587 0000 4587 0000     .E...E...E...E..
  41a494:	4587 0000 4587 0000 4587 0000 4587 0000     .E...E...E...E..
  41a4a4:	78a8 0048 c7dc 00b4 cddf 00bb cddf 00bb     .xH.............
  41a4b4:	cddf 00bb cddf 00bb cddf 00bb cddf 00bb     ................
  41a4c4:	cddf 00bb cddf 00bb cddf 00bb cddf 00bb     ................
  41a4d4:	cddf 00bb cddf 00bb cddf 00bb cddf 00bb     ................
  41a4e4:	cddf 00bb cddf 00bb cddf 00bb cddf 00bb     ................
  41a4f4:	cddf 00bb cddf 00bb cddf 00bb cddf 00bb     ................
  41a504:	cddf 00bb cddf 00bb cddf 00bb cddf 00bb     ................
  41a514:	cddf 00bb cddf 00bb cddf 00bb cddf 00bb     ................
  41a524:	cddf 00bb cddf 00bb cddf 00bb cddf 00bb     ................
  41a534:	cddf 00bb cddf 00bb cddf 00bb cddf 00bb     ................
  41a544:	cddf 00bb cddf 00bb cddf 00bb cddf 00bb     ................
  41a554:	cddf 00bb cddf 00bb cddf 00bb cddf 00bb     ................
  41a564:	cddf 00bb cddf 00bb cddf 00bb cddf 00bb     ................
  41a574:	cddf 00bb cddf 00bb cddf 00bb cddf 00bb     ................
  41a584:	cddf 00bb cddf 00bb b0cd 0094 4a8a 0007     .............J..
  41a594:	4587 0000 4587 0000 4587 0000 4587 0000     .E...E...E...E..
  41a5a4:	4587 0000 4587 0000 4587 0000 4587 0000     .E...E...E...E..
  41a5b4:	4587 0000 4587 0000 4587 0000 a5c5 0083     .E...E...E......
  41a5c4:	ffff 00ff ffff 00ff ffff 00ff ffff 00ff     ................
  41a5d4:	ffff 00ff ffff 00ff ffff 00ff ffff 00ff     ................
  41a5e4:	ffff 00ff ffff 00ff ffff 00ff ffff 00ff     ................
  41a5f4:	ffff 00ff ffff 00ff ffff 00ff ffff 00ff     ................
  41a604:	ffff 00ff ffff 00ff ffff 00ff ffff 00ff     ................
  41a614:	ffff 00ff ffff 00ff ffff 00ff ffff 00ff     ................
  41a624:	ffff 00ff ffff 00ff ffff 00ff ffff 00ff     ................
  41a634:	ffff 00ff ffff 00ff ffff 00ff ffff 00ff     ................
  41a644:	ffff 00ff ffff 00ff ffff 00ff ffff 00ff     ................
  41a654:	ffff 00ff ffff 00ff ffff 00ff ffff 00ff     ................
  41a664:	ffff 00ff ffff 00ff ffff 00ff ffff 00ff     ................
  41a674:	ffff 00ff ffff 00ff ffff 00ff ffff 00ff     ................
  41a684:	ffff 00ff ffff 00ff ffff 00ff ffff 00ff     ................
  41a694:	ffff 00ff ffff 00ff ffff 00ff ffff 00ff     ................
  41a6a4:	ffff 00ff ffff 00ff ffff 00ff ffff 00ff     ................
  41a6b4:	ffff 00ff ffff 00ff ffff 00ff ffff 00ff     ................
  41a6c4:	ffff 00ff ffff 00ff ffff 00ff ffff 00ff     ................
  41a6d4:	ffff 00ff ffff 00ff ffff 00ff ffff 00ff     ................
  41a6e4:	ffff 00ff ffff 00ff ffff 00ff ffff 00ff     ................
  41a6f4:	ffff 00ff ffff 00ff ffff 00ff ffff 00ff     ................
  41a704:	ffff 00ff ffff 00ff ffff 00ff ffff 00ff     ................
  41a714:	ffff 00ff ffff 00ff ffff 00ff ffff 00ff     ................
  41a724:	ffff 00ff ffff 00ff ffff 00ff ffff 00ff     ................
  41a734:	ffff 00ff ffff 00ff ffff 00ff ffff 00ff     ................
  41a744:	ffff 00ff ffff 00ff ffff 00ff ffff 00ff     ................
  41a754:	ffff 00ff ffff 00ff ffff 00ff ffff 00ff     ................
  41a764:	ffff 00ff ffff 00ff ffff 00ff ffff 00ff     ................
  41a774:	ffff 00ff ffff 00ff ffff 00ff ffff 00ff     ................
  41a784:	ffff 00ff ffff 00ff ffff 00ff ffff 00ff     ................
  41a794:	ffff 00ff ffff 00ff ffff 00ff ffff 00ff     ................
  41a7a4:	ffff 00ff ffff 00ff ffff 00ff ffff 00ff     ................
  41a7b4:	ffff 00ff ffff 00ff ffff 00ff ffff 00ff     ................
  41a7c4:	ffff 00ff ffff 00ff ffff 00ff ffff 00ff     ................
  41a7d4:	ffff 00ff ffff 00ff ffff 00ff ffff 00ff     ................
  41a7e4:	ffff 00ff ffff 00ff ffff 00ff ffff 00ff     ................
  41a7f4:	ffff 00ff ffff 00ff ffff 00ff ffff 00ff     ................
  41a804:	ffff 00ff ffff 00ff ffff 00ff ffff 00ff     ................
  41a814:	ffff 00ff ffff 00ff ffff 00ff ffff 00ff     ................
  41a824:	ffff 00ff ffff 00ff ffff 00ff ffff 00ff     ................
  41a834:	4587 0000 4587 0000 4587 0000 4587 0000     .E...E...E...E..
  41a844:	4587 0000 4587 0000 4587 0000 4587 0000     .E...E...E...E..
  41a854:	4587 0000 4587 0000 4587 0000 4587 0000     .E...E...E...E..
  41a864:	4587 0000 6da1 0038 f0f5 00ec ffff 00ff     .E...m8.........
  41a874:	ffff 00ff ffff 00ff ffff 00ff ffff 00ff     ................
  41a884:	ffff 00ff ffff 00ff ffff 00ff ffff 00ff     ................
  41a894:	ffff 00ff ffff 00ff ffff 00ff ffff 00ff     ................
  41a8a4:	ffff 00ff ffff 00ff ffff 00ff ffff 00ff     ................
  41a8b4:	ffff 00ff ffff 00ff ffff 00ff ffff 00ff     ................
  41a8c4:	ffff 00ff ffff 00ff ffff 00ff ffff 00ff     ................
  41a8d4:	ffff 00ff ffff 00ff ffff 00ff ffff 00ff     ................
  41a8e4:	ffff 00ff ffff 00ff ffff 00ff ffff 00ff     ................
  41a8f4:	ffff 00ff ffff 00ff ffff 00ff ffff 00ff     ................
  41a904:	ffff 00ff ffff 00ff ffff 00ff ffff 00ff     ................
  41a914:	ffff 00ff ffff 00ff ffff 00ff ffff 00ff     ................
  41a924:	ffff 00ff ffff 00ff ffff 00ff ffff 00ff     ................
  41a934:	ffff 00ff ffff 00ff ffff 00ff ffff 00ff     ................
  41a944:	ffff 00ff bad3 00a1 4889 0005 4587 0000     .........H...E..
  41a954:	4587 0000 4587 0000 4587 0000 4587 0000     .E...E...E...E..
  41a964:	4587 0000 4587 0000 4587 0000 4587 0000     .E...E...E...E..
  41a974:	4587 0000 4587 0000 4587 0000 a5c5 0083     .E...E...E......
  41a984:	ffff 00ff ffff 00ff ffff 00ff ffff 00ff     ................
  41a994:	ffff 00ff ffff 00ff ffff 00ff ffff 00ff     ................
  41a9a4:	ffff 00ff ffff 00ff ffff 00ff ffff 00ff     ................
  41a9b4:	ffff 00ff ffff 00ff ffff 00ff ffff 00ff     ................
  41a9c4:	ffff 00ff ffff 00ff ffff 00ff cadc 00b6     ................
  41a9d4:	b0cd 0094 b0cd 0094 b0cd 0094 b0cd 0094     ................
  41a9e4:	b0cd 0094 b0cd 0094 b0cd 0094 b0cd 0094     ................
  41a9f4:	b0cd 0094 b0cd 0094 b0cd 0094 b0cd 0094     ................
  41aa04:	b0cd 0094 b0cd 0094 b0cd 0094 b0cd 0094     ................
  41aa14:	b0cd 0094 b0cd 0094 b0cd 0094 b0cd 0094     ................
  41aa24:	b0cd 0094 b0cd 0094 b0cd 0094 b0cd 0094     ................
  41aa34:	b0cd 0094 b0cd 0094 b0cd 0094 b0cd 0094     ................
  41aa44:	b0cd 0094 b0cd 0094 b0cd 0094 b0cd 0094     ................
  41aa54:	b0cd 0094 b0cd 0094 b0cd 0094 b0cd 0094     ................
  41aa64:	b0cd 0094 b0cd 0094 b0cd 0094 b0cd 0094     ................
  41aa74:	b0cd 0094 b0cd 0094 b0cd 0094 b0cd 0094     ................
  41aa84:	b0cd 0094 b0cd 0094 b0cd 0094 b0cd 0094     ................
  41aa94:	b0cd 0094 b0cd 0094 b0cd 0094 b0cd 0094     ................
  41aaa4:	b0cd 0094 b0cd 0094 b0cd 0094 b0cd 0094     ................
  41aab4:	b0cd 0094 b0cd 0094 b0cd 0094 b0cd 0094     ................
  41aac4:	b0cd 0094 b0cd 0094 b0cd 0094 b0cd 0094     ................
  41aad4:	b0cd 0094 b0cd 0094 b0cd 0094 b0cd 0094     ................
  41aae4:	b0cd 0094 b0cd 0094 b0cd 0094 b0cd 0094     ................
  41aaf4:	b0cd 0094 b0cd 0094 b0cd 0094 b0cd 0094     ................
  41ab04:	b0cd 0094 b0cd 0094 b0cd 0094 b0cd 0094     ................
  41ab14:	b0cd 0094 b0cd 0094 b0cd 0094 b0cd 0094     ................
  41ab24:	b0cd 0094 b0cd 0094 b0cd 0094 b0cd 0094     ................
  41ab34:	b0cd 0094 b0cd 0094 b0cd 0094 b0cd 0094     ................
  41ab44:	b0cd 0094 b0cd 0094 b0cd 0094 b0cd 0094     ................
  41ab54:	b0cd 0094 b0cd 0094 b0cd 0094 b0cd 0094     ................
  41ab64:	b0cd 0094 b0cd 0094 b0cd 0094 b0cd 0094     ................
  41ab74:	b0cd 0094 b0cd 0094 b0cd 0094 b0cd 0094     ................
  41ab84:	b0cd 0094 b0cd 0094 b0cd 0094 b0cd 0094     ................
  41ab94:	b0cd 0094 b0cd 0094 b0cd 0094 b0cd 0094     ................
  41aba4:	b0cd 0094 b0cd 0094 b0cd 0094 b0cd 0094     ................
  41abb4:	b0cd 0094 b0cd 0094 b0cd 0094 b0cd 0094     ................
  41abc4:	b0cd 0094 b0cd 0094 b0cd 0094 b0cd 0094     ................
  41abd4:	b0cd 0094 b0cd 0094 b0cd 0094 b0cd 0094     ................
  41abe4:	b0cd 0094 b0cd 0094 b0cd 0094 b0cd 0094     ................
  41abf4:	4587 0000 4587 0000 4587 0000 4587 0000     .E...E...E...E..
  41ac04:	4587 0000 4587 0000 4587 0000 4587 0000     .E...E...E...E..
  41ac14:	4587 0000 4587 0000 4587 0000 4587 0000     .E...E...E...E..
  41ac24:	4587 0000 4587 0000 639a 002a e9f1 00e2     .E...E...c*.....
  41ac34:	ffff 00ff ffff 00ff ffff 00ff ffff 00ff     ................
  41ac44:	ffff 00ff ffff 00ff ffff 00ff ffff 00ff     ................
  41ac54:	ffff 00ff ffff 00ff ffff 00ff ffff 00ff     ................
  41ac64:	ffff 00ff ffff 00ff ffff 00ff ffff 00ff     ................
  41ac74:	ffff 00ff ffff 00ff ffff 00ff ffff 00ff     ................
  41ac84:	ffff 00ff ffff 00ff ffff 00ff ffff 00ff     ................
  41ac94:	ffff 00ff ffff 00ff ffff 00ff ffff 00ff     ................
  41aca4:	ffff 00ff ffff 00ff ffff 00ff ffff 00ff     ................
  41acb4:	ffff 00ff ffff 00ff ffff 00ff ffff 00ff     ................
  41acc4:	ffff 00ff ffff 00ff ffff 00ff ffff 00ff     ................
  41acd4:	ffff 00ff ffff 00ff ffff 00ff ffff 00ff     ................
  41ace4:	ffff 00ff ffff 00ff ffff 00ff ffff 00ff     ................
  41acf4:	ffff 00ff ffff 00ff ffff 00ff ffff 00ff     ................
  41ad04:	aecb 0090 4587 0001 4587 0000 4587 0000     .....E...E...E..
  41ad14:	4587 0000 4587 0000 4587 0000 4587 0000     .E...E...E...E..
  41ad24:	4587 0000 4587 0000 4587 0000 4587 0000     .E...E...E...E..
  41ad34:	4587 0000 4587 0000 4587 0000 a5c5 0083     .E...E...E......
  41ad44:	ffff 00ff ffff 00ff ffff 00ff ffff 00ff     ................
  41ad54:	ffff 00ff ffff 00ff ffff 00ff ffff 00ff     ................
  41ad64:	ffff 00ff ffff 00ff ffff 00ff ffff 00ff     ................
  41ad74:	ffff 00ff ffff 00ff ffff 00ff ffff 00ff     ................
  41ad84:	ffff 00ff ffff 00ff ffff 00ff 7fac 004f     ..............O.
  41ad94:	4587 0000 4587 0000 4587 0000 4587 0000     .E...E...E...E..
  41ada4:	4587 0000 4587 0000 4587 0000 4587 0000     .E...E...E...E..
  41adb4:	4587 0000 4587 0000 4587 0000 4587 0000     .E...E...E...E..
  41adc4:	4587 0000 4587 0000 4587 0000 4587 0000     .E...E...E...E..
  41add4:	4587 0000 4587 0000 4587 0000 4587 0000     .E...E...E...E..
  41ade4:	4587 0000 4587 0000 4587 0000 4587 0000     .E...E...E...E..
  41adf4:	4587 0000 4587 0000 4587 0000 4587 0000     .E...E...E...E..
  41ae04:	4587 0000 4587 0000 4587 0000 4587 0000     .E...E...E...E..
  41ae14:	4587 0000 4587 0000 4587 0000 4587 0000     .E...E...E...E..
  41ae24:	4587 0000 4587 0000 4587 0000 4587 0000     .E...E...E...E..
  41ae34:	4587 0000 4587 0000 4587 0000 4587 0000     .E...E...E...E..
  41ae44:	4587 0000 4587 0000 4587 0000 4587 0000     .E...E...E...E..
  41ae54:	4587 0000 4587 0000 4587 0000 4587 0000     .E...E...E...E..
  41ae64:	4587 0000 4587 0000 4587 0000 4587 0000     .E...E...E...E..
  41ae74:	4587 0000 4587 0000 4587 0000 4587 0000     .E...E...E...E..
  41ae84:	4587 0000 4587 0000 4587 0000 4587 0000     .E...E...E...E..
  41ae94:	4587 0000 4587 0000 4587 0000 4587 0000     .E...E...E...E..
  41aea4:	4587 0000 4587 0000 4587 0000 4587 0000     .E...E...E...E..
  41aeb4:	4587 0000 4587 0000 4587 0000 4587 0000     .E...E...E...E..
  41aec4:	4587 0000 4587 0000 4587 0000 4587 0000     .E...E...E...E..
  41aed4:	4587 0000 4587 0000 4587 0000 4587 0000     .E...E...E...E..
  41aee4:	4587 0000 4587 0000 4587 0000 4587 0000     .E...E...E...E..
  41aef4:	4587 0000 4587 0000 4587 0000 4587 0000     .E...E...E...E..
  41af04:	4587 0000 4587 0000 4587 0000 4587 0000     .E...E...E...E..
  41af14:	4587 0000 4587 0000 4587 0000 4587 0000     .E...E...E...E..
  41af24:	4587 0000 4587 0000 4587 0000 4587 0000     .E...E...E...E..
  41af34:	4587 0000 4587 0000 4587 0000 4587 0000     .E...E...E...E..
  41af44:	4587 0000 4587 0000 4587 0000 4587 0000     .E...E...E...E..
  41af54:	4587 0000 4587 0000 4587 0000 4587 0000     .E...E...E...E..
  41af64:	4587 0000 4587 0000 4587 0000 4587 0000     .E...E...E...E..
  41af74:	4587 0000 4587 0000 4587 0000 4587 0000     .E...E...E...E..
  41af84:	4587 0000 4587 0000 4587 0000 4587 0000     .E...E...E...E..
  41af94:	4587 0000 4587 0000 4587 0000 4587 0000     .E...E...E...E..
  41afa4:	4587 0000 4587 0000 4587 0000 4587 0000     .E...E...E...E..
  41afb4:	4587 0000 4587 0000 4587 0000 4587 0000     .E...E...E...E..
  41afc4:	4587 0000 4587 0000 4587 0000 4587 0000     .E...E...E...E..
  41afd4:	4587 0000 4587 0000 4587 0000 4587 0000     .E...E...E...E..
  41afe4:	4587 0000 4587 0000 4587 0000 5793 001a     .E...E...E...W..
  41aff4:	d0e0 00bf ffff 00ff ffff 00ff ffff 00ff     ................
  41b004:	ffff 00ff ffff 00ff ffff 00ff ffff 00ff     ................
  41b014:	ffff 00ff ffff 00ff ffff 00ff ffff 00ff     ................
  41b024:	ffff 00ff ffff 00ff ffff 00ff ffff 00ff     ................
  41b034:	ffff 00ff ffff 00ff ffff 00ff ffff 00ff     ................
  41b044:	ffff 00ff ffff 00ff ffff 00ff ffff 00ff     ................
  41b054:	ffff 00ff ffff 00ff ffff 00ff ffff 00ff     ................
  41b064:	ffff 00ff ffff 00ff ffff 00ff ffff 00ff     ................
  41b074:	ffff 00ff ffff 00ff ffff 00ff ffff 00ff     ................
  41b084:	ffff 00ff ffff 00ff ffff 00ff ffff 00ff     ................
  41b094:	ffff 00ff ffff 00ff ffff 00ff ffff 00ff     ................
  41b0a4:	ffff 00ff ffff 00ff ffff 00ff ffff 00ff     ................
  41b0b4:	ffff 00ff ffff 00ff f6f9 00f3 86b1 005b     ..............[.
  41b0c4:	4587 0000 4587 0000 4587 0000 4587 0000     .E...E...E...E..
  41b0d4:	4587 0000 4587 0000 4587 0000 4587 0000     .E...E...E...E..
  41b0e4:	4587 0000 4587 0000 4587 0000 4587 0000     .E...E...E...E..
  41b0f4:	4587 0000 4587 0000 4587 0000 a5c5 0083     .E...E...E......
  41b104:	ffff 00ff ffff 00ff ffff 00ff ffff 00ff     ................
  41b114:	ffff 00ff ffff 00ff ffff 00ff ffff 00ff     ................
  41b124:	ffff 00ff ffff 00ff ffff 00ff ffff 00ff     ................
  41b134:	ffff 00ff ffff 00ff ffff 00ff ffff 00ff     ................
  41b144:	ffff 00ff ffff 00ff ffff 00ff 7fac 004f     ..............O.
  41b154:	4587 0000 4587 0000 4587 0000 4587 0000     .E...E...E...E..
  41b164:	4587 0000 4587 0000 4587 0000 4587 0000     .E...E...E...E..
  41b174:	4587 0000 4587 0000 4587 0000 4587 0000     .E...E...E...E..
  41b184:	4587 0000 4587 0000 4587 0000 4587 0000     .E...E...E...E..
  41b194:	4587 0000 4587 0000 4587 0000 4587 0000     .E...E...E...E..
  41b1a4:	4587 0000 4587 0000 4587 0000 4587 0000     .E...E...E...E..
  41b1b4:	4587 0000 4587 0000 4587 0000 4587 0000     .E...E...E...E..
  41b1c4:	4587 0000 4587 0000 4587 0000 4587 0000     .E...E...E...E..
  41b1d4:	4587 0000 4587 0000 4587 0000 4587 0000     .E...E...E...E..
  41b1e4:	4587 0000 4587 0000 4587 0000 4587 0000     .E...E...E...E..
  41b1f4:	4587 0000 4587 0000 4587 0000 4587 0000     .E...E...E...E..
  41b204:	4587 0000 4587 0000 4587 0000 4587 0000     .E...E...E...E..
  41b214:	4587 0000 4587 0000 4587 0000 4587 0000     .E...E...E...E..
  41b224:	4587 0000 4587 0000 4587 0000 4587 0000     .E...E...E...E..
  41b234:	4587 0000 4587 0000 4587 0000 4587 0000     .E...E...E...E..
  41b244:	4587 0000 4587 0000 4587 0000 4587 0000     .E...E...E...E..
  41b254:	4587 0000 4587 0000 4587 0000 4587 0000     .E...E...E...E..
  41b264:	4587 0000 4587 0000 4587 0000 4587 0000     .E...E...E...E..
  41b274:	4587 0000 4587 0000 4587 0000 4587 0000     .E...E...E...E..
  41b284:	4587 0000 4587 0000 4587 0000 4587 0000     .E...E...E...E..
  41b294:	4587 0000 4587 0000 4587 0000 4587 0000     .E...E...E...E..
  41b2a4:	4587 0000 4587 0000 4587 0000 4587 0000     .E...E...E...E..
  41b2b4:	4587 0000 4587 0000 4587 0000 4587 0000     .E...E...E...E..
  41b2c4:	4587 0000 4587 0000 4587 0000 4587 0000     .E...E...E...E..
  41b2d4:	4587 0000 4587 0000 4587 0000 4587 0000     .E...E...E...E..
  41b2e4:	4587 0000 4587 0000 4587 0000 4587 0000     .E...E...E...E..
  41b2f4:	4587 0000 4587 0000 4587 0000 4587 0000     .E...E...E...E..
  41b304:	4587 0000 4587 0000 4587 0000 4587 0000     .E...E...E...E..
  41b314:	4587 0000 4587 0000 4587 0000 4587 0000     .E...E...E...E..
  41b324:	4587 0000 4587 0000 4587 0000 4587 0000     .E...E...E...E..
  41b334:	4587 0000 4587 0000 4587 0000 4587 0000     .E...E...E...E..
  41b344:	4587 0000 4587 0000 4587 0000 4587 0000     .E...E...E...E..
  41b354:	4587 0000 4587 0000 4587 0000 4587 0000     .E...E...E...E..
  41b364:	4587 0000 4587 0000 4587 0000 4587 0000     .E...E...E...E..
  41b374:	4587 0000 4587 0000 4587 0000 4587 0000     .E...E...E...E..
  41b384:	4587 0000 4587 0000 4587 0000 4587 0000     .E...E...E...E..
  41b394:	4587 0000 4587 0000 4587 0000 4587 0000     .E...E...E...E..
  41b3a4:	4587 0000 4587 0000 4587 0000 4587 0000     .E...E...E...E..
  41b3b4:	4788 0003 a2c2 007f fdfe 00fc ffff 00ff     .G..............
  41b3c4:	ffff 00ff ffff 00ff ffff 00ff ffff 00ff     ................
  41b3d4:	ffff 00ff ffff 00ff ffff 00ff ffff 00ff     ................
  41b3e4:	ffff 00ff ffff 00ff ffff 00ff ffff 00ff     ................
  41b3f4:	ffff 00ff ffff 00ff ffff 00ff ffff 00ff     ................
  41b404:	ffff 00ff ffff 00ff ffff 00ff ffff 00ff     ................
  41b414:	ffff 00ff ffff 00ff ffff 00ff ffff 00ff     ................
  41b424:	ffff 00ff ffff 00ff ffff 00ff ffff 00ff     ................
  41b434:	ffff 00ff ffff 00ff ffff 00ff ffff 00ff     ................
  41b444:	ffff 00ff ffff 00ff ffff 00ff ffff 00ff     ................
  41b454:	ffff 00ff ffff 00ff ffff 00ff ffff 00ff     ................
  41b464:	ffff 00ff ffff 00ff ffff 00ff ffff 00ff     ................
  41b474:	ffff 00ff e0eb 00d5 649b 002b 4587 0000     .........d+..E..
  41b484:	4587 0000 4587 0000 4587 0000 4587 0000     .E...E...E...E..
  41b494:	4587 0000 4587 0000 4587 0000 4587 0000     .E...E...E...E..
  41b4a4:	4587 0000 4587 0000 4587 0000 4587 0000     .E...E...E...E..
  41b4b4:	4587 0000 4587 0000 4587 0000 a5c5 0083     .E...E...E......
  41b4c4:	ffff 00ff ffff 00ff ffff 00ff ffff 00ff     ................
  41b4d4:	ffff 00ff ffff 00ff ffff 00ff ffff 00ff     ................
  41b4e4:	ffff 00ff ffff 00ff ffff 00ff ffff 00ff     ................
  41b4f4:	ffff 00ff ffff 00ff ffff 00ff ffff 00ff     ................
  41b504:	ffff 00ff ffff 00ff ffff 00ff 7fac 004f     ..............O.
  41b514:	4587 0000 4587 0000 4587 0000 4587 0000     .E...E...E...E..
  41b524:	4587 0000 4587 0000 4587 0000 4587 0000     .E...E...E...E..
  41b534:	4587 0000 4587 0000 4587 0000 4587 0000     .E...E...E...E..
  41b544:	4587 0000 4587 0000 4587 0000 4587 0000     .E...E...E...E..
  41b554:	4587 0000 4587 0000 4587 0000 4587 0000     .E...E...E...E..
  41b564:	4587 0000 4587 0000 4587 0000 4587 0000     .E...E...E...E..
  41b574:	4587 0000 4587 0000 4587 0000 4587 0000     .E...E...E...E..
  41b584:	4587 0000 4587 0000 4587 0000 4587 0000     .E...E...E...E..
  41b594:	4587 0000 4587 0000 4587 0000 4587 0000     .E...E...E...E..
  41b5a4:	4587 0000 4587 0000 4587 0000 4587 0000     .E...E...E...E..
  41b5b4:	4587 0000 4587 0000 4587 0000 4587 0000     .E...E...E...E..
  41b5c4:	4587 0000 4587 0000 4587 0000 4587 0000     .E...E...E...E..
  41b5d4:	4587 0000 4587 0000 4587 0000 4587 0000     .E...E...E...E..
  41b5e4:	4587 0000 4587 0000 4587 0000 4587 0000     .E...E...E...E..
  41b5f4:	4587 0000 4587 0000 4587 0000 4587 0000     .E...E...E...E..
  41b604:	4587 0000 4587 0000 4587 0000 4587 0000     .E...E...E...E..
  41b614:	4587 0000 4587 0000 4587 0000 4587 0000     .E...E...E...E..
  41b624:	4587 0000 4587 0000 4587 0000 4587 0000     .E...E...E...E..
  41b634:	4587 0000 4587 0000 4587 0000 4587 0000     .E...E...E...E..
  41b644:	4587 0000 4587 0000 4587 0000 4587 0000     .E...E...E...E..
  41b654:	4587 0000 4587 0000 4587 0000 4587 0000     .E...E...E...E..
  41b664:	4587 0000 4587 0000 4587 0000 4587 0000     .E...E...E...E..
  41b674:	4587 0000 4587 0000 4587 0000 4587 0000     .E...E...E...E..
  41b684:	4587 0000 4587 0000 4587 0000 4587 0000     .E...E...E...E..
  41b694:	4587 0000 4587 0000 4587 0000 4587 0000     .E...E...E...E..
  41b6a4:	4587 0000 4587 0000 4587 0000 4587 0000     .E...E...E...E..
  41b6b4:	4587 0000 4587 0000 4587 0000 4587 0000     .E...E...E...E..
  41b6c4:	4587 0000 4587 0000 4587 0000 4587 0000     .E...E...E...E..
  41b6d4:	4587 0000 4587 0000 4587 0000 4587 0000     .E...E...E...E..
  41b6e4:	4587 0000 4587 0000 4587 0000 4587 0000     .E...E...E...E..
  41b6f4:	4587 0000 4587 0000 4587 0000 4587 0000     .E...E...E...E..
  41b704:	4587 0000 4587 0000 4587 0000 4587 0000     .E...E...E...E..
  41b714:	4587 0000 4587 0000 4587 0000 4587 0000     .E...E...E...E..
  41b724:	4587 0000 4587 0000 4587 0000 4587 0000     .E...E...E...E..
  41b734:	4587 0000 4587 0000 4587 0000 4587 0000     .E...E...E...E..
  41b744:	4587 0000 4587 0000 4587 0000 4587 0000     .E...E...E...E..
  41b754:	4587 0000 4587 0000 4587 0000 4587 0000     .E...E...E...E..
  41b764:	4587 0000 4587 0000 4587 0000 4587 0000     .E...E...E...E..
  41b774:	4587 0000 4587 0000 73a6 0041 e5ee 00db     .E...E...sA.....
  41b784:	ffff 00ff ffff 00ff ffff 00ff ffff 00ff     ................
  41b794:	ffff 00ff ffff 00ff ffff 00ff ffff 00ff     ................
  41b7a4:	ffff 00ff ffff 00ff ffff 00ff ffff 00ff     ................
  41b7b4:	ffff 00ff ffff 00ff ffff 00ff ffff 00ff     ................
  41b7c4:	ffff 00ff ffff 00ff ffff 00ff ffff 00ff     ................
  41b7d4:	ffff 00ff ffff 00ff ffff 00ff ffff 00ff     ................
  41b7e4:	ffff 00ff ffff 00ff ffff 00ff ffff 00ff     ................
  41b7f4:	ffff 00ff ffff 00ff ffff 00ff ffff 00ff     ................
  41b804:	ffff 00ff ffff 00ff ffff 00ff ffff 00ff     ................
  41b814:	ffff 00ff ffff 00ff ffff 00ff ffff 00ff     ................
  41b824:	ffff 00ff ffff 00ff ffff 00ff fcfd 00fb     ................
  41b834:	adc9 008e 4a8a 0008 4587 0000 4587 0000     .....J...E...E..
  41b844:	4587 0000 4587 0000 4587 0000 4587 0000     .E...E...E...E..
  41b854:	4587 0000 4587 0000 4587 0000 4587 0000     .E...E...E...E..
  41b864:	4587 0000 4587 0000 4587 0000 4587 0000     .E...E...E...E..
  41b874:	4587 0000 4587 0000 4587 0000 a5c5 0083     .E...E...E......
  41b884:	ffff 00ff ffff 00ff ffff 00ff ffff 00ff     ................
  41b894:	ffff 00ff ffff 00ff ffff 00ff ffff 00ff     ................
  41b8a4:	ffff 00ff ffff 00ff ffff 00ff ffff 00ff     ................
  41b8b4:	ffff 00ff ffff 00ff ffff 00ff ffff 00ff     ................
  41b8c4:	ffff 00ff ffff 00ff ffff 00ff 7fac 004f     ..............O.
  41b8d4:	4587 0000 4587 0000 4587 0000 4587 0000     .E...E...E...E..
  41b8e4:	4587 0000 4587 0000 4587 0000 4587 0000     .E...E...E...E..
  41b8f4:	4587 0000 4587 0000 4587 0000 4587 0000     .E...E...E...E..
  41b904:	4587 0000 4587 0000 4587 0000 4587 0000     .E...E...E...E..
  41b914:	4587 0000 4587 0000 4587 0000 4587 0000     .E...E...E...E..
  41b924:	4587 0000 4587 0000 4587 0000 4587 0000     .E...E...E...E..
  41b934:	4587 0000 4587 0000 4587 0000 4587 0000     .E...E...E...E..
  41b944:	4587 0000 4587 0000 4587 0000 4587 0000     .E...E...E...E..
  41b954:	4587 0000 4587 0000 4587 0000 4587 0000     .E...E...E...E..
  41b964:	4587 0000 4587 0000 4587 0000 4587 0000     .E...E...E...E..
  41b974:	4587 0000 4587 0000 4587 0000 4587 0000     .E...E...E...E..
  41b984:	4587 0000 4587 0000 4587 0000 4587 0000     .E...E...E...E..
  41b994:	4587 0000 4587 0000 4587 0000 4587 0000     .E...E...E...E..
  41b9a4:	4587 0000 4587 0000 4587 0000 4587 0000     .E...E...E...E..
  41b9b4:	4587 0000 4587 0000 4587 0000 4587 0000     .E...E...E...E..
  41b9c4:	4587 0000 4587 0000 4587 0000 4587 0000     .E...E...E...E..
  41b9d4:	4587 0000 4587 0000 4587 0000 4587 0000     .E...E...E...E..
  41b9e4:	4587 0000 4587 0000 4587 0000 4587 0000     .E...E...E...E..
  41b9f4:	4587 0000 4587 0000 4587 0000 4587 0000     .E...E...E...E..
  41ba04:	4587 0000 4587 0000 4587 0000 4587 0000     .E...E...E...E..
  41ba14:	4587 0000 4587 0000 4587 0000 4587 0000     .E...E...E...E..
  41ba24:	4587 0000 4587 0000 4587 0000 4587 0000     .E...E...E...E..
  41ba34:	4587 0000 4587 0000 4587 0000 4587 0000     .E...E...E...E..
  41ba44:	4587 0000 4587 0000 4587 0000 4587 0000     .E...E...E...E..
  41ba54:	4587 0000 4587 0000 4587 0000 4587 0000     .E...E...E...E..
  41ba64:	4587 0000 4587 0000 4587 0000 4587 0000     .E...E...E...E..
  41ba74:	4587 0000 4587 0000 4587 0000 4587 0000     .E...E...E...E..
  41ba84:	4587 0000 4587 0000 4587 0000 4587 0000     .E...E...E...E..
  41ba94:	4587 0000 4587 0000 4587 0000 4587 0000     .E...E...E...E..
  41baa4:	4587 0000 4587 0000 4587 0000 4587 0000     .E...E...E...E..
  41bab4:	4587 0000 4587 0000 4587 0000 4587 0000     .E...E...E...E..
  41bac4:	4587 0000 4587 0000 4587 0000 4587 0000     .E...E...E...E..
  41bad4:	4587 0000 4587 0000 4587 0000 4587 0000     .E...E...E...E..
  41bae4:	4587 0000 4587 0000 4587 0000 4587 0000     .E...E...E...E..
  41baf4:	4587 0000 4587 0000 4587 0000 4587 0000     .E...E...E...E..
  41bb04:	4587 0000 4587 0000 4587 0000 4587 0000     .E...E...E...E..
  41bb14:	4587 0000 4587 0000 4587 0000 4587 0000     .E...E...E...E..
  41bb24:	4587 0000 4587 0000 4587 0000 4587 0000     .E...E...E...E..
  41bb34:	4587 0000 4587 0000 4587 0000 4889 0005     .E...E...E...H..
  41bb44:	95ba 006e f7f9 00f4 ffff 00ff ffff 00ff     ..n.............
  41bb54:	ffff 00ff ffff 00ff ffff 00ff ffff 00ff     ................
  41bb64:	ffff 00ff ffff 00ff ffff 00ff ffff 00ff     ................
  41bb74:	ffff 00ff ffff 00ff ffff 00ff ffff 00ff     ................
  41bb84:	ffff 00ff ffff 00ff ffff 00ff ffff 00ff     ................
  41bb94:	ffff 00ff ffff 00ff ffff 00ff ffff 00ff     ................
  41bba4:	ffff 00ff ffff 00ff ffff 00ff ffff 00ff     ................
  41bbb4:	ffff 00ff ffff 00ff ffff 00ff ffff 00ff     ................
  41bbc4:	ffff 00ff ffff 00ff ffff 00ff ffff 00ff     ................
  41bbd4:	ffff 00ff ffff 00ff ffff 00ff ffff 00ff     ................
  41bbe4:	ffff 00ff ffff 00ff d9e6 00cb 6b9f 0035     .............k5.
  41bbf4:	4587 0000 4587 0000 4587 0000 4587 0000     .E...E...E...E..
  41bc04:	4587 0000 4587 0000 4587 0000 4587 0000     .E...E...E...E..
  41bc14:	4587 0000 4587 0000 4587 0000 4587 0000     .E...E...E...E..
  41bc24:	4587 0000 4587 0000 4587 0000 4587 0000     .E...E...E...E..
  41bc34:	4587 0000 4587 0000 4587 0000 a5c5 0083     .E...E...E......
  41bc44:	ffff 00ff ffff 00ff ffff 00ff ffff 00ff     ................
  41bc54:	ffff 00ff ffff 00ff ffff 00ff ffff 00ff     ................
  41bc64:	ffff 00ff ffff 00ff ffff 00ff ffff 00ff     ................
  41bc74:	ffff 00ff ffff 00ff ffff 00ff ffff 00ff     ................
  41bc84:	ffff 00ff ffff 00ff ffff 00ff 7fac 004f     ..............O.
  41bc94:	4587 0000 4587 0000 4587 0000 4587 0000     .E...E...E...E..
  41bca4:	4587 0000 4587 0000 4587 0000 4587 0000     .E...E...E...E..
  41bcb4:	4587 0000 4587 0000 4587 0000 4587 0000     .E...E...E...E..
  41bcc4:	4587 0000 4587 0000 4587 0000 4587 0000     .E...E...E...E..
  41bcd4:	4587 0000 4587 0000 4587 0000 4587 0000     .E...E...E...E..
  41bce4:	4587 0000 4587 0000 4587 0000 4587 0000     .E...E...E...E..
  41bcf4:	4587 0000 4587 0000 4587 0000 4587 0000     .E...E...E...E..
  41bd04:	4587 0000 4587 0000 4587 0000 4587 0000     .E...E...E...E..
  41bd14:	4587 0000 4587 0000 4587 0000 4587 0000     .E...E...E...E..
  41bd24:	4587 0000 4587 0000 4587 0000 4587 0000     .E...E...E...E..
  41bd34:	4587 0000 4587 0000 4587 0000 4587 0000     .E...E...E...E..
  41bd44:	4587 0000 4587 0000 4587 0000 4587 0000     .E...E...E...E..
  41bd54:	4587 0000 4587 0000 4587 0000 4587 0000     .E...E...E...E..
  41bd64:	4587 0000 4587 0000 4587 0000 4587 0000     .E...E...E...E..
  41bd74:	4587 0000 4587 0000 4587 0000 4587 0000     .E...E...E...E..
  41bd84:	4587 0000 4587 0000 4587 0000 4587 0000     .E...E...E...E..
  41bd94:	4587 0000 4587 0000 4587 0000 4587 0000     .E...E...E...E..
  41bda4:	4587 0000 4587 0000 4587 0000 4587 0000     .E...E...E...E..
  41bdb4:	4587 0000 4587 0000 4587 0000 4587 0000     .E...E...E...E..
  41bdc4:	4587 0000 4587 0000 4587 0000 4587 0000     .E...E...E...E..
  41bdd4:	4587 0000 4587 0000 4587 0000 4587 0000     .E...E...E...E..
  41bde4:	4587 0000 4587 0000 4587 0000 4587 0000     .E...E...E...E..
  41bdf4:	4587 0000 4587 0000 4587 0000 4587 0000     .E...E...E...E..
  41be04:	4587 0000 4587 0000 4587 0000 4587 0000     .E...E...E...E..
  41be14:	4587 0000 4587 0000 4587 0000 4587 0000     .E...E...E...E..
  41be24:	4587 0000 4587 0000 4587 0000 4587 0000     .E...E...E...E..
  41be34:	4587 0000 4587 0000 4587 0000 4587 0000     .E...E...E...E..
  41be44:	4587 0000 4587 0000 4587 0000 4587 0000     .E...E...E...E..
  41be54:	4587 0000 4587 0000 4587 0000 4587 0000     .E...E...E...E..
  41be64:	4587 0000 4587 0000 4587 0000 4587 0000     .E...E...E...E..
  41be74:	4587 0000 4587 0000 4587 0000 4587 0000     .E...E...E...E..
  41be84:	4587 0000 4587 0000 4587 0000 4587 0000     .E...E...E...E..
  41be94:	4587 0000 4587 0000 4587 0000 4587 0000     .E...E...E...E..
  41bea4:	4587 0000 4587 0000 4587 0000 4587 0000     .E...E...E...E..
  41beb4:	4587 0000 4587 0000 4587 0000 4587 0000     .E...E...E...E..
  41bec4:	4587 0000 4587 0000 4587 0000 4587 0000     .E...E...E...E..
  41bed4:	4587 0000 4587 0000 4587 0000 4587 0000     .E...E...E...E..
  41bee4:	4587 0000 4587 0000 4587 0000 4587 0000     .E...E...E...E..
  41bef4:	4587 0000 4587 0000 4587 0000 4587 0000     .E...E...E...E..
  41bf04:	4587 0000 5d97 0022 bfd6 00a8 fefe 00fd     .E...]".........
  41bf14:	ffff 00ff ffff 00ff ffff 00ff ffff 00ff     ................
  41bf24:	ffff 00ff ffff 00ff ffff 00ff ffff 00ff     ................
  41bf34:	ffff 00ff ffff 00ff ffff 00ff ffff 00ff     ................
  41bf44:	ffff 00ff ffff 00ff ffff 00ff ffff 00ff     ................
  41bf54:	ffff 00ff ffff 00ff ffff 00ff ffff 00ff     ................
  41bf64:	ffff 00ff ffff 00ff ffff 00ff ffff 00ff     ................
  41bf74:	ffff 00ff ffff 00ff ffff 00ff ffff 00ff     ................
  41bf84:	ffff 00ff ffff 00ff ffff 00ff ffff 00ff     ................
  41bf94:	ffff 00ff ffff 00ff ffff 00ff ffff 00ff     ................
  41bfa4:	e6ef 00dd 8ab3 005f 4587 0001 4587 0000     ......_..E...E..
  41bfb4:	4587 0000 4587 0000 4587 0000 4587 0000     .E...E...E...E..
  41bfc4:	4587 0000 4587 0000 4587 0000 4587 0000     .E...E...E...E..
  41bfd4:	4587 0000 4587 0000 4587 0000 4587 0000     .E...E...E...E..
  41bfe4:	4587 0000 4587 0000 4587 0000 4587 0000     .E...E...E...E..
  41bff4:	4587 0000 4587 0000 4587 0000 a5c5 0083     .E...E...E......
  41c004:	ffff 00ff ffff 00ff ffff 00ff ffff 00ff     ................
  41c014:	ffff 00ff ffff 00ff ffff 00ff ffff 00ff     ................
  41c024:	ffff 00ff ffff 00ff ffff 00ff ffff 00ff     ................
  41c034:	ffff 00ff ffff 00ff ffff 00ff ffff 00ff     ................
  41c044:	ffff 00ff ffff 00ff ffff 00ff 7fac 004f     ..............O.
  41c054:	4587 0000 4587 0000 4587 0000 4587 0000     .E...E...E...E..
  41c064:	4587 0000 4587 0000 4587 0000 4587 0000     .E...E...E...E..
  41c074:	4587 0000 4587 0000 4587 0000 4587 0000     .E...E...E...E..
  41c084:	4587 0000 4587 0000 4587 0000 4587 0000     .E...E...E...E..
  41c094:	4587 0000 4587 0000 4587 0000 4587 0000     .E...E...E...E..
  41c0a4:	4587 0000 4587 0000 4587 0000 4587 0000     .E...E...E...E..
  41c0b4:	4587 0000 4587 0000 4587 0000 4587 0000     .E...E...E...E..
  41c0c4:	4587 0000 4587 0000 4587 0000 4587 0000     .E...E...E...E..
  41c0d4:	4587 0000 4587 0000 4587 0000 4587 0000     .E...E...E...E..
  41c0e4:	4587 0000 4587 0000 4587 0000 4587 0000     .E...E...E...E..
  41c0f4:	4587 0000 4587 0000 4587 0000 4587 0000     .E...E...E...E..
  41c104:	4587 0000 4587 0000 4587 0000 4587 0000     .E...E...E...E..
  41c114:	4587 0000 4587 0000 4587 0000 4587 0000     .E...E...E...E..
  41c124:	4587 0000 4587 0000 4587 0000 4587 0000     .E...E...E...E..
  41c134:	4587 0000 4587 0000 4587 0000 4587 0000     .E...E...E...E..
  41c144:	4587 0000 4587 0000 4587 0000 4587 0000     .E...E...E...E..
  41c154:	4587 0000 4587 0000 4587 0000 4587 0000     .E...E...E...E..
  41c164:	4587 0000 4587 0000 4587 0000 4587 0000     .E...E...E...E..
  41c174:	4587 0000 4587 0000 4587 0000 4587 0000     .E...E...E...E..
  41c184:	4587 0000 4587 0000 4587 0000 4587 0000     .E...E...E...E..
  41c194:	4587 0000 4587 0000 4587 0000 4587 0000     .E...E...E...E..
  41c1a4:	4587 0000 4587 0000 4587 0000 4587 0000     .E...E...E...E..
  41c1b4:	4587 0000 4587 0000 4587 0000 4587 0000     .E...E...E...E..
  41c1c4:	4587 0000 4587 0000 4587 0000 4587 0000     .E...E...E...E..
  41c1d4:	4587 0000 4587 0000 4587 0000 4587 0000     .E...E...E...E..
  41c1e4:	4587 0000 4587 0000 4587 0000 4587 0000     .E...E...E...E..
  41c1f4:	4587 0000 4587 0000 4587 0000 4587 0000     .E...E...E...E..
  41c204:	4587 0000 4587 0000 4587 0000 4587 0000     .E...E...E...E..
  41c214:	4587 0000 4587 0000 4587 0000 4587 0000     .E...E...E...E..
  41c224:	4587 0000 4587 0000 4587 0000 4587 0000     .E...E...E...E..
  41c234:	4587 0000 4587 0000 4587 0000 4587 0000     .E...E...E...E..
  41c244:	4587 0000 4587 0000 4587 0000 4587 0000     .E...E...E...E..
  41c254:	4587 0000 4587 0000 4587 0000 4587 0000     .E...E...E...E..
  41c264:	4587 0000 4587 0000 4587 0000 4587 0000     .E...E...E...E..
  41c274:	4587 0000 4587 0000 4587 0000 4587 0000     .E...E...E...E..
  41c284:	4587 0000 4587 0000 4587 0000 4587 0000     .E...E...E...E..
  41c294:	4587 0000 4587 0000 4587 0000 4587 0000     .E...E...E...E..
  41c2a4:	4587 0000 4587 0000 4587 0000 4587 0000     .E...E...E...E..
  41c2b4:	4587 0000 4587 0000 4587 0000 4587 0000     .E...E...E...E..
  41c2c4:	4587 0000 4587 0000 4587 0000 5d97 0022     .E...E...E...]".
  41c2d4:	aecb 0090 fafc 00f8 ffff 00ff ffff 00ff     ................
  41c2e4:	ffff 00ff ffff 00ff ffff 00ff ffff 00ff     ................
  41c2f4:	ffff 00ff ffff 00ff ffff 00ff ffff 00ff     ................
  41c304:	ffff 00ff ffff 00ff ffff 00ff ffff 00ff     ................
  41c314:	ffff 00ff ffff 00ff ffff 00ff ffff 00ff     ................
  41c324:	ffff 00ff ffff 00ff ffff 00ff ffff 00ff     ................
  41c334:	ffff 00ff ffff 00ff ffff 00ff ffff 00ff     ................
  41c344:	ffff 00ff ffff 00ff ffff 00ff ffff 00ff     ................
  41c354:	ffff 00ff ffff 00ff e5ee 00dc 8eb7 0066     ..............f.
  41c364:	4788 0004 4587 0000 4587 0000 4587 0000     .G...E...E...E..
  41c374:	4587 0000 4587 0000 4587 0000 4587 0000     .E...E...E...E..
  41c384:	4587 0000 4587 0000 4587 0000 4587 0000     .E...E...E...E..
  41c394:	4587 0000 4587 0000 4587 0000 4587 0000     .E...E...E...E..
  41c3a4:	4587 0000 4587 0000 4587 0000 4587 0000     .E...E...E...E..
  41c3b4:	4587 0000 4587 0000 4587 0000 a5c5 0083     .E...E...E......
  41c3c4:	ffff 00ff ffff 00ff ffff 00ff ffff 00ff     ................
  41c3d4:	ffff 00ff ffff 00ff ffff 00ff ffff 00ff     ................
  41c3e4:	ffff 00ff ffff 00ff ffff 00ff ffff 00ff     ................
  41c3f4:	ffff 00ff ffff 00ff ffff 00ff ffff 00ff     ................
  41c404:	ffff 00ff ffff 00ff ffff 00ff 7fac 004f     ..............O.
  41c414:	4587 0000 4587 0000 4587 0000 4587 0000     .E...E...E...E..
  41c424:	4587 0000 4587 0000 4587 0000 4587 0000     .E...E...E...E..
  41c434:	4587 0000 4587 0000 4587 0000 4587 0000     .E...E...E...E..
  41c444:	4587 0000 4587 0000 4587 0000 4587 0000     .E...E...E...E..
  41c454:	4587 0000 4587 0000 4587 0000 4587 0000     .E...E...E...E..
  41c464:	4587 0000 4587 0000 4587 0000 4587 0000     .E...E...E...E..
  41c474:	4587 0000 4587 0000 4587 0000 4587 0000     .E...E...E...E..
  41c484:	4587 0000 4587 0000 4587 0000 4587 0000     .E...E...E...E..
  41c494:	4587 0000 4587 0000 4587 0000 4587 0000     .E...E...E...E..
  41c4a4:	4587 0000 4587 0000 4587 0000 4587 0000     .E...E...E...E..
  41c4b4:	4587 0000 4587 0000 4587 0000 4587 0000     .E...E...E...E..
  41c4c4:	4587 0000 4587 0000 4587 0000 4587 0000     .E...E...E...E..
  41c4d4:	4587 0000 4587 0000 4587 0000 4587 0000     .E...E...E...E..
  41c4e4:	4587 0000 4587 0000 4587 0000 4587 0000     .E...E...E...E..
  41c4f4:	4587 0000 4587 0000 4587 0000 4587 0000     .E...E...E...E..
  41c504:	4587 0000 4587 0000 4587 0000 4587 0000     .E...E...E...E..
  41c514:	4587 0000 4587 0000 4587 0000 4587 0000     .E...E...E...E..
  41c524:	4587 0000 4587 0000 4587 0000 4587 0000     .E...E...E...E..
  41c534:	4587 0000 4587 0000 4587 0000 4587 0000     .E...E...E...E..
  41c544:	4587 0000 4587 0000 4587 0000 4587 0000     .E...E...E...E..
  41c554:	4587 0000 4587 0000 4587 0000 4587 0000     .E...E...E...E..
  41c564:	4587 0000 4587 0000 4587 0000 4587 0000     .E...E...E...E..
  41c574:	4587 0000 4587 0000 4587 0000 4587 0000     .E...E...E...E..
  41c584:	4587 0000 4587 0000 4587 0000 4587 0000     .E...E...E...E..
  41c594:	4587 0000 4587 0000 4587 0000 4587 0000     .E...E...E...E..
  41c5a4:	4587 0000 4587 0000 4587 0000 4587 0000     .E...E...E...E..
  41c5b4:	4587 0000 4587 0000 4587 0000 4587 0000     .E...E...E...E..
  41c5c4:	4587 0000 4587 0000 4587 0000 4587 0000     .E...E...E...E..
  41c5d4:	4587 0000 4587 0000 4587 0000 4587 0000     .E...E...E...E..
  41c5e4:	4587 0000 4587 0000 4587 0000 4587 0000     .E...E...E...E..
  41c5f4:	4587 0000 4587 0000 4587 0000 4587 0000     .E...E...E...E..
  41c604:	4587 0000 4587 0000 4587 0000 4587 0000     .E...E...E...E..
  41c614:	4587 0000 4587 0000 4587 0000 4587 0000     .E...E...E...E..
  41c624:	4587 0000 4587 0000 4587 0000 4587 0000     .E...E...E...E..
  41c634:	4587 0000 4587 0000 4587 0000 4587 0000     .E...E...E...E..
  41c644:	4587 0000 4587 0000 4587 0000 4587 0000     .E...E...E...E..
  41c654:	4587 0000 4587 0000 4587 0000 4587 0000     .E...E...E...E..
  41c664:	4587 0000 4587 0000 4587 0000 4587 0000     .E...E...E...E..
  41c674:	4587 0000 4587 0000 4587 0000 4587 0000     .E...E...E...E..
  41c684:	4587 0000 4587 0000 4587 0000 4587 0000     .E...E...E...E..
  41c694:	4587 0000 5a95 001e a0c1 007e e4ee 00da     .E...Z....~.....
  41c6a4:	ffff 00ff ffff 00ff ffff 00ff ffff 00ff     ................
  41c6b4:	ffff 00ff ffff 00ff ffff 00ff ffff 00ff     ................
  41c6c4:	ffff 00ff ffff 00ff ffff 00ff ffff 00ff     ................
  41c6d4:	ffff 00ff ffff 00ff ffff 00ff ffff 00ff     ................
  41c6e4:	ffff 00ff ffff 00ff ffff 00ff ffff 00ff     ................
  41c6f4:	ffff 00ff ffff 00ff ffff 00ff ffff 00ff     ................
  41c704:	ffff 00ff ffff 00ff ffff 00ff f9fb 00f7     ................
  41c714:	bfd6 00a9 7baa 004b 4687 0002 4587 0000     .....{K..F...E..
  41c724:	4587 0000 4587 0000 4587 0000 4587 0000     .E...E...E...E..
  41c734:	4587 0000 4587 0000 4587 0000 4587 0000     .E...E...E...E..
  41c744:	4587 0000 4587 0000 4587 0000 4587 0000     .E...E...E...E..
  41c754:	4587 0000 4587 0000 4587 0000 4587 0000     .E...E...E...E..
  41c764:	4587 0000 4587 0000 4587 0000 4587 0000     .E...E...E...E..
  41c774:	4587 0000 4587 0000 4587 0000 a5c5 0083     .E...E...E......
  41c784:	ffff 00ff ffff 00ff ffff 00ff ffff 00ff     ................
  41c794:	ffff 00ff ffff 00ff ffff 00ff ffff 00ff     ................
  41c7a4:	ffff 00ff ffff 00ff ffff 00ff ffff 00ff     ................
  41c7b4:	ffff 00ff ffff 00ff ffff 00ff ffff 00ff     ................
  41c7c4:	ffff 00ff ffff 00ff ffff 00ff 7fac 004f     ..............O.
  41c7d4:	4587 0000 4587 0000 4587 0000 4587 0000     .E...E...E...E..
  41c7e4:	4587 0000 4587 0000 4587 0000 4587 0000     .E...E...E...E..
  41c7f4:	4587 0000 4587 0000 4587 0000 4587 0000     .E...E...E...E..
  41c804:	4587 0000 4587 0000 4587 0000 4587 0000     .E...E...E...E..
  41c814:	4587 0000 4587 0000 4587 0000 4587 0000     .E...E...E...E..
  41c824:	4587 0000 4587 0000 4587 0000 4587 0000     .E...E...E...E..
  41c834:	4587 0000 4587 0000 4587 0000 4587 0000     .E...E...E...E..
  41c844:	4587 0000 4587 0000 4587 0000 4587 0000     .E...E...E...E..
  41c854:	4587 0000 4587 0000 4587 0000 4587 0000     .E...E...E...E..
  41c864:	4587 0000 4587 0000 4587 0000 4587 0000     .E...E...E...E..
  41c874:	4587 0000 4587 0000 4587 0000 4587 0000     .E...E...E...E..
  41c884:	4587 0000 4587 0000 4587 0000 4587 0000     .E...E...E...E..
  41c894:	4587 0000 4587 0000 4587 0000 4587 0000     .E...E...E...E..
  41c8a4:	4587 0000 4587 0000 4587 0000 4587 0000     .E...E...E...E..
  41c8b4:	4587 0000 4587 0000 4587 0000 4587 0000     .E...E...E...E..
  41c8c4:	4587 0000 4587 0000 4587 0000 4587 0000     .E...E...E...E..
  41c8d4:	4587 0000 4587 0000 4587 0000 4587 0000     .E...E...E...E..
  41c8e4:	4587 0000 4587 0000 4587 0000 4587 0000     .E...E...E...E..
  41c8f4:	4587 0000 4587 0000 4587 0000 4587 0000     .E...E...E...E..
  41c904:	4587 0000 4587 0000 4587 0000 4587 0000     .E...E...E...E..
  41c914:	4587 0000 4587 0000 4587 0000 4587 0000     .E...E...E...E..
  41c924:	4587 0000 4587 0000 4587 0000 4587 0000     .E...E...E...E..
  41c934:	4587 0000 4587 0000 4587 0000 4587 0000     .E...E...E...E..
  41c944:	4587 0000 4587 0000 4587 0000 4587 0000     .E...E...E...E..
  41c954:	4587 0000 4587 0000 4587 0000 4587 0000     .E...E...E...E..
  41c964:	4587 0000 4587 0000 4587 0000 4587 0000     .E...E...E...E..
  41c974:	4587 0000 4587 0000 4587 0000 4587 0000     .E...E...E...E..
  41c984:	4587 0000 4587 0000 4587 0000 4587 0000     .E...E...E...E..
  41c994:	4587 0000 4587 0000 4587 0000 4587 0000     .E...E...E...E..
  41c9a4:	4587 0000 4587 0000 4587 0000 4587 0000     .E...E...E...E..
  41c9b4:	4587 0000 4587 0000 4587 0000 4587 0000     .E...E...E...E..
  41c9c4:	4587 0000 4587 0000 4587 0000 4587 0000     .E...E...E...E..
  41c9d4:	4587 0000 4587 0000 4587 0000 4587 0000     .E...E...E...E..
  41c9e4:	4587 0000 4587 0000 4587 0000 4587 0000     .E...E...E...E..
  41c9f4:	4587 0000 4587 0000 4587 0000 4587 0000     .E...E...E...E..
  41ca04:	4587 0000 4587 0000 4587 0000 4587 0000     .E...E...E...E..
  41ca14:	4587 0000 4587 0000 4587 0000 4587 0000     .E...E...E...E..
  41ca24:	4587 0000 4587 0000 4587 0000 4587 0000     .E...E...E...E..
  41ca34:	4587 0000 4587 0000 4587 0000 4587 0000     .E...E...E...E..
  41ca44:	4587 0000 4587 0000 4587 0000 4587 0000     .E...E...E...E..
  41ca54:	4587 0000 4587 0000 4587 0000 4587 0000     .E...E...E...E..
  41ca64:	6fa1 0039 afcc 0092 e1ec 00d7 ffff 00ff     .o9.............
  41ca74:	ffff 00ff ffff 00ff ffff 00ff ffff 00ff     ................
  41ca84:	ffff 00ff ffff 00ff ffff 00ff ffff 00ff     ................
  41ca94:	ffff 00ff ffff 00ff ffff 00ff ffff 00ff     ................
  41caa4:	ffff 00ff ffff 00ff ffff 00ff ffff 00ff     ................
  41cab4:	ffff 00ff ffff 00ff ffff 00ff ffff 00ff     ................
  41cac4:	f5f8 00f2 c8dc 00b4 8db6 0064 4f8e 000f     ..........d..O..
  41cad4:	4587 0000 4587 0000 4587 0000 4587 0000     .E...E...E...E..
  41cae4:	4587 0000 4587 0000 4587 0000 4587 0000     .E...E...E...E..
  41caf4:	4587 0000 4587 0000 4587 0000 4587 0000     .E...E...E...E..
  41cb04:	4587 0000 4587 0000 4587 0000 4587 0000     .E...E...E...E..
  41cb14:	4587 0000 4587 0000 4587 0000 4587 0000     .E...E...E...E..
  41cb24:	4587 0000 4587 0000 4587 0000 4587 0000     .E...E...E...E..
  41cb34:	4587 0000 4587 0000 4587 0000 a5c5 0083     .E...E...E......
  41cb44:	ffff 00ff ffff 00ff ffff 00ff ffff 00ff     ................
  41cb54:	ffff 00ff ffff 00ff ffff 00ff ffff 00ff     ................
  41cb64:	ffff 00ff ffff 00ff ffff 00ff ffff 00ff     ................
  41cb74:	ffff 00ff ffff 00ff ffff 00ff ffff 00ff     ................
  41cb84:	ffff 00ff ffff 00ff ffff 00ff 7fac 004f     ..............O.
  41cb94:	4587 0000 4587 0000 4587 0000 4587 0000     .E...E...E...E..
  41cba4:	4587 0000 4587 0000 4587 0000 4587 0000     .E...E...E...E..
  41cbb4:	4587 0000 4587 0000 4587 0000 4587 0000     .E...E...E...E..
  41cbc4:	4587 0000 4587 0000 4587 0000 4587 0000     .E...E...E...E..
  41cbd4:	4587 0000 4587 0000 4587 0000 4587 0000     .E...E...E...E..
  41cbe4:	4587 0000 4587 0000 4587 0000 4587 0000     .E...E...E...E..
  41cbf4:	4587 0000 4587 0000 4587 0000 4587 0000     .E...E...E...E..
  41cc04:	4587 0000 4587 0000 4587 0000 4587 0000     .E...E...E...E..
  41cc14:	4587 0000 4587 0000 4587 0000 4587 0000     .E...E...E...E..
  41cc24:	4587 0000 4587 0000 4587 0000 4587 0000     .E...E...E...E..
  41cc34:	4587 0000 4587 0000 4587 0000 4587 0000     .E...E...E...E..
  41cc44:	4587 0000 4587 0000 4587 0000 4587 0000     .E...E...E...E..
  41cc54:	4587 0000 4587 0000 4587 0000 4587 0000     .E...E...E...E..
  41cc64:	4587 0000 4587 0000 4587 0000 4587 0000     .E...E...E...E..
  41cc74:	4587 0000 4587 0000 4587 0000 4587 0000     .E...E...E...E..
  41cc84:	4587 0000 4587 0000 4587 0000 4587 0000     .E...E...E...E..
  41cc94:	4587 0000 4587 0000 4587 0000 4587 0000     .E...E...E...E..
  41cca4:	4587 0000 4587 0000 4587 0000 4587 0000     .E...E...E...E..
  41ccb4:	4587 0000 4587 0000 4587 0000 4587 0000     .E...E...E...E..
  41ccc4:	4587 0000 4587 0000 4587 0000 4587 0000     .E...E...E...E..
  41ccd4:	4587 0000 4587 0000 4587 0000 4587 0000     .E...E...E...E..
  41cce4:	4587 0000 4587 0000 4587 0000 4587 0000     .E...E...E...E..
  41ccf4:	4587 0000 4587 0000 4587 0000 4587 0000     .E...E...E...E..
  41cd04:	4587 0000 4587 0000 4587 0000 4587 0000     .E...E...E...E..
  41cd14:	4587 0000 4587 0000 4587 0000 4587 0000     .E...E...E...E..
  41cd24:	4587 0000 4587 0000 4587 0000 4587 0000     .E...E...E...E..
  41cd34:	4587 0000 4587 0000 4587 0000 4587 0000     .E...E...E...E..
  41cd44:	4587 0000 4587 0000 4587 0000 4587 0000     .E...E...E...E..
  41cd54:	4587 0000 4587 0000 4587 0000 4587 0000     .E...E...E...E..
  41cd64:	4587 0000 4587 0000 4587 0000 4587 0000     .E...E...E...E..
  41cd74:	4587 0000 4587 0000 4587 0000 4587 0000     .E...E...E...E..
  41cd84:	4587 0000 4587 0000 4587 0000 4587 0000     .E...E...E...E..
  41cd94:	4587 0000 4587 0000 4587 0000 4587 0000     .E...E...E...E..
  41cda4:	4587 0000 4587 0000 4587 0000 4587 0000     .E...E...E...E..
  41cdb4:	4587 0000 4587 0000 4587 0000 4587 0000     .E...E...E...E..
  41cdc4:	4587 0000 4587 0000 4587 0000 4587 0000     .E...E...E...E..
  41cdd4:	4587 0000 4587 0000 4587 0000 4587 0000     .E...E...E...E..
  41cde4:	4587 0000 4587 0000 4587 0000 4587 0000     .E...E...E...E..
  41cdf4:	4587 0000 4587 0000 4587 0000 4587 0000     .E...E...E...E..
  41ce04:	4587 0000 4587 0000 4587 0000 4587 0000     .E...E...E...E..
  41ce14:	4587 0000 4587 0000 4587 0000 4587 0000     .E...E...E...E..
  41ce24:	4587 0000 4587 0000 4587 0000 5793 001a     .E...E...E...W..
  41ce34:	86b1 005b b3ce 0098 d2e2 00c2 f0f5 00ea     ..[.............
  41ce44:	ffff 00ff ffff 00ff ffff 00ff ffff 00ff     ................
  41ce54:	ffff 00ff ffff 00ff ffff 00ff ffff 00ff     ................
  41ce64:	ffff 00ff ffff 00ff ffff 00ff fbfc 00f9     ................
  41ce74:	e0eb 00d5 c2d8 00ad 9dbf 007a 6fa1 0039     ..........z..o9.
  41ce84:	4788 0004 4587 0000 4587 0000 4587 0000     .G...E...E...E..
  41ce94:	4587 0000 4587 0000 4587 0000 4587 0000     .E...E...E...E..
  41cea4:	4587 0000 4587 0000 4587 0000 4587 0000     .E...E...E...E..
  41ceb4:	4587 0000 4587 0000 4587 0000 4587 0000     .E...E...E...E..
  41cec4:	4587 0000 4587 0000 4587 0000 4587 0000     .E...E...E...E..
  41ced4:	4587 0000 4587 0000 4587 0000 4587 0000     .E...E...E...E..
  41cee4:	4587 0000 4587 0000 4587 0000 4587 0000     .E...E...E...E..
  41cef4:	4587 0000 4587 0000 4587 0000 a5c5 0083     .E...E...E......
  41cf04:	ffff 00ff ffff 00ff ffff 00ff ffff 00ff     ................
  41cf14:	ffff 00ff ffff 00ff ffff 00ff ffff 00ff     ................
  41cf24:	ffff 00ff ffff 00ff ffff 00ff ffff 00ff     ................
  41cf34:	ffff 00ff ffff 00ff ffff 00ff ffff 00ff     ................
  41cf44:	ffff 00ff ffff 00ff ffff 00ff 7fac 004f     ..............O.
  41cf54:	4587 0000 4587 0000 4587 0000 4587 0000     .E...E...E...E..
  41cf64:	4587 0000 4587 0000 4587 0000 4587 0000     .E...E...E...E..
  41cf74:	4587 0000 4587 0000 4587 0000 4587 0000     .E...E...E...E..
  41cf84:	4587 0000 4587 0000 4587 0000 4587 0000     .E...E...E...E..
  41cf94:	4587 0000 4587 0000 4587 0000 4587 0000     .E...E...E...E..
  41cfa4:	4587 0000 4587 0000 4587 0000 4587 0000     .E...E...E...E..
  41cfb4:	4587 0000 4587 0000 4587 0000 4587 0000     .E...E...E...E..
  41cfc4:	4587 0000 4587 0000 4587 0000 4587 0000     .E...E...E...E..
  41cfd4:	4587 0000 4587 0000 4587 0000 4587 0000     .E...E...E...E..
  41cfe4:	4587 0000 4587 0000 4587 0000 4587 0000     .E...E...E...E..
  41cff4:	4587 0000 4587 0000 4587 0000 4587 0000     .E...E...E...E..
  41d004:	4587 0000 4587 0000 4587 0000 4587 0000     .E...E...E...E..
  41d014:	4587 0000 4587 0000 4587 0000 4587 0000     .E...E...E...E..
  41d024:	4587 0000 4587 0000 4587 0000 4587 0000     .E...E...E...E..
  41d034:	4587 0000 4587 0000 4587 0000 4587 0000     .E...E...E...E..
  41d044:	4587 0000 4587 0000 4587 0000 4587 0000     .E...E...E...E..
  41d054:	4587 0000 4587 0000 4587 0000 4587 0000     .E...E...E...E..
  41d064:	4587 0000 4587 0000 4587 0000 4587 0000     .E...E...E...E..
  41d074:	4587 0000 4587 0000 4587 0000 4587 0000     .E...E...E...E..
  41d084:	4587 0000 4587 0000 4587 0000 4587 0000     .E...E...E...E..
  41d094:	4587 0000 4587 0000 4587 0000 4587 0000     .E...E...E...E..
  41d0a4:	4587 0000 4587 0000 4587 0000 4587 0000     .E...E...E...E..
  41d0b4:	4587 0000 4587 0000 4587 0000 4587 0000     .E...E...E...E..
  41d0c4:	4587 0000 4587 0000 4587 0000 4587 0000     .E...E...E...E..
  41d0d4:	4587 0000 4587 0000 4587 0000 4587 0000     .E...E...E...E..
  41d0e4:	4587 0000 4587 0000 4587 0000 4587 0000     .E...E...E...E..
  41d0f4:	4587 0000 4587 0000 4587 0000 4587 0000     .E...E...E...E..
  41d104:	4587 0000 4587 0000 4587 0000 4587 0000     .E...E...E...E..
  41d114:	4587 0000 4587 0000 4587 0000 4587 0000     .E...E...E...E..
  41d124:	4587 0000 4587 0000 4587 0000 4587 0000     .E...E...E...E..
  41d134:	4587 0000 4587 0000 4587 0000 4587 0000     .E...E...E...E..
  41d144:	4587 0000 4587 0000 4587 0000 4587 0000     .E...E...E...E..
  41d154:	4587 0000 4587 0000 4587 0000 4587 0000     .E...E...E...E..
  41d164:	4587 0000 4587 0000 4587 0000 4587 0000     .E...E...E...E..
  41d174:	4587 0000 4587 0000 4587 0000 4587 0000     .E...E...E...E..
  41d184:	4587 0000 4587 0000 4587 0000 4587 0000     .E...E...E...E..
  41d194:	4587 0000 4587 0000 4587 0000 4587 0000     .E...E...E...E..
  41d1a4:	4587 0000 4587 0000 4587 0000 4587 0000     .E...E...E...E..
  41d1b4:	4587 0000 4587 0000 4587 0000 4587 0000     .E...E...E...E..
  41d1c4:	4587 0000 4587 0000 4587 0000 4587 0000     .E...E...E...E..
  41d1d4:	4587 0000 4587 0000 4587 0000 4587 0000     .E...E...E...E..
  41d1e4:	4587 0000 4587 0000 4587 0000 4587 0000     .E...E...E...E..
  41d1f4:	4587 0000 4587 0000 4587 0000 4587 0000     .E...E...E...E..
  41d204:	518f 0011 6c9f 0036 77a7 0044 83af 0055     .Q...l6..wD...U.
  41d214:	8bb5 0061 93b8 006b 8eb7 0066 85af 0058     ..a...k...f...X.
  41d224:	7baa 004c 73a6 0041 5f96 0023 4788 0003     .{L..sA.._#..G..
  41d234:	4587 0000 4587 0000 4587 0000 4587 0000     .E...E...E...E..
  41d244:	4587 0000 4587 0000 4587 0000 4587 0000     .E...E...E...E..
  41d254:	4587 0000 4587 0000 4587 0000 4587 0000     .E...E...E...E..
  41d264:	4587 0000 4587 0000 4587 0000 4587 0000     .E...E...E...E..
  41d274:	4587 0000 4587 0000 4587 0000 4587 0000     .E...E...E...E..
  41d284:	4587 0000 4587 0000 4587 0000 4587 0000     .E...E...E...E..
  41d294:	4587 0000 4587 0000 4587 0000 4587 0000     .E...E...E...E..
  41d2a4:	4587 0000 4587 0000 4587 0000 4587 0000     .E...E...E...E..
  41d2b4:	4587 0000 4587 0000 4587 0000 a5c5 0083     .E...E...E......
  41d2c4:	ffff 00ff ffff 00ff ffff 00ff ffff 00ff     ................
  41d2d4:	ffff 00ff ffff 00ff ffff 00ff ffff 00ff     ................
  41d2e4:	ffff 00ff ffff 00ff ffff 00ff ffff 00ff     ................
  41d2f4:	ffff 00ff ffff 00ff ffff 00ff ffff 00ff     ................
  41d304:	ffff 00ff ffff 00ff ffff 00ff 7fac 004f     ..............O.
  41d314:	4587 0000 4587 0000 4587 0000 4587 0000     .E...E...E...E..
  41d324:	4587 0000 4587 0000 4587 0000 4587 0000     .E...E...E...E..
  41d334:	4587 0000 4587 0000 4587 0000 4587 0000     .E...E...E...E..
  41d344:	4587 0000 4587 0000 4587 0000 4587 0000     .E...E...E...E..
  41d354:	4587 0000 4587 0000 4587 0000 4587 0000     .E...E...E...E..
  41d364:	4587 0000 4587 0000 4587 0000 4587 0000     .E...E...E...E..
  41d374:	4587 0000 4587 0000 4587 0000 4587 0000     .E...E...E...E..
  41d384:	4587 0000 4587 0000 4587 0000 4587 0000     .E...E...E...E..
  41d394:	4587 0000 4587 0000 4587 0000 4587 0000     .E...E...E...E..
  41d3a4:	4587 0000 4587 0000 4587 0000 4587 0000     .E...E...E...E..
  41d3b4:	4587 0000 4587 0000 4587 0000 4587 0000     .E...E...E...E..
  41d3c4:	4587 0000 4587 0000 4587 0000 4587 0000     .E...E...E...E..
  41d3d4:	4587 0000 4587 0000 4587 0000 4587 0000     .E...E...E...E..
  41d3e4:	4587 0000 4587 0000 4587 0000 4587 0000     .E...E...E...E..
  41d3f4:	4587 0000 4587 0000 4587 0000 4587 0000     .E...E...E...E..
  41d404:	4587 0000 4587 0000 4587 0000 4587 0000     .E...E...E...E..
  41d414:	4587 0000 4587 0000 4587 0000 4587 0000     .E...E...E...E..
  41d424:	4587 0000 4587 0000 4587 0000 4587 0000     .E...E...E...E..
  41d434:	4587 0000 4587 0000 4587 0000 4587 0000     .E...E...E...E..
  41d444:	4587 0000 4587 0000 4587 0000 4587 0000     .E...E...E...E..
  41d454:	4587 0000 4587 0000 4587 0000 4587 0000     .E...E...E...E..
  41d464:	4587 0000 4587 0000 4587 0000 4587 0000     .E...E...E...E..
  41d474:	4587 0000 4587 0000 4587 0000 4587 0000     .E...E...E...E..
  41d484:	4587 0000 4587 0000 4587 0000 4587 0000     .E...E...E...E..
  41d494:	4587 0000 4587 0000 4587 0000 4587 0000     .E...E...E...E..
  41d4a4:	4587 0000 4587 0000 4587 0000 4587 0000     .E...E...E...E..
  41d4b4:	4587 0000 4587 0000 4587 0000 4587 0000     .E...E...E...E..
  41d4c4:	4587 0000 4587 0000 4587 0000 4587 0000     .E...E...E...E..
  41d4d4:	4587 0000 4587 0000 4587 0000 4587 0000     .E...E...E...E..
  41d4e4:	4587 0000 4587 0000 4587 0000 4587 0000     .E...E...E...E..
  41d4f4:	4587 0000 4587 0000 4587 0000 4587 0000     .E...E...E...E..
  41d504:	4587 0000 4587 0000 4587 0000 4587 0000     .E...E...E...E..
  41d514:	4587 0000 4587 0000 4587 0000 4587 0000     .E...E...E...E..
  41d524:	4587 0000 4587 0000 4587 0000 4587 0000     .E...E...E...E..
  41d534:	ffff 00ff ffff 00ff ffff 00ff ffff 00ff     ................
  41d544:	ffff 00ff ffff 00ff ffff 00ff ffff 00ff     ................
  41d554:	ffff 00ff ffff 00ff ffff 00ff ffff 00ff     ................
  41d564:	ffff 00ff ffff 00ff ffff 00ff ffff 00ff     ................
  41d574:	ffff 00ff ffff 00ff ffff 00ff ffff 00ff     ................
  41d584:	ffff 00ff ffff 00ff ffff 00ff ffff 00ff     ................
  41d594:	ffff 00ff ffff 00ff ffff 00ff ffff 00ff     ................
  41d5a4:	ffff 00ff ffff 00ff ffff 00ff ffff 00ff     ................
  41d5b4:	ffff 00ff ffff 00ff ffff 00ff ffff 00ff     ................
  41d5c4:	ffff 00ff ffff 00ff ffff 00ff ffff 00ff     ................
  41d5d4:	ffff 00ff ffff 00ff ffff 00ff ffff 00ff     ................
  41d5e4:	ffff 00ff ffff 00ff ffff 00ff ffff 00ff     ................
  41d5f4:	ffff 00ff ffff 00ff ffff 00ff ffff 00ff     ................
  41d604:	ffff 00ff ffff 00ff ffff 00ff ffff 00ff     ................
  41d614:	ffff 00ff ffff 00ff ffff 00ff ffff 00ff     ................
  41d624:	ffff 00ff ffff 00ff ffff 00ff ffff 00ff     ................
  41d634:	ffff 00ff ffff 00ff ffff 00ff ffff 00ff     ................
  41d644:	ffff 00ff ffff 00ff ffff 00ff ffff 00ff     ................
  41d654:	ffff 00ff ffff 00ff ffff 00ff ffff 00ff     ................
  41d664:	ffff 00ff ffff 00ff ffff 00ff ffff 00ff     ................
  41d674:	ffff 00ff ffff 00ff ffff 00ff ffff 00ff     ................
  41d684:	ffff 00ff ffff 00ff ffff 00ff ffff 00ff     ................
  41d694:	ffff 00ff ffff 00ff ffff 00ff ffff 00ff     ................
  41d6a4:	ffff 00ff ffff 00ff ffff 00ff ffff 00ff     ................
  41d6b4:	ffff 00ff ffff 00ff ffff 00ff ffff 00ff     ................
  41d6c4:	ffff 00ff ffff 00ff ffff 00ff ffff 00ff     ................
  41d6d4:	ffff 00ff ffff 00ff ffff 00ff ffff 00ff     ................
  41d6e4:	ffff 00ff ffff 00ff ffff 00ff ffff 00ff     ................
  41d6f4:	ffff 00ff ffff 00ff ffff 00ff ffff 00ff     ................
  41d704:	ffff 00ff ffff 00ff ffff 00ff ffff 00ff     ................
  41d714:	ffff 00ff ffff 00ff ffff 00ff ffff 00ff     ................
  41d724:	ffff 00ff ffff 00ff ffff 00ff ffff 00ff     ................
  41d734:	ffff 00ff ffff 00ff ffff 00ff ffff 00ff     ................
  41d744:	ffff 00ff ffff 00ff ffff 00ff ffff 00ff     ................
  41d754:	ffff 00ff ffff 00ff ffff 00ff ffff 00ff     ................
  41d764:	ffff 00ff ffff 00ff ffff 00ff ffff 00ff     ................
  41d774:	ffff 00ff ffff 00ff ffff 00ff ffff 00ff     ................
  41d784:	ffff 00ff ffff 00ff ffff 00ff ffff 00ff     ................
  41d794:	ffff 00ff ffff 00ff ffff 00ff ffff 00ff     ................
  41d7a4:	ffff 00ff ffff 00ff ffff 00ff ffff 00ff     ................
  41d7b4:	ffff 00ff ffff 00ff ffff 00ff ffff 00ff     ................
  41d7c4:	ffff 00ff ffff 00ff ffff 00ff ffff 00ff     ................
  41d7d4:	ffff 00ff ffff 00ff ffff 00ff ffff 00ff     ................
  41d7e4:	ffff 00ff ffff 00ff ffff 00ff ffff 00ff     ................
  41d7f4:	ffff 00ff ffff 00ff ffff 00ff ffff 00ff     ................
  41d804:	ffff 00ff ffff 00ff ffff 00ff ffff 00ff     ................
  41d814:	ffff 00ff ffff 00ff ffff 00ff ffff 00ff     ................
  41d824:	ffff 00ff ffff 00ff ffff 00ff ffff 00ff     ................
  41d834:	ffff 00ff ffff 00ff ffff 00ff ffff 00ff     ................
  41d844:	ffff 00ff ffff 00ff ffff 00ff ffff 00ff     ................
  41d854:	ffff 00ff ffff 00ff ffff 00ff ffff 00ff     ................
  41d864:	ffff 00ff ffff 00ff ffff 00ff ffff 00ff     ................
  41d874:	ffff 00ff ffff 00ff ffff 00ff ffff 00ff     ................
  41d884:	ffff 00ff ffff 00ff ffff 00ff ffff 00ff     ................
  41d894:	ffff 00ff ffff 00ff ffff 00ff ffff 00ff     ................
  41d8a4:	ffff 00ff ffff 00ff ffff 00ff ffff 00ff     ................
  41d8b4:	ffff 00ff ffff 00ff ffff 00ff ffff 00ff     ................
  41d8c4:	ffff 00ff ffff 00ff ffff 00ff ffff 00ff     ................
  41d8d4:	ffff 00ff ffff 00ff ffff 00ff ffff 00ff     ................
  41d8e4:	ffff 00ff ffff 00ff ffff 00ff ffff 00ff     ................
  41d8f4:	ffff 00ff ffff 00ff ffff 00ff ffff 00ff     ................
  41d904:	ffff 00ff ffff 00ff ffff 00ff ffff 00ff     ................
  41d914:	ffff 00ff ffff 00ff ffff 00ff ffff 00ff     ................
  41d924:	ffff 00ff ffff 00ff ffff 00ff ffff 00ff     ................
  41d934:	ffff 00ff ffff 00ff ffff 00ff ffff 00ff     ................
  41d944:	ffff 00ff ffff 00ff ffff 00ff ffff 00ff     ................
  41d954:	ffff 00ff ffff 00ff ffff 00ff ffff 00ff     ................
  41d964:	ffff 00ff ffff 00ff ffff 00ff ffff 00ff     ................
  41d974:	ffff 00ff ffff 00ff ffff 00ff ffff 00ff     ................
  41d984:	ffff 00ff ffff 00ff ffff 00ff ffff 00ff     ................
  41d994:	ffff 00ff ffff 00ff ffff 00ff ffff 00ff     ................
  41d9a4:	ffff 00ff ffff 00ff ffff 00ff ffff 00ff     ................
  41d9b4:	ffff 00ff ffff 00ff ffff 00ff ffff 00ff     ................
  41d9c4:	ffff 00ff ffff 00ff ffff 00ff ffff 00ff     ................
  41d9d4:	ffff 00ff ffff 00ff ffff 00ff ffff 00ff     ................
  41d9e4:	ffff 00ff ffff 00ff ffff 00ff ffff 00ff     ................
  41d9f4:	ffff 00ff ffff 00ff ffff 00ff ffff 00ff     ................
  41da04:	ffff 00ff ffff 00ff ffff 00ff ffff 00ff     ................
  41da14:	ffff 00ff ffff 00ff ffff 00ff ffff 00ff     ................
  41da24:	ffff 00ff ffff 00ff ffff 00ff ffff 00ff     ................
  41da34:	ffff 00ff ffff 00ff ffff 00ff ffff 00ff     ................
  41da44:	ffff 00ff ffff 00ff ffff 00ff ffff 00ff     ................
  41da54:	ffff 00ff ffff 00ff ffff 00ff ffff 00ff     ................
  41da64:	ffff 00ff ffff 00ff ffff 00ff ffff 00ff     ................
  41da74:	ffff 00ff ffff 00ff ffff 00ff ffff 00ff     ................
  41da84:	ffff 00ff ffff 00ff ffff 00ff ffff 00ff     ................
  41da94:	ffff 00ff ffff 00ff ffff 00ff ffff 00ff     ................
  41daa4:	ffff 00ff ffff 00ff ffff 00ff ffff 00ff     ................
  41dab4:	ffff 00ff ffff 00ff ffff 00ff ffff 00ff     ................
  41dac4:	ffff 00ff ffff 00ff ffff 00ff ffff 00ff     ................
  41dad4:	ffff 00ff ffff 00ff ffff 00ff ffff 00ff     ................
  41dae4:	ffff 00ff ffff 00ff ffff 00ff ffff 00ff     ................
  41daf4:	ffff 00ff ffff 00ff ffff 00ff ffff 00ff     ................
  41db04:	ffff 00ff ffff 00ff ffff 00ff ffff 00ff     ................
  41db14:	ffff 00ff ffff 00ff ffff 00ff ffff 00ff     ................
  41db24:	ffff 00ff ffff 00ff ffff 00ff ffff 00ff     ................
  41db34:	ffff 00ff ffff 00ff ffff 00ff ffff 00ff     ................
  41db44:	ffff 00ff ffff 00ff ffff 00ff ffff 00ff     ................
  41db54:	ffff 00ff ffff 00ff ffff 00ff ffff 00ff     ................
  41db64:	ffff 00ff ffff 00ff ffff 00ff ffff 00ff     ................
  41db74:	ffff 00ff ffff 00ff ffff 00ff ffff 00ff     ................
  41db84:	ffff 00ff ffff 00ff ffff 00ff ffff 00ff     ................
  41db94:	ffff 00ff ffff 00ff ffff 00ff ffff 00ff     ................
  41dba4:	ffff 00ff ffff 00ff ffff 00ff ffff 00ff     ................
  41dbb4:	ffff 00ff ffff 00ff ffff 00ff ffff 00ff     ................
  41dbc4:	ffff 00ff ffff 00ff ffff 00ff ffff 00ff     ................
  41dbd4:	ffff 00ff ffff 00ff ffff 00ff ffff 00ff     ................
  41dbe4:	ffff 00ff ffff 00ff ffff 00ff ffff 00ff     ................
  41dbf4:	ffff 00ff ffff 00ff ffff 00ff ffff 00ff     ................
  41dc04:	ffff 00ff ffff 00ff ffff 00ff ffff 00ff     ................
  41dc14:	ffff 00ff ffff 00ff ffff 00ff ffff 00ff     ................
  41dc24:	ffff 00ff ffff 00ff ffff 00ff ffff 00ff     ................
  41dc34:	ffff 00ff ffff 00ff ffff 00ff ffff 00ff     ................
  41dc44:	ffff 00ff ffff 00ff ffff 00ff ffff 00ff     ................
  41dc54:	ffff 00ff ffff 00ff ffff 00ff ffff 00ff     ................
  41dc64:	ffff 00ff ffff 00ff ffff 00ff ffff 00ff     ................
  41dc74:	ffff 00ff ffff 00ff ffff 00ff ffff 00ff     ................
  41dc84:	ffff 00ff ffff 00ff ffff 00ff ffff 00ff     ................
  41dc94:	ffff 00ff ffff 00ff ffff 00ff ffff 00ff     ................
  41dca4:	ffff 00ff ffff 00ff ffff 00ff ffff 00ff     ................
  41dcb4:	ffff 00ff ffff 00ff ffff 00ff ffff 00ff     ................
  41dcc4:	ffff 00ff ffff 00ff ffff 00ff ffff 00ff     ................
  41dcd4:	ffff 00ff ffff 00ff ffff 00ff ffff 00ff     ................
  41dce4:	ffff 00ff ffff 00ff ffff 00ff ffff 00ff     ................
  41dcf4:	ffff 00ff ffff 00ff ffff 00ff ffff 00ff     ................
  41dd04:	ffff 00ff ffff 00ff ffff 00ff ffff 00ff     ................
  41dd14:	ffff 00ff ffff 00ff ffff 00ff ffff 00ff     ................
  41dd24:	ffff 00ff ffff 00ff ffff 00ff ffff 00ff     ................
  41dd34:	ffff 00ff ffff 00ff ffff 00ff ffff 00ff     ................
  41dd44:	ffff 00ff ffff 00ff ffff 00ff ffff 00ff     ................
  41dd54:	ffff 00ff ffff 00ff ffff 00ff ffff 00ff     ................
  41dd64:	ffff 00ff ffff 00ff ffff 00ff ffff 00ff     ................
  41dd74:	ffff 00ff ffff 00ff ffff 00ff ffff 00ff     ................
  41dd84:	ffff 00ff ffff 00ff ffff 00ff ffff 00ff     ................
  41dd94:	ffff 00ff ffff 00ff ffff 00ff ffff 00ff     ................
  41dda4:	ffff 00ff ffff 00ff ffff 00ff ffff 00ff     ................
  41ddb4:	ffff 00ff ffff 00ff ffff 00ff ffff 00ff     ................
  41ddc4:	ffff 00ff ffff 00ff ffff 00ff ffff 00ff     ................
  41ddd4:	ffff 00ff ffff 00ff ffff 00ff ffff 00ff     ................
  41dde4:	ffff 00ff ffff 00ff ffff 00ff ffff 00ff     ................
  41ddf4:	ffff 00ff ffff 00ff ffff 00ff ffff 00ff     ................
  41de04:	ffff 00ff ffff 00ff ffff 00ff ffff 00ff     ................
  41de14:	ffff 00ff ffff 00ff ffff 00ff ffff 00ff     ................
  41de24:	ffff 00ff ffff 00ff ffff 00ff ffff 00ff     ................
  41de34:	ffff 00ff ffff 00ff ffff 00ff ffff 00ff     ................
  41de44:	ffff 00ff ffff 00ff ffff 00ff ffff 00ff     ................
  41de54:	ffff 00ff ffff 00ff ffff 00ff ffff 00ff     ................
  41de64:	ffff 00ff ffff 00ff ffff 00ff ffff 00ff     ................
  41de74:	ffff 00ff ffff 00ff ffff 00ff ffff 00ff     ................
  41de84:	ffff 00ff ffff 00ff ffff 00ff ffff 00ff     ................
  41de94:	ffff 00ff ffff 00ff ffff 00ff ffff 00ff     ................
  41dea4:	ffff 00ff ffff 00ff ffff 00ff ffff 00ff     ................
  41deb4:	ffff 00ff ffff 00ff ffff 00ff ffff 00ff     ................
  41dec4:	ffff 00ff ffff 00ff ffff 00ff ffff 00ff     ................
  41ded4:	ffff 00ff ffff 00ff ffff 00ff ffff 00ff     ................
  41dee4:	ffff 00ff ffff 00ff ffff 00ff ffff 00ff     ................
  41def4:	ffff 00ff ffff 00ff ffff 00ff ffff 00ff     ................
  41df04:	ffff 00ff ffff 00ff ffff 00ff ffff 00ff     ................
  41df14:	ffff 00ff ffff 00ff ffff 00ff ffff 00ff     ................
  41df24:	ffff 00ff ffff 00ff ffff 00ff ffff 00ff     ................
  41df34:	ffff 00ff ffff 00ff ffff 00ff ffff 00ff     ................
  41df44:	ffff 00ff ffff 00ff ffff 00ff ffff 00ff     ................
  41df54:	ffff 00ff ffff 00ff ffff 00ff ffff 00ff     ................
  41df64:	ffff 00ff ffff 00ff ffff 00ff ffff 00ff     ................
  41df74:	ffff 00ff ffff 00ff ffff 00ff ffff 00ff     ................
  41df84:	ffff 00ff ffff 00ff ffff 00ff ffff 00ff     ................
  41df94:	ffff 00ff ffff 00ff ffff 00ff ffff 00ff     ................
  41dfa4:	ffff 00ff ffff 00ff ffff 00ff ffff 00ff     ................
  41dfb4:	ffff 00ff ffff 00ff ffff 00ff ffff 00ff     ................
  41dfc4:	ffff 00ff ffff 00ff ffff 00ff ffff 00ff     ................
  41dfd4:	ffff 00ff ffff 00ff ffff 00ff ffff 00ff     ................
  41dfe4:	ffff 00ff ffff 00ff ffff 00ff ffff 00ff     ................
  41dff4:	ffff 00ff ffff 00ff ffff 00ff ffff 00ff     ................
  41e004:	ffff 00ff ffff 00ff ffff 00ff ffff 00ff     ................
  41e014:	ffff 00ff ffff 00ff ffff 00ff ffff 00ff     ................
  41e024:	ffff 00ff ffff 00ff ffff 00ff ffff 00ff     ................
  41e034:	ffff 00ff ffff 00ff ffff 00ff ffff 00ff     ................
  41e044:	ffff 00ff ffff 00ff ffff 00ff ffff 00ff     ................
  41e054:	ffff 00ff ffff 00ff ffff 00ff ffff 00ff     ................
  41e064:	ffff 00ff ffff 00ff ffff 00ff ffff 00ff     ................
  41e074:	ffff 00ff ffff 00ff ffff 00ff ffff 00ff     ................
  41e084:	ffff 00ff ffff 00ff ffff 00ff ffff 00ff     ................
  41e094:	ffff 00ff ffff 00ff ffff 00ff ffff 00ff     ................
  41e0a4:	ffff 00ff ffff 00ff ffff 00ff ffff 00ff     ................
  41e0b4:	ffff 00ff ffff 00ff ffff 00ff ffff 00ff     ................
  41e0c4:	ffff 00ff ffff 00ff ffff 00ff ffff 00ff     ................
  41e0d4:	ffff 00ff ffff 00ff ffff 00ff ffff 00ff     ................
  41e0e4:	ffff 00ff ffff 00ff ffff 00ff ffff 00ff     ................
  41e0f4:	ffff 00ff ffff 00ff ffff 00ff ffff 00ff     ................
  41e104:	ffff 00ff ffff 00ff ffff 00ff ffff 00ff     ................
  41e114:	ffff 00ff ffff 00ff ffff 00ff ffff 00ff     ................
  41e124:	ffff 00ff ffff 00ff ffff 00ff ffff 00ff     ................
  41e134:	ffff 00ff ffff 00ff ffff 00ff ffff 00ff     ................
  41e144:	ffff 00ff ffff 00ff ffff 00ff ffff 00ff     ................
  41e154:	ffff 00ff ffff 00ff ffff 00ff ffff 00ff     ................
  41e164:	ffff 00ff ffff 00ff ffff 00ff ffff 00ff     ................
  41e174:	ffff 00ff ffff 00ff ffff 00ff ffff 00ff     ................
  41e184:	ffff 00ff ffff 00ff ffff 00ff ffff 00ff     ................
  41e194:	ffff 00ff ffff 00ff ffff 00ff ffff 00ff     ................
  41e1a4:	ffff 00ff ffff 00ff ffff 00ff ffff 00ff     ................
  41e1b4:	ffff 00ff ffff 00ff ffff 00ff ffff 00ff     ................
  41e1c4:	ffff 00ff ffff 00ff ffff 00ff ffff 00ff     ................
  41e1d4:	ffff 00ff ffff 00ff ffff 00ff ffff 00ff     ................
  41e1e4:	ffff 00ff ffff 00ff ffff 00ff ffff 00ff     ................
  41e1f4:	ffff 00ff ffff 00ff ffff 00ff ffff 00ff     ................
  41e204:	ffff 00ff ffff 00ff ffff 00ff ffff 00ff     ................
  41e214:	ffff 00ff ffff 00ff ffff 00ff ffff 00ff     ................
  41e224:	ffff 00ff ffff 00ff ffff 00ff ffff 00ff     ................
  41e234:	ffff 00ff ffff 00ff ffff 00ff ffff 00ff     ................
  41e244:	ffff 00ff ffff 00ff ffff 00ff ffff 00ff     ................
  41e254:	ffff 00ff ffff 00ff ffff 00ff ffff 00ff     ................
  41e264:	ffff 00ff ffff 00ff ffff 00ff ffff 00ff     ................
  41e274:	ffff 00ff ffff 00ff ffff 00ff ffff 00ff     ................
  41e284:	ffff 00ff ffff 00ff ffff 00ff ffff 00ff     ................
  41e294:	ffff 00ff ffff 00ff ffff 00ff ffff 00ff     ................
  41e2a4:	ffff 00ff ffff 00ff ffff 00ff ffff 00ff     ................
  41e2b4:	ffff 00ff ffff 00ff ffff 00ff ffff 00ff     ................
  41e2c4:	ffff 00ff ffff 00ff ffff 00ff ffff 00ff     ................
  41e2d4:	ffff 00ff ffff 00ff ffff 00ff ffff 00ff     ................
  41e2e4:	ffff 00ff ffff 00ff ffff 00ff ffff 00ff     ................
  41e2f4:	ffff 00ff ffff 00ff ffff 00ff ffff 00ff     ................
  41e304:	ffff 00ff ffff 00ff ffff 00ff ffff 00ff     ................
  41e314:	ffff 00ff ffff 00ff ffff 00ff ffff 00ff     ................
  41e324:	ffff 00ff ffff 00ff ffff 00ff ffff 00ff     ................
  41e334:	ffff 00ff ffff 00ff ffff 00ff ffff 00ff     ................
  41e344:	ffff 00ff ffff 00ff ffff 00ff ffff 00ff     ................
  41e354:	ffff 00ff ffff 00ff ffff 00ff ffff 00ff     ................
  41e364:	ffff 00ff ffff 00ff ffff 00ff ffff 00ff     ................
  41e374:	ffff 00ff ffff 00ff ffff 00ff ffff 00ff     ................
  41e384:	ffff 00ff ffff 00ff ffff 00ff ffff 00ff     ................
  41e394:	ffff 00ff ffff 00ff ffff 00ff ffff 00ff     ................
  41e3a4:	ffff 00ff ffff 00ff ffff 00ff ffff 00ff     ................
  41e3b4:	ffff 00ff ffff 00ff ffff 00ff ffff 00ff     ................
  41e3c4:	ffff 00ff ffff 00ff ffff 00ff ffff 00ff     ................
  41e3d4:	ffff 00ff ffff 00ff ffff 00ff ffff 00ff     ................
  41e3e4:	ffff 00ff ffff 00ff ffff 00ff ffff 00ff     ................
  41e3f4:	ffff 00ff ffff 00ff ffff 00ff ffff 00ff     ................
  41e404:	ffff 00ff ffff 00ff ffff 00ff ffff 00ff     ................
  41e414:	ffff 00ff ffff 00ff ffff 00ff ffff 00ff     ................
  41e424:	ffff 00ff ffff 00ff ffff 00ff ffff 00ff     ................
  41e434:	ffff 00ff ffff 00ff ffff 00ff ffff 00ff     ................
  41e444:	ffff 00ff ffff 00ff ffff 00ff ffff 00ff     ................
  41e454:	ffff 00ff ffff 00ff ffff 00ff ffff 00ff     ................
  41e464:	ffff 00ff ffff 00ff ffff 00ff ffff 00ff     ................
  41e474:	ffff 00ff ffff 00ff ffff 00ff ffff 00ff     ................
  41e484:	ffff 00ff ffff 00ff ffff 00ff ffff 00ff     ................
  41e494:	ffff 00ff ffff 00ff ffff 00ff ffff 00ff     ................
  41e4a4:	ffff 00ff ffff 00ff ffff 00ff ffff 00ff     ................
  41e4b4:	ffff 00ff ffff 00ff ffff 00ff ffff 00ff     ................
  41e4c4:	ffff 00ff ffff 00ff ffff 00ff ffff 00ff     ................
  41e4d4:	ffff 00ff ffff 00ff ffff 00ff ffff 00ff     ................
  41e4e4:	ffff 00ff ffff 00ff ffff 00ff ffff 00ff     ................
  41e4f4:	ffff 00ff ffff 00ff ffff 00ff ffff 00ff     ................
  41e504:	ffff 00ff ffff 00ff ffff 00ff ffff 00ff     ................
  41e514:	ffff 00ff ffff 00ff ffff 00ff ffff 00ff     ................
  41e524:	ffff 00ff ffff 00ff ffff 00ff ffff 00ff     ................
  41e534:	ffff 00ff ffff 00ff ffff 00ff ffff 00ff     ................
  41e544:	ffff 00ff ffff 00ff ffff 00ff ffff 00ff     ................
  41e554:	ffff 00ff ffff 00ff ffff 00ff ffff 00ff     ................
  41e564:	ffff 00ff ffff 00ff ffff 00ff ffff 00ff     ................
  41e574:	ffff 00ff ffff 00ff ffff 00ff ffff 00ff     ................
  41e584:	ffff 00ff ffff 00ff ffff 00ff ffff 00ff     ................
  41e594:	ffff 00ff ffff 00ff ffff 00ff ffff 00ff     ................
  41e5a4:	ffff 00ff ffff 00ff ffff 00ff ffff 00ff     ................
  41e5b4:	ffff 00ff ffff 00ff ffff 00ff ffff 00ff     ................
  41e5c4:	ffff 00ff ffff 00ff ffff 00ff ffff 00ff     ................
  41e5d4:	ffff 00ff ffff 00ff ffff 00ff ffff 00ff     ................
  41e5e4:	ffff 00ff ffff 00ff ffff 00ff ffff 00ff     ................
  41e5f4:	ffff 00ff ffff 00ff ffff 00ff ffff 00ff     ................
  41e604:	ffff 00ff ffff 00ff ffff 00ff ffff 00ff     ................
  41e614:	ffff 00ff ffff 00ff ffff 00ff ffff 00ff     ................
  41e624:	ffff 00ff ffff 00ff ffff 00ff ffff 00ff     ................
  41e634:	ffff 00ff ffff 00ff ffff 00ff ffff 00ff     ................
  41e644:	ffff 00ff ffff 00ff ffff 00ff ffff 00ff     ................
  41e654:	ffff 00ff ffff 00ff ffff 00ff ffff 00ff     ................
  41e664:	ffff 00ff ffff 00ff ffff 00ff ffff 00ff     ................
  41e674:	ffff 00ff ffff 00ff ffff 00ff ffff 00ff     ................
  41e684:	ffff 00ff ffff 00ff ffff 00ff ffff 00ff     ................
  41e694:	ffff 00ff ffff 00ff ffff 00ff ffff 00ff     ................
  41e6a4:	ffff 00ff ffff 00ff ffff 00ff ffff 00ff     ................
  41e6b4:	ffff 00ff ffff 00ff ffff 00ff ffff 00ff     ................
  41e6c4:	ffff 00ff ffff 00ff ffff 00ff ffff 00ff     ................
  41e6d4:	ffff 00ff ffff 00ff ffff 00ff ffff 00ff     ................
  41e6e4:	ffff 00ff ffff 00ff ffff 00ff ffff 00ff     ................
  41e6f4:	ffff 00ff ffff 00ff ffff 00ff ffff 00ff     ................
  41e704:	ffff 00ff ffff 00ff ffff 00ff ffff 00ff     ................
  41e714:	ffff 00ff ffff 00ff ffff 00ff ffff 00ff     ................
  41e724:	ffff 00ff ffff 00ff ffff 00ff ffff 00ff     ................
  41e734:	ffff 00ff ffff 00ff ffff 00ff ffff 00ff     ................
  41e744:	ffff 00ff ffff 00ff ffff 00ff ffff 00ff     ................
  41e754:	ffff 00ff ffff 00ff ffff 00ff ffff 00ff     ................
  41e764:	ffff 00ff ffff 00ff ffff 00ff ffff 00ff     ................
  41e774:	ffff 00ff ffff 00ff ffff 00ff ffff 00ff     ................
  41e784:	ffff 00ff ffff 00ff ffff 00ff ffff 00ff     ................
  41e794:	ffff 00ff ffff 00ff ffff 00ff ffff 00ff     ................
  41e7a4:	ffff 00ff ffff 00ff ffff 00ff ffff 00ff     ................
  41e7b4:	ffff 00ff ffff 00ff ffff 00ff ffff 00ff     ................
  41e7c4:	ffff 00ff ffff 00ff ffff 00ff ffff 00ff     ................
  41e7d4:	ffff 00ff ffff 00ff ffff 00ff ffff 00ff     ................
  41e7e4:	ffff 00ff ffff 00ff ffff 00ff ffff 00ff     ................
  41e7f4:	ffff 00ff ffff 00ff ffff 00ff ffff 00ff     ................
  41e804:	ffff 00ff ffff 00ff ffff 00ff ffff 00ff     ................
  41e814:	ffff 00ff ffff 00ff ffff 00ff ffff 00ff     ................
  41e824:	ffff 00ff ffff 00ff ffff 00ff ffff 00ff     ................
  41e834:	ffff 00ff ffff 00ff ffff 00ff ffff 00ff     ................
  41e844:	ffff 00ff ffff 00ff ffff 00ff ffff 00ff     ................
  41e854:	ffff 00ff ffff 00ff ffff 00ff ffff 00ff     ................
  41e864:	ffff 00ff ffff 00ff ffff 00ff ffff 00ff     ................
  41e874:	ffff 00ff ffff 00ff ffff 00ff ffff 00ff     ................
  41e884:	ffff 00ff ffff 00ff ffff 00ff ffff 00ff     ................
  41e894:	ffff 00ff ffff 00ff ffff 00ff ffff 00ff     ................
  41e8a4:	ffff 00ff ffff 00ff ffff 00ff ffff 00ff     ................
  41e8b4:	ffff 00ff ffff 00ff ffff 00ff ffff 00ff     ................
  41e8c4:	ffff 00ff ffff 00ff ffff 00ff ffff 00ff     ................
  41e8d4:	ffff 00ff ffff 00ff ffff 00ff ffff 00ff     ................
  41e8e4:	ffff 00ff ffff 00ff ffff 00ff ffff 00ff     ................
  41e8f4:	ffff 00ff ffff 00ff ffff 00ff ffff 00ff     ................
  41e904:	ffff 00ff ffff 00ff ffff 00ff ffff 00ff     ................
  41e914:	ffff 00ff ffff 00ff ffff 00ff ffff 00ff     ................
  41e924:	ffff 00ff ffff 00ff ffff 00ff ffff 00ff     ................
  41e934:	ffff 00ff ffff 00ff ffff 00ff ffff 00ff     ................
  41e944:	ffff 00ff ffff 00ff ffff 00ff ffff 00ff     ................
  41e954:	ffff 00ff ffff 00ff ffff 00ff ffff 00ff     ................
  41e964:	ffff 00ff ffff 00ff ffff 00ff ffff 00ff     ................
  41e974:	ffff 00ff ffff 00ff ffff 00ff ffff 00ff     ................
  41e984:	ffff 00ff ffff 00ff ffff 00ff ffff 00ff     ................
  41e994:	ffff 00ff ffff 00ff ffff 00ff ffff 00ff     ................
  41e9a4:	ffff 00ff ffff 00ff ffff 00ff ffff 00ff     ................
  41e9b4:	ffff 00ff ffff 00ff ffff 00ff ffff 00ff     ................
  41e9c4:	ffff 00ff ffff 00ff ffff 00ff ffff 00ff     ................
  41e9d4:	ffff 00ff ffff 00ff ffff 00ff ffff 00ff     ................
  41e9e4:	ffff 00ff ffff 00ff ffff 00ff ffff 00ff     ................
  41e9f4:	ffff 00ff ffff 00ff ffff 00ff ffff 00ff     ................
  41ea04:	ffff 00ff ffff 00ff ffff 00ff ffff 00ff     ................
  41ea14:	ffff 00ff ffff 00ff ffff 00ff ffff 00ff     ................
  41ea24:	ffff 00ff ffff 00ff ffff 00ff ffff 00ff     ................
  41ea34:	ffff 00ff ffff 00ff ffff 00ff ffff 00ff     ................
  41ea44:	ffff 00ff ffff 00ff ffff 00ff ffff 00ff     ................
  41ea54:	ffff 00ff ffff 00ff ffff 00ff ffff 00ff     ................
  41ea64:	ffff 00ff ffff 00ff ffff 00ff ffff 00ff     ................
  41ea74:	ffff 00ff ffff 00ff ffff 00ff ffff 00ff     ................
  41ea84:	ffff 00ff ffff 00ff ffff 00ff ffff 00ff     ................
  41ea94:	ffff 00ff ffff 00ff ffff 00ff ffff 00ff     ................
  41eaa4:	ffff 00ff ffff 00ff ffff 00ff ffff 00ff     ................
  41eab4:	ffff 00ff ffff 00ff ffff 00ff ffff 00ff     ................
  41eac4:	ffff 00ff ffff 00ff ffff 00ff ffff 00ff     ................
  41ead4:	ffff 00ff ffff 00ff ffff 00ff ffff 00ff     ................
  41eae4:	ffff 00ff ffff 00ff ffff 00ff ffff 00ff     ................
  41eaf4:	ffff 00ff ffff 00ff ffff 00ff ffff 00ff     ................
  41eb04:	ffff 00ff ffff 00ff ffff 00ff ffff 00ff     ................
  41eb14:	ffff 00ff ffff 00ff ffff 00ff ffff 00ff     ................
  41eb24:	ffff 00ff ffff 00ff ffff 00ff ffff 00ff     ................
  41eb34:	ffff 00ff ffff 00ff ffff 00ff ffff 00ff     ................
  41eb44:	ffff 00ff ffff 00ff ffff 00ff ffff 00ff     ................
  41eb54:	ffff 00ff ffff 00ff ffff 00ff ffff 00ff     ................
  41eb64:	ffff 00ff ffff 00ff ffff 00ff ffff 00ff     ................
  41eb74:	ffff 00ff ffff 00ff ffff 00ff ffff 00ff     ................
  41eb84:	ffff 00ff ffff 00ff ffff 00ff ffff 00ff     ................
  41eb94:	ffff 00ff ffff 00ff ffff 00ff ffff 00ff     ................
  41eba4:	ffff 00ff ffff 00ff ffff 00ff ffff 00ff     ................
  41ebb4:	ffff 00ff ffff 00ff ffff 00ff ffff 00ff     ................
  41ebc4:	ffff 00ff ffff 00ff ffff 00ff ffff 00ff     ................
  41ebd4:	ffff 00ff ffff 00ff ffff 00ff ffff 00ff     ................
  41ebe4:	ffff 00ff ffff 00ff ffff 00ff ffff 00ff     ................
  41ebf4:	ffff 00ff ffff 00ff ffff 00ff ffff 00ff     ................
  41ec04:	ffff 00ff ffff 00ff ffff 00ff ffff 00ff     ................
  41ec14:	ffff 00ff ffff 00ff ffff 00ff ffff 00ff     ................
  41ec24:	ffff 00ff ffff 00ff ffff 00ff ffff 00ff     ................
  41ec34:	ffff 00ff ffff 00ff ffff 00ff ffff 00ff     ................
  41ec44:	ffff 00ff ffff 00ff ffff 00ff ffff 00ff     ................
  41ec54:	ffff 00ff ffff 00ff ffff 00ff ffff 00ff     ................
  41ec64:	ffff 00ff ffff 00ff ffff 00ff ffff 00ff     ................
  41ec74:	ffff 00ff ffff 00ff ffff 00ff ffff 00ff     ................
  41ec84:	ffff 00ff ffff 00ff ffff 00ff ffff 00ff     ................
  41ec94:	ffff 00ff ffff 00ff ffff 00ff ffff 00ff     ................
  41eca4:	ffff 00ff ffff 00ff ffff 00ff ffff 00ff     ................
  41ecb4:	ffff 00ff ffff 00ff ffff 00ff ffff 00ff     ................
  41ecc4:	ffff 00ff ffff 00ff ffff 00ff ffff 00ff     ................
  41ecd4:	ffff 00ff ffff 00ff ffff 00ff ffff 00ff     ................
  41ece4:	ffff 00ff ffff 00ff ffff 00ff ffff 00ff     ................
  41ecf4:	ffff 00ff ffff 00ff ffff 00ff ffff 00ff     ................
  41ed04:	ffff 00ff ffff 00ff ffff 00ff ffff 00ff     ................
  41ed14:	ffff 00ff ffff 00ff ffff 00ff ffff 00ff     ................
  41ed24:	ffff 00ff ffff 00ff ffff 00ff ffff 00ff     ................
  41ed34:	ffff 00ff ffff 00ff ffff 00ff ffff 00ff     ................
  41ed44:	ffff 00ff ffff 00ff ffff 00ff ffff 00ff     ................
  41ed54:	ffff 00ff ffff 00ff ffff 00ff ffff 00ff     ................
  41ed64:	ffff 00ff ffff 00ff ffff 00ff ffff 00ff     ................
  41ed74:	ffff 00ff ffff 00ff ffff 00ff ffff 00ff     ................
  41ed84:	ffff 00ff ffff 00ff ffff 00ff ffff 00ff     ................
  41ed94:	ffff 00ff ffff 00ff ffff 00ff ffff 00ff     ................
  41eda4:	ffff 00ff ffff 00ff ffff 00ff ffff 00ff     ................
  41edb4:	ffff 00ff ffff 00ff ffff 00ff ffff 00ff     ................
  41edc4:	ffff 00ff ffff 00ff ffff 00ff ffff 00ff     ................
  41edd4:	ffff 00ff ffff 00ff ffff 00ff ffff 00ff     ................
  41ede4:	ffff 00ff ffff 00ff ffff 00ff ffff 00ff     ................
  41edf4:	ffff 00ff ffff 00ff ffff 00ff ffff 00ff     ................
  41ee04:	ffff 00ff ffff 00ff ffff 00ff ffff 00ff     ................
  41ee14:	ffff 00ff ffff 00ff ffff 00ff ffff 00ff     ................
  41ee24:	ffff 00ff ffff 00ff ffff 00ff ffff 00ff     ................
  41ee34:	ffff 00ff ffff 00ff ffff 00ff ffff 00ff     ................
  41ee44:	ffff 00ff ffff 00ff ffff 00ff ffff 00ff     ................
  41ee54:	ffff 00ff ffff 00ff ffff 00ff ffff 00ff     ................
  41ee64:	ffff 00ff ffff 00ff ffff 00ff ffff 00ff     ................
  41ee74:	ffff 00ff ffff 00ff ffff 00ff ffff 00ff     ................
  41ee84:	ffff 00ff ffff 00ff ffff 00ff ffff 00ff     ................
  41ee94:	ffff 00ff ffff 00ff ffff 00ff ffff 00ff     ................
  41eea4:	ffff 00ff ffff 00ff ffff 00ff ffff 00ff     ................
  41eeb4:	ffff 00ff ffff 00ff ffff 00ff ffff 00ff     ................
  41eec4:	ffff 00ff ffff 00ff ffff 00ff ffff 00ff     ................
  41eed4:	ffff 00ff ffff 00ff ffff 00ff ffff 00ff     ................
  41eee4:	ffff 00ff ffff 00ff ffff 00ff ffff 00ff     ................
  41eef4:	ffff 00ff ffff 00ff ffff 00ff ffff 00ff     ................
  41ef04:	ffff 00ff ffff 00ff ffff 00ff ffff 00ff     ................
  41ef14:	ffff 00ff ffff 00ff ffff 00ff ffff 00ff     ................
  41ef24:	ffff 00ff ffff 00ff ffff 00ff ffff 00ff     ................
  41ef34:	ffff 00ff ffff 00ff ffff 00ff ffff 00ff     ................
  41ef44:	ffff 00ff ffff 00ff ffff 00ff ffff 00ff     ................
  41ef54:	ffff 00ff ffff 00ff ffff 00ff ffff 00ff     ................
  41ef64:	ffff 00ff ffff 00ff ffff 00ff ffff 00ff     ................
  41ef74:	ffff 00ff ffff 00ff ffff 00ff ffff 00ff     ................
  41ef84:	ffff 00ff ffff 00ff ffff 00ff ffff 00ff     ................
  41ef94:	ffff 00ff ffff 00ff ffff 00ff ffff 00ff     ................
  41efa4:	ffff 00ff ffff 00ff ffff 00ff ffff 00ff     ................
  41efb4:	ffff 00ff ffff 00ff ffff 00ff ffff 00ff     ................
  41efc4:	ffff 00ff ffff 00ff ffff 00ff ffff 00ff     ................
  41efd4:	ffff 00ff ffff 00ff ffff 00ff ffff 00ff     ................
  41efe4:	ffff 00ff ffff 00ff ffff 00ff ffff 00ff     ................
  41eff4:	ffff 00ff ffff 00ff ffff 00ff ffff 00ff     ................
  41f004:	ffff 00ff ffff 00ff ffff 00ff ffff 00ff     ................
  41f014:	ffff 00ff ffff 00ff ffff 00ff ffff 00ff     ................
  41f024:	ffff 00ff ffff 00ff ffff 00ff ffff 00ff     ................
  41f034:	ffff 00ff ffff 00ff ffff 00ff ffff 00ff     ................
  41f044:	ffff 00ff ffff 00ff ffff 00ff ffff 00ff     ................
  41f054:	ffff 00ff ffff 00ff ffff 00ff ffff 00ff     ................
  41f064:	ffff 00ff ffff 00ff ffff 00ff ffff 00ff     ................
  41f074:	ffff 00ff ffff 00ff ffff 00ff ffff 00ff     ................
  41f084:	ffff 00ff ffff 00ff ffff 00ff ffff 00ff     ................
  41f094:	ffff 00ff ffff 00ff ffff 00ff ffff 00ff     ................
  41f0a4:	ffff 00ff ffff 00ff ffff 00ff ffff 00ff     ................
  41f0b4:	ffff 00ff ffff 00ff ffff 00ff ffff 00ff     ................
  41f0c4:	ffff 00ff ffff 00ff ffff 00ff ffff 00ff     ................
  41f0d4:	ffff 00ff ffff 00ff ffff 00ff ffff 00ff     ................
  41f0e4:	ffff 00ff ffff 00ff ffff 00ff ffff 00ff     ................
  41f0f4:	ffff 00ff ffff 00ff ffff 00ff ffff 00ff     ................
  41f104:	ffff 00ff ffff 00ff ffff 00ff ffff 00ff     ................
  41f114:	ffff 00ff ffff 00ff ffff 00ff ffff 00ff     ................
  41f124:	ffff 00ff ffff 00ff ffff 00ff ffff 00ff     ................
  41f134:	ffff 00ff ffff 00ff ffff 00ff ffff 00ff     ................
  41f144:	ffff 00ff ffff 00ff ffff 00ff ffff 00ff     ................
  41f154:	ffff 00ff ffff 00ff ffff 00ff ffff 00ff     ................
  41f164:	ffff 00ff ffff 00ff ffff 00ff ffff 00ff     ................
  41f174:	ffff 00ff ffff 00ff ffff 00ff ffff 00ff     ................
  41f184:	ffff 00ff ffff 00ff ffff 00ff ffff 00ff     ................
  41f194:	ffff 00ff ffff 00ff ffff 00ff ffff 00ff     ................
  41f1a4:	ffff 00ff ffff 00ff ffff 00ff ffff 00ff     ................
  41f1b4:	ffff 00ff ffff 00ff ffff 00ff ffff 00ff     ................
  41f1c4:	ffff 00ff ffff 00ff ffff 00ff ffff 00ff     ................
  41f1d4:	ffff 00ff ffff 00ff ffff 00ff ffff 00ff     ................
  41f1e4:	ffff 00ff ffff 00ff ffff 00ff ffff 00ff     ................
  41f1f4:	ffff 00ff ffff 00ff ffff 00ff ffff 00ff     ................
  41f204:	ffff 00ff ffff 00ff ffff 00ff ffff 00ff     ................
  41f214:	ffff 00ff ffff 00ff ffff 00ff ffff 00ff     ................
  41f224:	ffff 00ff ffff 00ff ffff 00ff ffff 00ff     ................
  41f234:	ffff 00ff ffff 00ff ffff 00ff ffff 00ff     ................
  41f244:	ffff 00ff ffff 00ff ffff 00ff ffff 00ff     ................
  41f254:	ffff 00ff ffff 00ff ffff 00ff ffff 00ff     ................
  41f264:	ffff 00ff ffff 00ff ffff 00ff ffff 00ff     ................
  41f274:	ffff 00ff ffff 00ff ffff 00ff ffff 00ff     ................
  41f284:	ffff 00ff ffff 00ff ffff 00ff ffff 00ff     ................
  41f294:	ffff 00ff ffff 00ff ffff 00ff ffff 00ff     ................
  41f2a4:	ffff 00ff ffff 00ff ffff 00ff ffff 00ff     ................
  41f2b4:	ffff 00ff ffff 00ff ffff 00ff ffff 00ff     ................
  41f2c4:	ffff 00ff ffff 00ff ffff 00ff ffff 00ff     ................
  41f2d4:	ffff 00ff ffff 00ff ffff 00ff ffff 00ff     ................
  41f2e4:	ffff 00ff ffff 00ff ffff 00ff ffff 00ff     ................
  41f2f4:	ffff 00ff ffff 00ff ffff 00ff ffff 00ff     ................
  41f304:	ffff 00ff ffff 00ff ffff 00ff ffff 00ff     ................
  41f314:	ffff 00ff ffff 00ff ffff 00ff ffff 00ff     ................
  41f324:	ffff 00ff ffff 00ff ffff 00ff ffff 00ff     ................
  41f334:	ffff 00ff ffff 00ff ffff 00ff ffff 00ff     ................
  41f344:	ffff 00ff ffff 00ff ffff 00ff ffff 00ff     ................
  41f354:	ffff 00ff ffff 00ff ffff 00ff ffff 00ff     ................
  41f364:	ffff 00ff ffff 00ff ffff 00ff ffff 00ff     ................
  41f374:	ffff 00ff ffff 00ff ffff 00ff ffff 00ff     ................
  41f384:	ffff 00ff ffff 00ff ffff 00ff ffff 00ff     ................
  41f394:	ffff 00ff ffff 00ff ffff 00ff ffff 00ff     ................
  41f3a4:	ffff 00ff ffff 00ff ffff 00ff ffff 00ff     ................
  41f3b4:	ffff 00ff ffff 00ff ffff 00ff ffff 00ff     ................
  41f3c4:	ffff 00ff ffff 00ff ffff 00ff ffff 00ff     ................
  41f3d4:	ffff 00ff ffff 00ff ffff 00ff ffff 00ff     ................
  41f3e4:	ffff 00ff ffff 00ff ffff 00ff ffff 00ff     ................
  41f3f4:	ffff 00ff ffff 00ff ffff 00ff ffff 00ff     ................
  41f404:	ffff 00ff ffff 00ff ffff 00ff ffff 00ff     ................
  41f414:	ffff 00ff ffff 00ff ffff 00ff ffff 00ff     ................
  41f424:	ffff 00ff ffff 00ff ffff 00ff ffff 00ff     ................
  41f434:	ffff 00ff ffff 00ff ffff 00ff ffff 00ff     ................
  41f444:	ffff 00ff ffff 00ff ffff 00ff ffff 00ff     ................
  41f454:	ffff 00ff ffff 00ff ffff 00ff ffff 00ff     ................
  41f464:	ffff 00ff ffff 00ff ffff 00ff ffff 00ff     ................
  41f474:	ffff 00ff ffff 00ff ffff 00ff ffff 00ff     ................
  41f484:	ffff 00ff ffff 00ff ffff 00ff ffff 00ff     ................
  41f494:	ffff 00ff ffff 00ff ffff 00ff ffff 00ff     ................
  41f4a4:	ffff 00ff ffff 00ff ffff 00ff ffff 00ff     ................
  41f4b4:	ffff 00ff ffff 00ff ffff 00ff ffff 00ff     ................
  41f4c4:	ffff 00ff ffff 00ff ffff 00ff ffff 00ff     ................
  41f4d4:	ffff 00ff ffff 00ff ffff 00ff ffff 00ff     ................
  41f4e4:	ffff 00ff ffff 00ff ffff 00ff ffff 00ff     ................
  41f4f4:	ffff 00ff ffff 00ff ffff 00ff ffff 00ff     ................
  41f504:	ffff 00ff ffff 00ff ffff 00ff ffff 00ff     ................
  41f514:	ffff 00ff ffff 00ff ffff 00ff ffff 00ff     ................
  41f524:	ffff 00ff ffff 00ff ffff 00ff ffff 00ff     ................
  41f534:	ffff 00ff ffff 00ff ffff 00ff ffff 00ff     ................
  41f544:	ffff 00ff ffff 00ff ffff 00ff ffff 00ff     ................
  41f554:	ffff 00ff ffff 00ff ffff 00ff ffff 00ff     ................
  41f564:	ffff 00ff ffff 00ff ffff 00ff ffff 00ff     ................
  41f574:	ffff 00ff ffff 00ff ffff 00ff ffff 00ff     ................
  41f584:	ffff 00ff ffff 00ff ffff 00ff ffff 00ff     ................
  41f594:	ffff 00ff ffff 00ff ffff 00ff ffff 00ff     ................
  41f5a4:	ffff 00ff ffff 00ff ffff 00ff ffff 00ff     ................
  41f5b4:	ffff 00ff ffff 00ff ffff 00ff ffff 00ff     ................
  41f5c4:	ffff 00ff ffff 00ff ffff 00ff ffff 00ff     ................
  41f5d4:	ffff 00ff ffff 00ff ffff 00ff ffff 00ff     ................
  41f5e4:	ffff 00ff ffff 00ff ffff 00ff ffff 00ff     ................
  41f5f4:	ffff 00ff ffff 00ff ffff 00ff ffff 00ff     ................
  41f604:	ffff 00ff ffff 00ff ffff 00ff ffff 00ff     ................
  41f614:	ffff 00ff ffff 00ff ffff 00ff ffff 00ff     ................
  41f624:	ffff 00ff ffff 00ff ffff 00ff ffff 00ff     ................
  41f634:	ffff 00ff ffff 00ff ffff 00ff ffff 00ff     ................
  41f644:	ffff 00ff ffff 00ff ffff 00ff ffff 00ff     ................
  41f654:	ffff 00ff ffff 00ff ffff 00ff ffff 00ff     ................
  41f664:	ffff 00ff ffff 00ff ffff 00ff ffff 00ff     ................
  41f674:	ffff 00ff ffff 00ff ffff 00ff ffff 00ff     ................
  41f684:	ffff 00ff ffff 00ff ffff 00ff ffff 00ff     ................
  41f694:	ffff 00ff ffff 00ff ffff 00ff ffff 00ff     ................
  41f6a4:	ffff 00ff ffff 00ff ffff 00ff ffff 00ff     ................
  41f6b4:	ffff 00ff ffff 00ff ffff 00ff ffff 00ff     ................
  41f6c4:	ffff 00ff ffff 00ff ffff 00ff ffff 00ff     ................
  41f6d4:	ffff 00ff ffff 00ff ffff 00ff ffff 00ff     ................
  41f6e4:	ffff 00ff ffff 00ff ffff 00ff ffff 00ff     ................
  41f6f4:	6425 0000 6f43 746e 6461 726f 0000 0000     %d..Contador....
  41f704:	6d41 6c70 7469 6475 0065 0000               Amplitude...

0041f710 <npio2_hw>:
  41f710:	21fb 3ff9 21fb 4009 d97c 4012 21fb 4019     .!.?.!.@|..@.!.@
  41f720:	6a7a 401f d97c 4022 fdbb 4025 21fb 4029     zj.@|."@..%@.!)@
  41f730:	463a 402c 6a7a 402f 475c 4031 d97c 4032     :F,@zj/@\G1@|.2@
  41f740:	6b9c 4034 fdbb 4035 8fdb 4037 21fb 4039     .k4@..5@..7@.!9@
  41f750:	b41b 403a 463a 403c d85a 403d 6a7a 403f     ..:@:F<@Z.=@zj?@
  41f760:	7e4c 4040 475c 4041 106c 4042 d97c 4042     L~@@\GA@l.B@|.B@
  41f770:	a28c 4043 6b9c 4044 34ac 4045 fdbb 4045     ..C@.kD@.4E@..E@
  41f780:	c6cb 4046 8fdb 4047 58eb 4048 21fb 4049     ..F@..G@.XH@.!I@

0041f790 <two_over_pi>:
  41f790:	f983 00a2 4e44 006e 29fc 0015 57d1 0027     ....DNn..)...W'.
  41f7a0:	34dd 00f5 db62 00c0 993c 0095 9041 0043     .4..b...<...A.C.
  41f7b0:	5163 00fe debb 00ab 61b7 00c5 6e3a 0024     cQ.......a..:n$.
  41f7c0:	4dd2 0042 0649 00e0 ea09 002e 921c 00d1     .MB.I...........
  41f7d0:	1deb 00fe b129 001c 3ee8 00a7 35f5 0082     ....)....>...5..
  41f7e0:	bb44 002e e99c 0084 26b4 0070 7e41 005f     D........&p.A~_.
  41f7f0:	91d6 0039 8353 0039 f49c 0039 5f8b 0084     ..9.S.9...9.._..
  41f800:	f928 00bd 1ff8 003b ffde 0097 980f 0005     (.....;.........
  41f810:	2f11 00ef 5a0a 008b 1f6d 006d 7ecf 0036     ./...Z..m.m..~6.
  41f820:	cb09 0027 4f46 00b7 669e 003f ea2d 005f     ..'.FO...f?.-._.
  41f830:	27ba 0075 ebe5 00c7 7b3d 00f1 39f7 0007     .'u.....={...9..
  41f840:	5292 008a 6bfb 00ea b11f 005f 5d08 008d     .R...k...._..]..
  41f850:	0330 0056 fc7b 0046 abf0 006b bc20 00cf     0.V.{.F...k. ...
  41f860:	f436 009a a9e3 001d 615e 0091 1b08 00e6     6.......^a......
  41f870:	9985 0065 14a0 005f 408d 0068 d880 00ff     ..e..._..@h.....
  41f880:	7327 004d 0606 0031 56ca 0015 a8c9 0073     'sM...1..V....s.
  41f890:	e27b 0060 8c6b 00c0                         {.`.k...

0041f898 <init_jk>:
  41f898:	0002 0000 0003 0000 0004 0000 0006 0000     ................

0041f8a8 <PIo2>:
  41f8a8:	0000 4000 21fb 3ff9 0000 0000 442d 3e74     ...@.!.?....-Dt>
  41f8b8:	0000 8000 4698 3cf8 0000 6000 cc51 3b78     .....F.<...`Q.x;
  41f8c8:	0000 8000 1b83 39f0 0000 4000 2520 387a     .......9...@ %z8
  41f8d8:	0000 8000 8222 36e3 0000 0000 f31d 3569     ...."..6......i5
  41f8e8:	0043 0000                                   C...

0041f8ec <_global_impure_ptr>:
  41f8ec:	0010 2000                                   ... 

0041f8f0 <zeroes.6911>:
  41f8f0:	3030 3030 3030 3030 3030 3030 3030 3030     0000000000000000

0041f900 <blanks.6910>:
  41f900:	2020 2020 2020 2020 2020 2020 2020 2020                     
  41f910:	4e49 0046 6e69 0066 414e 004e 616e 006e     INF.inf.NAN.nan.
  41f920:	3130 3332 3534 3736 3938 4241 4443 4645     0123456789ABCDEF
  41f930:	0000 0000 3130 3332 3534 3736 3938 6261     ....0123456789ab
  41f940:	6463 6665 0000 0000 6e28 6c75 296c 0000     cdef....(null)..
  41f950:	0030 0000 6e49 6966 696e 7974 0000 0000     0...Infinity....
  41f960:	614e 004e 4f50 4953 0058 0000 002e 0000     NaN.POSIX.......

0041f970 <__mprec_tens>:
  41f970:	0000 0000 0000 3ff0 0000 0000 0000 4024     .......?......$@
  41f980:	0000 0000 0000 4059 0000 0000 4000 408f     ......Y@.....@.@
  41f990:	0000 0000 8800 40c3 0000 0000 6a00 40f8     .......@.....j.@
  41f9a0:	0000 0000 8480 412e 0000 0000 12d0 4163     .......A......cA
  41f9b0:	0000 0000 d784 4197 0000 0000 cd65 41cd     .......A....e..A
  41f9c0:	0000 2000 a05f 4202 0000 e800 4876 4237     ... _..B....vH7B
  41f9d0:	0000 a200 1a94 426d 0000 e540 309c 42a2     ......mB..@..0.B
  41f9e0:	0000 1e90 bcc4 42d6 0000 2634 6bf5 430c     .......B..4&.k.C
  41f9f0:	8000 37e0 c379 4341 a000 85d8 3457 4376     ...7y.AC....W4vC
  41fa00:	c800 674e c16d 43ab 3d00 6091 58e4 43e1     ..Ngm..C.=.`.X.C
  41fa10:	8c40 78b5 af1d 4415 ef50 d6e2 1ae4 444b     @..x...DP.....KD
  41fa20:	d592 064d f0cf 4480 4af6 c7e1 2d02 44b5     ..M....D.J...-.D
  41fa30:	9db4 79d9 7843 44ea                         ...yCx.D

0041fa38 <p05.5302>:
  41fa38:	0005 0000 0019 0000 007d 0000 0000 0000     ........}.......

0041fa48 <__mprec_bigtens>:
  41fa48:	8000 37e0 c379 4341 6e17 b505 b8b5 4693     ...7y.AC.n.....F
  41fa58:	f9f5 e93f 4f03 4d38 1d32 f930 7748 5a82     ..?..O8M2.0.Hw.Z
  41fa68:	bf3c 7f73 4fdd 7515                         <.s..O.u

0041fa70 <_init>:
  41fa70:	b5f8      	push	{r3, r4, r5, r6, r7, lr}
  41fa72:	bf00      	nop
  41fa74:	bcf8      	pop	{r3, r4, r5, r6, r7}
  41fa76:	bc08      	pop	{r3}
  41fa78:	469e      	mov	lr, r3
  41fa7a:	4770      	bx	lr

0041fa7c <__init_array_start>:
  41fa7c:	00404c61 	.word	0x00404c61

0041fa80 <__frame_dummy_init_array_entry>:
  41fa80:	004000f1                                ..@.

0041fa84 <_fini>:
  41fa84:	b5f8      	push	{r3, r4, r5, r6, r7, lr}
  41fa86:	bf00      	nop
  41fa88:	bcf8      	pop	{r3, r4, r5, r6, r7}
  41fa8a:	bc08      	pop	{r3}
  41fa8c:	469e      	mov	lr, r3
  41fa8e:	4770      	bx	lr

0041fa90 <__fini_array_start>:
  41fa90:	004000cd 	.word	0x004000cd
